(dp0
S'dm'
p1
(lp2
cnumpy.core.multiarray
scalar
p3
(cnumpy
dtype
p4
(S'f8'
p5
I0
I1
tp6
Rp7
(I3
S'<'
p8
NNNI-1
I-1
I0
tp9
bS'\xb5\x15\xf3?\xf77\xa1A'
p10
tp11
Rp12
asS'star'
p13
(lp14
g3
(g7
S'\xf2\x8aE[\x82+\x97A'
p15
tp16
Rp17
asS'sfr'
p18
(lp19
I0
asS'smass10'
p20
cnumpy.core.multiarray
_reconstruct
p21
(cpynbody.array
SimArray
p22
(I0
tp23
S'b'
p24
tp25
Rp26
(ccopy_reg
_reconstructor
p27
(cpynbody.units
CompositeUnit
p28
c__builtin__
object
p29
Ntp30
Rp31
(dp32
S'_powers'
p33
(lp34
cfractions
Fraction
p35
(S'1'
p36
tp37
Rp38
asS'_scale'
p39
I1
sS'_bases'
p40
(lp41
cpynbody.units
_resurrect_named_unit
p42
(S'Msol'
p43
S'M_{\\odot}'
p44
g27
(g28
g29
Ntp45
Rp46
(dp47
g33
(lp48
I1
asg39
F1.98892e+30
sg40
(lp49
g42
(S'kg'
p50
NNtp51
Rp52
asbtp53
Rp54
asbI1
(tg7
I00
S'\xee\xa5\xca\x15\x151\xddA'
p55
tp56
bsS'bharray'
p57
(lp58
I0
asS'gasarray'
p59
(lp60
g3
(g7
S'[h\xb1\x98\xe3t\x83A'
p61
tp62
Rp63
asS'redshiftarray'
p64
(lp65
F1.5765166949677223e-14
asS'surfden1kpc'
p66
(lp67
g21
(g22
(I0
tp68
g24
tp69
Rp70
(g31
I1
(tg7
I00
S'\x86\x89\x98i;\x80}A'
p71
tp72
basS'outflowarray'
p73
(lp74
g3
(g7
S'sL\xd7\xb8}[\xe4?'
p75
tp76
Rp77
asS'smass'
p78
g21
(g22
(I0
tp79
g24
tp80
Rp81
(g31
I1
(tg7
I00
S'\t\x8bE[\x82+\x97A'
p82
tp83
bsS'inflowarray'
p84
(lp85
g3
(g7
S'\xeb\x0f\x96\x12\t3\xf4?'
p86
tp87
Rp88
asS'ssfr'
p89
(lp90
g21
(g22
(I0
tp91
g24
tp92
Rp93
(g27
(g28
g29
Ntp94
Rp95
(dp96
g33
(lp97
g35
(S'-1'
p98
tp99
Rp100
asg39
F1.0
sg40
(lp101
g54
asbI1
(tg7
I00
S'\x00\x00\x00\x00\x00\x00\x00\x00'
p102
tp103
bas.