(dp0
S'dm'
p1
(lp2
cnumpy.core.multiarray
scalar
p3
(cnumpy
dtype
p4
(S'f8'
p5
I0
I1
tp6
Rp7
(I3
S'<'
p8
NNNI-1
I-1
I0
tp9
bS'\xbf\x82\xdcT\x10\xe3\xadA'
p10
tp11
Rp12
ag3
(g7
S'\xb8\xe5\xe7\x01\x9e\xe2\xb5A'
p13
tp14
Rp15
ag3
(g7
S'\xfd\x85\xc3Z!\x0e\xb0A'
p16
tp17
Rp18
ag3
(g7
S'Q\xf4#d\xeb\xf6\xbdA'
p19
tp20
Rp21
ag3
(g7
S'\x16\xe9HX\x05\xca\xb9A'
p22
tp23
Rp24
ag3
(g7
S'\x8e\xa9\xef\xa0\xc0\xdb\xb8A'
p25
tp26
Rp27
ag3
(g7
S';\xdd\xe4@\xd0\xda\xb6A'
p28
tp29
Rp30
ag3
(g7
S'\xc7\xbd\xfcj\xd5\xc4\xb5A'
p31
tp32
Rp33
ag3
(g7
S'I\x0e\\\xa4\xb5\xc2\xb4A'
p34
tp35
Rp36
ag3
(g7
S'TE\xb2\x9a,\xa9\xb6A'
p37
tp38
Rp39
ag3
(g7
S',\x05\xd0\xd7\x98\xf8\xb6A'
p40
tp41
Rp42
ag3
(g7
S"'f\x06\x96\xb3Q\xbaA"
p43
tp44
Rp45
ag3
(g7
S'\t\rJ\x8d\x17>\xb7A'
p46
tp47
Rp48
ag3
(g7
S'\x87\xbc\xeaS7@\xb8A'
p49
tp50
Rp51
ag3
(g7
S'>)+\x1b\x99z\xb9A'
p52
tp53
Rp54
ag3
(g7
S'\xdf~,\xbf\xdf\x98\xb3A'
p55
tp56
Rp57
ag3
(g7
S'\xda\xb7\xb4\x0e]\xb2\x9fA'
p58
tp59
Rp60
ag3
(g7
S'\xdc2\xe6\xe4\x16\xf9\xb0A'
p61
tp62
Rp63
ag3
(g7
S'E\x160h"\x16\xbaA'
p64
tp65
Rp66
ag3
(g7
S'\x84p\xa4yn\xa0\xb5A'
p67
tp68
Rp69
ag3
(g7
S's\xf3\xe6;\xc0\x18\xb5A'
p70
tp71
Rp72
ag3
(g7
S'\xee\xad\xae\xf1\xe9+\xb0A'
p73
tp74
Rp75
ag3
(g7
S'\xf5CFu\xa0\x16\xb4A'
p76
tp77
Rp78
ag3
(g7
S'-ZHp\x90T\xb2A'
p79
tp80
Rp81
ag3
(g7
S'\xac\x07\xf4\x05\xd5\x01\xb2A'
p82
tp83
Rp84
ag3
(g7
S'T=\xfe\x18(\x04\xaeA'
p85
tp86
Rp87
ag3
(g7
S'\x8c\xb2!_\xef\x97\xb1A'
p88
tp89
Rp90
ag3
(g7
S'V\x985\x02I\xb0\xb0A'
p91
tp92
Rp93
ag3
(g7
S'\xf0RW\xc6`\xd1\xb0A'
p94
tp95
Rp96
ag3
(g7
S"@\xa7\xc0\xa3_'\xafA"
p97
tp98
Rp99
ag3
(g7
S'\xe9\xf7\x1f\xdd?%\xaeA'
p100
tp101
Rp102
ag3
(g7
S"'\x03\xa1\xda7D\xadA"
p103
tp104
Rp105
ag3
(g7
S'\x96\x89\xea\xe4\x02\x96\xabA'
p106
tp107
Rp108
ag3
(g7
S'\xdc\x16B\x7f\xc0\x9a\xa7A'
p109
tp110
Rp111
ag3
(g7
S'%i\xb3\xcf>\x1d\xa4A'
p112
tp113
Rp114
ag3
(g7
S'a|\x91\x9c\xf2Q\xa7A'
p115
tp116
Rp117
ag3
(g7
S'kG0\xd7V\xc0\xa6A'
p118
tp119
Rp120
asS'star'
p121
(lp122
g3
(g7
S'\x19\x14\xb5\xc67\xb0cA'
p123
tp124
Rp125
ag3
(g7
S'r\xae\x93\x1bk\xcb`A'
p126
tp127
Rp128
ag3
(g7
S'\xa4\x80\xb46\x043ZA'
p129
tp130
Rp131
ag3
(g7
S'\x0cU\x15\x88\x14qxA'
p132
tp133
Rp134
ag3
(g7
S'k\xb1\x8by\x82\xb8{A'
p135
tp136
Rp137
ag3
(g7
S's\xf3\xa2OR\xcc~A'
p138
tp139
Rp140
ag3
(g7
S'\xc5\xf0\xf1@l\x94\x80A'
p141
tp142
Rp143
ag3
(g7
S'\xe2\xc0%\xf7\xc2\xf0\x83A'
p144
tp145
Rp146
ag3
(g7
S'\x11r\x99\xc0\xb3U\x85A'
p147
tp148
Rp149
ag3
(g7
S'\xb68G9#`\x8aA'
p150
tp151
Rp152
ag3
(g7
S'\xde&\xad\xcb\xd22\x8eA'
p153
tp154
Rp155
ag3
(g7
S'\xb343\xc4\xdbc\x94A'
p156
tp157
Rp158
ag3
(g7
S'9\xc2\xd1k\x8b\xb2\x93A'
p159
tp160
Rp161
ag3
(g7
S'\xf4\xd2\x07\xee\x9cd\x9bA'
p162
tp163
Rp164
ag3
(g7
S'?\r\x07\xef\xecD\x9cA'
p165
tp166
Rp167
ag3
(g7
S'\x93Vp\x87t\x8e\x85A'
p168
tp169
Rp170
ag3
(g7
S'E\x08\x1e>y\xf2TA'
p171
tp172
Rp173
ag3
(g7
S'2\xe9!\xeb\xc2!\x87A'
p174
tp175
Rp176
ag3
(g7
S'n\x05\r\x92\xfd\xd0\x93A'
p177
tp178
Rp179
ag3
(g7
S'[\x01\xfe\x88\xe71\x8cA'
p180
tp181
Rp182
ag3
(g7
S'\x88\x0b@\xec42\x8fA'
p183
tp184
Rp185
ag3
(g7
S'w\xa8\xbcR\xb4\xd9\x8bA'
p186
tp187
Rp188
ag3
(g7
S'\xa2:\x9d\n\x89f\x92A'
p189
tp190
Rp191
ag3
(g7
S"1}%'\x04A\x92A"
p192
tp193
Rp194
ag3
(g7
S'\xb5\xd4\x11y\xdf_\x93A'
p195
tp196
Rp197
ag3
(g7
S'\xe4\x19\x81\x9bS\x0e\x8fA'
p198
tp199
Rp200
ag3
(g7
S'\xea\xc6v^F\x06\x94A'
p201
tp202
Rp203
ag3
(g7
S'\xe5\x9e+\x0b\x05\x15\x95A'
p204
tp205
Rp206
ag3
(g7
S'\xc9\x9a\x1eVc\xeb\x96A'
p207
tp208
Rp209
ag3
(g7
S'\x05\xac\x19]0B\x96A'
p210
tp211
Rp212
ag3
(g7
S'\x17\xddL\x03\x81\x0b\x97A'
p213
tp214
Rp215
ag3
(g7
S'|\xd2f.E\x9d\x96A'
p216
tp217
Rp218
ag3
(g7
S'?\xbb\xb0\xf8\xd9\x7f\x96A'
p219
tp220
Rp221
ag3
(g7
S'\x04\x95\xfe\x98\x80A\x92A'
p222
tp223
Rp224
ag3
(g7
S'\x03\xf5\xb1\xfb\xb45\x90A'
p225
tp226
Rp227
ag3
(g7
S'\x84\x0cW;\x95^\x94A'
p228
tp229
Rp230
ag3
(g7
S'\x13$\x1b\xb4\x98e\x93A'
p231
tp232
Rp233
asS'sfr'
p234
(lp235
g3
(g7
S'\xdb\xe1\x9aLb\x88v?'
p236
tp237
Rp238
ag3
(g7
S",\xc4\x96\x83\xcf\xf9'?"
p239
tp240
Rp241
ag3
(g7
S'H<\x17\x7f\x8d\x8c\x90?'
p242
tp243
Rp244
ag3
(g7
S'\x8f\xc1P\xf8I\x1a\x97?'
p245
tp246
Rp247
ag3
(g7
S'\xc9\xaf\xb8lk\xae\x9a?'
p248
tp249
Rp250
ag3
(g7
S'\xcd\xbe\x87\xf0c\x10\x80?'
p251
tp252
Rp253
ag3
(g7
S'"\xc7\xf45\xcf\x1e\x7f?'
p254
tp255
Rp256
ag3
(g7
S'7\xad\xff\xa5\x97:\xa2?'
p257
tp258
Rp259
ag3
(g7
S'i\xec\x81<\x9c\x03\xa4?'
p260
tp261
Rp262
ag3
(g7
S'\xbd\x9ecP3\xa4\x99?'
p263
tp264
Rp265
ag3
(g7
S'6\x96\xa0\xe1\x06(\x8d?'
p266
tp267
Rp268
ag3
(g7
S'gc\xc9\xf1\xa8\x11\xab?'
p269
tp270
Rp271
ag3
(g7
S'\x98;\xb1\xa1\xaf\xba\xab?'
p272
tp273
Rp274
ag3
(g7
S'\x1a\x02\xd8\x86p\xbf\xb2?'
p275
tp276
Rp277
ag3
(g7
S'\xc2\xb7\xbet\xfe\xa0\xa6?'
p278
tp279
Rp280
ag3
(g7
S'T\xd8\xff\xf3\x86MX?'
p281
tp282
Rp283
aI0
ag3
(g7
S'\xa7\xd16>\xae\xbc|?'
p284
tp285
Rp286
ag3
(g7
S'\xf5\xadr\xbe\x85\xd5\xa8?'
p287
tp288
Rp289
ag3
(g7
S'\xc4}\x19\xebe\x91\x82?'
p290
tp291
Rp292
ag3
(g7
S'B\xffR&R\xb3\x92?'
p293
tp294
Rp295
ag3
(g7
S'3\x95O\xae\xdb\x05\x85?'
p296
tp297
Rp298
ag3
(g7
S'\x8e96\xdc\x1b9\x84?'
p299
tp300
Rp301
ag3
(g7
S'n\x8e\x96\x041\xd2\x97?'
p302
tp303
Rp304
ag3
(g7
S'\x9c\xb4\xcck\xf9\xf1\x96?'
p305
tp306
Rp307
ag3
(g7
S'\x85\xd6\xde\x9a\xf2Me?'
p308
tp309
Rp310
ag3
(g7
S'C\xf6\xdf\xb8\xebw\x8a?'
p311
tp312
Rp313
ag3
(g7
S"\xee\xe4K\xc3'`\x91?"
p314
tp315
Rp316
ag3
(g7
S'\xc3\xa2r\x1e\x1d\x92\x9b?'
p317
tp318
Rp319
ag3
(g7
S'\xfbU\xebU=\xdb\xa3?'
p320
tp321
Rp322
ag3
(g7
S'b\xe5+\x06\xc1\xc2\x90?'
p323
tp324
Rp325
ag3
(g7
S'M\xa07o#\xbbz?'
p326
tp327
Rp328
ag3
(g7
S'\xef\xbb\x0b\xd4NZ\x84?'
p329
tp330
Rp331
ag3
(g7
S's\xde."w\xdct?'
p332
tp333
Rp334
ag3
(g7
S"'\x9b\x18\x14N'\x83?"
p335
tp336
Rp337
ag3
(g7
S'\xfeD\xd9\xfabU\x8d?'
p338
tp339
Rp340
ag3
(g7
S'\x9d\xfbr\xd4\x90\xc5\x89?'
p341
tp342
Rp343
asS'smass10'
p344
cnumpy.core.multiarray
_reconstruct
p345
(cpynbody.array
SimArray
p346
(I0
tp347
S'b'
p348
tp349
Rp350
(ccopy_reg
_reconstructor
p351
(cpynbody.units
CompositeUnit
p352
c__builtin__
object
p353
Ntp354
Rp355
(dp356
S'_powers'
p357
(lp358
cfractions
Fraction
p359
(S'1'
p360
tp361
Rp362
asS'_scale'
p363
I1
sS'_bases'
p364
(lp365
cpynbody.units
_resurrect_named_unit
p366
(S'Msol'
p367
S'M_{\\odot}'
p368
g351
(g352
g353
Ntp369
Rp370
(dp371
g357
(lp372
I1
asg363
F1.98892e+30
sg364
(lp373
g366
(S'kg'
p374
NNtp375
Rp376
asbtp377
Rp378
asbI1
(tg7
I00
S'8\x07\x8dl\x04\n\xddA'
p379
tp380
bsS'bharray'
p381
(lp382
I0
aI0
aI0
aI0
aI0
aI0
aI0
aI0
aI0
aI0
aI0
aI0
aI0
aI0
aI0
aI0
aI0
aI0
aI0
aI0
aI0
aI0
aI0
aI0
aI0
aI0
aI0
aI0
aI0
aI0
aI0
aI0
aI0
aI0
aI0
aI0
aI0
asS'gasarray'
p383
(lp384
g3
(g7
S'\xf6\x03\xf0\x86\x13*\xa1A'
p385
tp386
Rp387
ag3
(g7
S'm\x99w\x06\x9cn\x83A'
p388
tp389
Rp390
ag3
(g7
S'1V\x08\xc7X\xbc\x93A'
p391
tp392
Rp393
ag3
(g7
S'\xc1\xf5\xf9\xc88\xa1\x94A'
p394
tp395
Rp396
ag3
(g7
S'\xad\x8aj\xcd\xb2]\x9cA'
p397
tp398
Rp399
ag3
(g7
S'%\xf4w\xe5\xcf\xc5\x96A'
p400
tp401
Rp402
ag3
(g7
S'f\xe8\x92\xb7E\xc1\x9bA'
p403
tp404
Rp405
ag3
(g7
S'\xc1\xe4*ck\xb0wA'
p406
tp407
Rp408
ag3
(g7
S'+\xff\x96\xf5Z\xb6\x90A'
p409
tp410
Rp411
ag3
(g7
S'\xeb\xdb-\x00/\x87\xa2A'
p412
tp413
Rp414
ag3
(g7
S'{~\rt\xb4\x9a\xa2A'
p415
tp416
Rp417
ag3
(g7
S'2\xd3Ob\xf6\x93\xabA'
p418
tp419
Rp420
ag3
(g7
S')\xc1\xfdC\xca\xad\x80A'
p421
tp422
Rp423
ag3
(g7
S'\xcb\x02\xc0(g"\xa4A'
p424
tp425
Rp426
ag3
(g7
S'\xdf\x80q\xef8\x1c\x94A'
p427
tp428
Rp429
ag3
(g7
S'\xcfa\xcd\x8f\xd5\xd0rA'
p430
tp431
Rp432
ag3
(g7
S'd\x1a\xe1\x05T\x19sA'
p433
tp434
Rp435
ag3
(g7
S'\t\xe2\xaf]\xb14\x94A'
p436
tp437
Rp438
ag3
(g7
S'[\x9b\x0e\xa1\xad\x1b\xa2A'
p439
tp440
Rp441
ag3
(g7
S'\xb4-58\x05:\x83A'
p442
tp443
Rp444
ag3
(g7
S'\x1f^\x97\x93\xa1\x88WA'
p445
tp446
Rp447
ag3
(g7
S'\x83\xb1\x8c\xf8|\x08\x95A'
p448
tp449
Rp450
ag3
(g7
S'\xb58D1{\x1b\x84A'
p451
tp452
Rp453
ag3
(g7
S'\xf0\x82\xc7\xb1s[\x8aA'
p454
tp455
Rp456
ag3
(g7
S'n\x84\xbd8T\xb9\x84A'
p457
tp458
Rp459
ag3
(g7
S'h\xca(\xc4#\x1e\x96A'
p460
tp461
Rp462
ag3
(g7
S'\xcf6f8\xa3\xba\x82A'
p463
tp464
Rp465
ag3
(g7
S'\x00\xe8P\xb5d\xa3\x95A'
p466
tp467
Rp468
ag3
(g7
S'\xfd\xff\xf1s\x89o\x93A'
p469
tp470
Rp471
ag3
(g7
S'v\xdc\x02\xb7\x93(pA'
p472
tp473
Rp474
ag3
(g7
S'\xea\xe6\xc5\x95\x02~\x94A'
p475
tp476
Rp477
ag3
(g7
S'>\xa5IC\xbf\x05\xa5A'
p478
tp479
Rp480
ag3
(g7
S'\x1b\xf1\x16q\x82\x8c\x9dA'
p481
tp482
Rp483
ag3
(g7
S'\xd1\x9f\xc8x\n)\x8bA'
p484
tp485
Rp486
ag3
(g7
S'\xe1\xb09!\xf8\xfauA'
p487
tp488
Rp489
ag3
(g7
S'k\xc3\xc4\xa555\x91A'
p490
tp491
Rp492
ag3
(g7
S'\x1d\xcf\xca23\x8a\x91A'
p493
tp494
Rp495
asS'redshiftarray'
p496
(lp497
F4.561225338906956
aF4.0219197196751315
aF3.595906673044489
aF3.249222482242713
aF2.9604880271712473
aF2.71551790099832
aF2.5044983646771204
aF2.320405534120926
aF2.158068630365731
aF2.013589558582861
aF1.8839693699809175
aF1.7668599804832716
aF1.6603944899299403
aF1.5630683748162806
aF1.4736545109946966
aF1.3911412352835408
aF1.3146864327771066
aF1.2435829846263102
aF1.1772324075636686
aF1.1151244920657106
aF1.0568213952022236
aF1.0019450842703685
aF0.9501673303644187
aF0.9012016643906826
aF0.8547968568831767
aF0.810731593960949
aF0.7688100988343307
aF0.7288585074728573
aF0.6907218501021464
aF0.6542615228075603
aF0.619353158234319
aF0.5858848232818783
aF0.5537554862750533
aF0.5228737074298768
aF0.4931565153057902
aF0.46452843892788764
aF0.4369206708132436
asS'surfden1kpc'
p498
(lp499
g345
(g346
(I0
tp500
g348
tp501
Rp502
(g351
(g352
g353
Ntp503
Rp504
(dp505
g357
(lp506
g359
(g360
tp507
Rp508
asg363
I1
sg364
(lp509
g378
asbI1
(tg7
I00
S'\xddHN\x9bg\x11IA'
p510
tp511
bag345
(g346
(I0
tp512
g348
tp513
Rp514
(g351
(g352
g353
Ntp515
Rp516
(dp517
g357
(lp518
g359
(g360
tp519
Rp520
asg363
I1
sg364
(lp521
g378
asbI1
(tg7
I00
S'8A\xeb\x830bEA'
p522
tp523
bag345
(g346
(I0
tp524
g348
tp525
Rp526
(g351
(g352
g353
Ntp527
Rp528
(dp529
g357
(lp530
g359
(g360
tp531
Rp532
asg363
I1
sg364
(lp533
g378
asbI1
(tg7
I00
S'O\x85\x1c\xbd\xd1\xad@A'
p534
tp535
bag345
(g346
(I0
tp536
g348
tp537
Rp538
(g351
(g352
g353
Ntp539
Rp540
(dp541
g357
(lp542
g359
(g360
tp543
Rp544
asg363
I1
sg364
(lp545
g378
asbI1
(tg7
I00
S'\xf0\xdb\xf6\x0e\xc3\x1e_A'
p546
tp547
bag345
(g346
(I0
tp548
g348
tp549
Rp550
(g351
(g352
g353
Ntp551
Rp552
(dp553
g357
(lp554
g359
(g360
tp555
Rp556
asg363
I1
sg364
(lp557
g378
asbI1
(tg7
I00
S'\xfd$/C\xc7\xa5aA'
p558
tp559
bag345
(g346
(I0
tp560
g348
tp561
Rp562
(g351
(g352
g353
Ntp563
Rp564
(dp565
g357
(lp566
g359
(g360
tp567
Rp568
asg363
I1
sg364
(lp569
g378
asbI1
(tg7
I00
S'1\xe8G\xa2P\x9bcA'
p570
tp571
bag345
(g346
(I0
tp572
g348
tp573
Rp574
(g351
(g352
g353
Ntp575
Rp576
(dp577
g357
(lp578
g359
(g360
tp579
Rp580
asg363
I1
sg364
(lp581
g378
asbI1
(tg7
I00
S'\x1e\x06\xf9\xc2*\x1ceA'
p582
tp583
bag345
(g346
(I0
tp584
g348
tp585
Rp586
(g351
(g352
g353
Ntp587
Rp588
(dp589
g357
(lp590
g359
(g360
tp591
Rp592
asg363
I1
sg364
(lp593
g378
asbI1
(tg7
I00
S'T1\xa7\x95\x95ciA'
p594
tp595
bag345
(g346
(I0
tp596
g348
tp597
Rp598
(g351
(g352
g353
Ntp599
Rp600
(dp601
g357
(lp602
g359
(g360
tp603
Rp604
asg363
I1
sg364
(lp605
g378
asbI1
(tg7
I00
S'\xf8\x87\x87\x1f\x0e*kA'
p606
tp607
bag345
(g346
(I0
tp608
g348
tp609
Rp610
(g351
(g352
g353
Ntp611
Rp612
(dp613
g357
(lp614
g359
(g360
tp615
Rp616
asg363
I1
sg364
(lp617
g378
asbI1
(tg7
I00
S'\xf2-\x11W\x8b\xcapA'
p618
tp619
bag345
(g346
(I0
tp620
g348
tp621
Rp622
(g351
(g352
g353
Ntp623
Rp624
(dp625
g357
(lp626
g359
(g360
tp627
Rp628
asg363
I1
sg364
(lp629
g378
asbI1
(tg7
I00
S'[\x9e\xf0T\x989sA'
p630
tp631
bag345
(g346
(I0
tp632
g348
tp633
Rp634
(g351
(g352
g353
Ntp635
Rp636
(dp637
g357
(lp638
g359
(g360
tp639
Rp640
asg363
I1
sg364
(lp641
g378
asbI1
(tg7
I00
S'\xa9\xad\x99U!\xf6yA'
p642
tp643
bag345
(g346
(I0
tp644
g348
tp645
Rp646
(g351
(g352
g353
Ntp647
Rp648
(dp649
g357
(lp650
g359
(g360
tp651
Rp652
asg363
I1
sg364
(lp653
g378
asbI1
(tg7
I00
S'8ca\x01^\x14yA'
p654
tp655
bag345
(g346
(I0
tp656
g348
tp657
Rp658
(g351
(g352
g353
Ntp659
Rp660
(dp661
g357
(lp662
g359
(g360
tp663
Rp664
asg363
I1
sg364
(lp665
g378
asbI1
(tg7
I00
S'^b\x8e;^p\x81A'
p666
tp667
bag345
(g346
(I0
tp668
g348
tp669
Rp670
(g351
(g352
g353
Ntp671
Rp672
(dp673
g357
(lp674
g359
(g360
tp675
Rp676
asg363
I1
sg364
(lp677
g378
asbI1
(tg7
I00
S'\xeat*}+\xff\x81A'
p678
tp679
bag345
(g346
(I0
tp680
g348
tp681
Rp682
(g351
(g352
g353
Ntp683
Rp684
(dp685
g357
(lp686
g359
(g360
tp687
Rp688
asg363
I1
sg364
(lp689
g378
asbI1
(tg7
I00
S'\x17\x83x\xbcPrkA'
p690
tp691
bag345
(g346
(I0
tp692
g348
tp693
Rp694
(g351
(g352
g353
Ntp695
Rp696
(dp697
g357
(lp698
g359
(g360
tp699
Rp700
asg363
I1
sg364
(lp701
g378
asbI1
(tg7
I00
S'\x8f\x1d\xae\xa4\xb6\xab:A'
p702
tp703
bag345
(g346
(I0
tp704
g348
tp705
Rp706
(g351
(g352
g353
Ntp707
Rp708
(dp709
g357
(lp710
g359
(g360
tp711
Rp712
asg363
I1
sg364
(lp713
g378
asbI1
(tg7
I00
S'$\xf8@\x1f\xd2smA'
p714
tp715
bag345
(g346
(I0
tp716
g348
tp717
Rp718
(g351
(g352
g353
Ntp719
Rp720
(dp721
g357
(lp722
g359
(g360
tp723
Rp724
asg363
I1
sg364
(lp725
g378
asbI1
(tg7
I00
S'i\xd3\x15\xd3!;yA'
p726
tp727
bag345
(g346
(I0
tp728
g348
tp729
Rp730
(g351
(g352
g353
Ntp731
Rp732
(dp733
g357
(lp734
g359
(g360
tp735
Rp736
asg363
I1
sg364
(lp737
g378
asbI1
(tg7
I00
S'.\x87\x94\x88\x0f\xf3qA'
p738
tp739
bag345
(g346
(I0
tp740
g348
tp741
Rp742
(g351
(g352
g353
Ntp743
Rp744
(dp745
g357
(lp746
g359
(g360
tp747
Rp748
asg363
I1
sg364
(lp749
g378
asbI1
(tg7
I00
S'\xdf\x82\x1cW-\xdcsA'
p750
tp751
bag345
(g346
(I0
tp752
g348
tp753
Rp754
(g351
(g352
g353
Ntp755
Rp756
(dp757
g357
(lp758
g359
(g360
tp759
Rp760
asg363
I1
sg364
(lp761
g378
asbI1
(tg7
I00
S"\xa01')\xe9\xbaqA"
p762
tp763
bag345
(g346
(I0
tp764
g348
tp765
Rp766
(g351
(g352
g353
Ntp767
Rp768
(dp769
g357
(lp770
g359
(g360
tp771
Rp772
asg363
I1
sg364
(lp773
g378
asbI1
(tg7
I00
S'\xfaB\xd1\xcc\xa3mwA'
p774
tp775
bag345
(g346
(I0
tp776
g348
tp777
Rp778
(g351
(g352
g353
Ntp779
Rp780
(dp781
g357
(lp782
g359
(g360
tp783
Rp784
asg363
I1
sg364
(lp785
g378
asbI1
(tg7
I00
S'i\xe2\xe4y\xde=wA'
p786
tp787
bag345
(g346
(I0
tp788
g348
tp789
Rp790
(g351
(g352
g353
Ntp791
Rp792
(dp793
g357
(lp794
g359
(g360
tp795
Rp796
asg363
I1
sg364
(lp797
g378
asbI1
(tg7
I00
S'\x9d\x08\xc5:\x1b\xabxA'
p798
tp799
bag345
(g346
(I0
tp800
g348
tp801
Rp802
(g351
(g352
g353
Ntp803
Rp804
(dp805
g357
(lp806
g359
(g360
tp807
Rp808
asg363
I1
sg364
(lp809
g378
asbI1
(tg7
I00
S'\x16bp\xc9U\xc5sA'
p810
tp811
bag345
(g346
(I0
tp812
g348
tp813
Rp814
(g351
(g352
g353
Ntp815
Rp816
(dp817
g357
(lp818
g359
(g360
tp819
Rp820
asg363
I1
sg364
(lp821
g378
asbI1
(tg7
I00
S'w\xbe\x1f\xd4\xf9~yA'
p822
tp823
bag345
(g346
(I0
tp824
g348
tp825
Rp826
(g351
(g352
g353
Ntp827
Rp828
(dp829
g357
(lp830
g359
(g360
tp831
Rp832
asg363
I1
sg364
(lp833
g378
asbI1
(tg7
I00
S'\xba\r\xa1\xeb\xb2\xd7zA'
p834
tp835
bag345
(g346
(I0
tp836
g348
tp837
Rp838
(g351
(g352
g353
Ntp839
Rp840
(dp841
g357
(lp842
g359
(g360
tp843
Rp844
asg363
I1
sg364
(lp845
g378
asbI1
(tg7
I00
S'\xa3:\xe4(\x97.}A'
p846
tp847
bag345
(g346
(I0
tp848
g348
tp849
Rp850
(g351
(g352
g353
Ntp851
Rp852
(dp853
g357
(lp854
g359
(g360
tp855
Rp856
asg363
I1
sg364
(lp857
g378
asbI1
(tg7
I00
S'\xb9\x96\xd5\xd2(W|A'
p858
tp859
bag345
(g346
(I0
tp860
g348
tp861
Rp862
(g351
(g352
g353
Ntp863
Rp864
(dp865
g357
(lp866
g359
(g360
tp867
Rp868
asg363
I1
sg364
(lp869
g378
asbI1
(tg7
I00
S'\xba\xb6\xc7R{W}A'
p870
tp871
bag345
(g346
(I0
tp872
g348
tp873
Rp874
(g351
(g352
g353
Ntp875
Rp876
(dp877
g357
(lp878
g359
(g360
tp879
Rp880
asg363
I1
sg364
(lp881
g378
asbI1
(tg7
I00
S'@/\xc0\xb7 \xcb|A'
p882
tp883
bag345
(g346
(I0
tp884
g348
tp885
Rp886
(g351
(g352
g353
Ntp887
Rp888
(dp889
g357
(lp890
g359
(g360
tp891
Rp892
asg363
I1
sg364
(lp893
g378
asbI1
(tg7
I00
S'u*\x02\xaf\xab\xa5|A'
p894
tp895
bag345
(g346
(I0
tp896
g348
tp897
Rp898
(g351
(g352
g353
Ntp899
Rp900
(dp901
g357
(lp902
g359
(g360
tp903
Rp904
asg363
I1
sg364
(lp905
g378
asbI1
(tg7
I00
S'l\xe4\x90\xec|>wA'
p906
tp907
bag345
(g346
(I0
tp908
g348
tp909
Rp910
(g351
(g352
g353
Ntp911
Rp912
(dp913
g357
(lp914
g359
(g360
tp915
Rp916
asg363
I1
sg364
(lp917
g378
asbI1
(tg7
I00
S'\xc6$\x8e-\x92\xa3tA'
p918
tp919
bag345
(g346
(I0
tp920
g348
tp921
Rp922
(g351
(g352
g353
Ntp923
Rp924
(dp925
g357
(lp926
g359
(g360
tp927
Rp928
asg363
I1
sg364
(lp929
g378
asbI1
(tg7
I00
S'\x91\x12\xc2\xc7i\xefyA'
p930
tp931
bag345
(g346
(I0
tp932
g348
tp933
Rp934
(g355
I1
(tg7
I00
S'+*\xb2\xd1d\xb2xA'
p935
tp936
basS'outflowarray'
p937
(lp938
g3
(g7
S'\xa1\x15\xb0\xact\xd7\x1d@'
p939
tp940
Rp941
ag3
(g7
S'+\xa7\x9e\nez\xe4?'
p942
tp943
Rp944
ag3
(g7
S'jN~\xa9\x96\xe2\t@'
p945
tp946
Rp947
ag3
(g7
S'\xdd\x9e\x00O"\x0f\x0c@'
p948
tp949
Rp950
ag3
(g7
S'\x06b>\xd1\xfd\x81\x0e@'
p951
tp952
Rp953
ag3
(g7
S'\xb6c\xb8\xfet\xdf\t@'
p954
tp955
Rp956
ag3
(g7
S'\x0fN07\xd0?\x19@'
p957
tp958
Rp959
ag3
(g7
S'\xaa\x97R\xf3\x08\x14\xf0?'
p960
tp961
Rp962
ag3
(g7
S'\x15\x89\x04uB]\x04@'
p963
tp964
Rp965
ag3
(g7
S'\xc7=\x93\xc1|\xe0\x1b@'
p966
tp967
Rp968
ag3
(g7
S'\x85J\x80\xa4F\x8a#@'
p969
tp970
Rp971
ag3
(g7
S'a\xd7\xd3c\xcd\x18(@'
p972
tp973
Rp974
ag3
(g7
S'\xf0L\xed\xb9\xc2#\x02@'
p975
tp976
Rp977
ag3
(g7
S'm/V\x9b]\xe6 @'
p978
tp979
Rp980
ag3
(g7
S'\xcc\xfc\xc3\x8a\x00H @'
p981
tp982
Rp983
ag3
(g7
S'\rB\\7\x1f{\xcb?'
p984
tp985
Rp986
ag3
(g7
S'\xcd@\xe4GH\x18\xd2?'
p987
tp988
Rp989
ag3
(g7
S'\xbf\x06P\xfc\x8c,\x0e@'
p990
tp991
Rp992
ag3
(g7
S'\xe1\x16\xab\xc8\x0f\xc6*@'
p993
tp994
Rp995
ag3
(g7
S'=\xe0\xa7\xde*\xbf\xf4?'
p996
tp997
Rp998
ag3
(g7
S'\xcf5\xe9\xa2:\xc1\xea?'
p999
tp1000
Rp1001
ag3
(g7
S'\x04\xa1\x96h\xf9\xb4\x07@'
p1002
tp1003
Rp1004
ag3
(g7
S'\x08\x1d\xe4\xed\x8c\x08\xf0?'
p1005
tp1006
Rp1007
ag3
(g7
S'tN~]8\xda\x0e@'
p1008
tp1009
Rp1010
ag3
(g7
S'\x85\xc1\x03F\xbb/\x0b@'
p1011
tp1012
Rp1013
ag3
(g7
S'\xc7/u\x1d\xa7Z\xeb?'
p1014
tp1015
Rp1016
ag3
(g7
S't\x18"\xe6\xf1Z\xeb?'
p1017
tp1018
Rp1019
ag3
(g7
S'\xd4\x1a\x00\x8e\xc9\x08\x1f@'
p1020
tp1021
Rp1022
ag3
(g7
S'\x150w\xd2\x06P\x1b@'
p1023
tp1024
Rp1025
ag3
(g7
S'\x96 \x18\xc8\x98\x08\xf3?'
p1026
tp1027
Rp1028
ag3
(g7
S'v\xeb\xf5\x02\xe7\xac\x10@'
p1029
tp1030
Rp1031
ag3
(g7
S'\x8c\x0cL\xf2l\x1f\xfb?'
p1032
tp1033
Rp1034
ag3
(g7
S'\n1~~Lz\x1c@'
p1035
tp1036
Rp1037
ag3
(g7
S'^Z;\x82\x04$\xe1?'
p1038
tp1039
Rp1040
ag3
(g7
S'h{F\xc1\x8c\xe3\xf4?'
p1041
tp1042
Rp1043
ag3
(g7
S'\xa7%\xf4uT:\n@'
p1044
tp1045
Rp1046
ag3
(g7
S'Ip\xa7\xcdu\xf0\x05@'
p1047
tp1048
Rp1049
asS'smass'
p1050
g345
(g346
(I0
tp1051
g348
tp1052
Rp1053
(g355
I1
(tg7
I00
S'\x05$\x1b\xb4\x98e\x93A'
p1054
tp1055
bsS'inflowarray'
p1056
(lp1057
g3
(g7
S'\x90M\xea\x01\x05\x08\x08@'
p1058
tp1059
Rp1060
ag3
(g7
S'\xfd\xb5umU\xe3\x03@'
p1061
tp1062
Rp1063
ag3
(g7
S'\xd5\xe8\t*\x10\xfa\t@'
p1064
tp1065
Rp1066
ag3
(g7
S':\r\x0e\xb5Y\x1f\x11@'
p1067
tp1068
Rp1069
ag3
(g7
S'\x97\x00\xf7\xc2\xbc\x84\x18@'
p1070
tp1071
Rp1072
ag3
(g7
S'Y\xc2\xc1>\xef\xf9\t@'
p1073
tp1074
Rp1075
ag3
(g7
S'\x8c\xedo\x18\xd01\x11@'
p1076
tp1077
Rp1078
ag3
(g7
S'\xff\x81\x16\xcd\x94\xed\xf2?'
p1079
tp1080
Rp1081
ag3
(g7
S'\x87\xea\xab\xe9p7\x0f@'
p1082
tp1083
Rp1084
ag3
(g7
S'\xff\x1d\x11\xb0\xb1\x9b"@'
p1085
tp1086
Rp1087
ag3
(g7
S'iC\xf8<f\x1d!@'
p1088
tp1089
Rp1090
ag3
(g7
S'Ix\xf1f\xfc\xd3"@'
p1091
tp1092
Rp1093
ag3
(g7
S'\x1d\xcb\xc5\xacb\xd9\xf5?'
p1094
tp1095
Rp1096
ag3
(g7
S'\x82\xdbk\x05?E\x1c@'
p1097
tp1098
Rp1099
ag3
(g7
S'\xa5\xa6\x06\x06\xb7z\x16@'
p1100
tp1101
Rp1102
ag3
(g7
S'\xb5\x88i\xca\xd5\xfd\xfc?'
p1103
tp1104
Rp1105
ag3
(g7
S'\x9esBA?V\x07@'
p1106
tp1107
Rp1108
ag3
(g7
S'@u\x19\xa1\xd6B\x08@'
p1109
tp1110
Rp1111
ag3
(g7
S'\xad\xd7Sh\xd5"%@'
p1112
tp1113
Rp1114
ag3
(g7
S'\xdb}5\xd6!\xcd\x01@'
p1115
tp1116
Rp1117
ag3
(g7
S':\x9f\xa2"6\xba\xd4?'
p1118
tp1119
Rp1120
ag3
(g7
S'\x90\xcc$\xd9\xbf[\xfd?'
p1121
tp1122
Rp1123
ag3
(g7
S'\xae9u`\x06\xa6\xfa?'
p1124
tp1125
Rp1126
ag3
(g7
S'q\x98\xcaRE\xc6\x0b@'
p1127
tp1128
Rp1129
ag3
(g7
S'\x81\x1a\xa6eR\xa9\x03@'
p1130
tp1131
Rp1132
ag3
(g7
S'\xf6\x97\xb3O\xf78\x11@'
p1133
tp1134
Rp1135
ag3
(g7
S'\x9bN\xa4\xa2\xd1\xca\x0c@'
p1136
tp1137
Rp1138
ag3
(g7
S'\x07\x11\xc5\xef\xfd\x95\x07@'
p1139
tp1140
Rp1141
ag3
(g7
S'<r\xabM<\xdf\xf4?'
p1142
tp1143
Rp1144
ag3
(g7
S'\xf5\x80F\xc9\xd3\x99\x04@'
p1145
tp1146
Rp1147
ag3
(g7
S'\xcd\x05J\xe0f%\n@'
p1148
tp1149
Rp1150
ag3
(g7
S":\xfc\x12\xc4s$'@"
p1151
tp1152
Rp1153
ag3
(g7
S'\x11_\x8f\xa3\x08\xd8\x19@'
p1154
tp1155
Rp1156
ag3
(g7
S'\x96M\x9a\xf8+l\xfa?'
p1157
tp1158
Rp1159
ag3
(g7
S'G\xe6\x95\xd0F\x83\x00@'
p1160
tp1161
Rp1162
ag3
(g7
S'4\x0bi/tK\r@'
p1163
tp1164
Rp1165
ag3
(g7
S'\xf8\xc6\x96\x85\xb6s\xf3?'
p1166
tp1167
Rp1168
asS'ssfr'
p1169
(lp1170
g3
(g7
S'\xf3\x91\xf4"\xf9v\xe4?'
p1171
tp1172
Rp1173
ag3
(g7
S'\xd5LU\x18\xfe\x86\x99?'
p1174
tp1175
Rp1176
ag3
(g7
S'pf\x05\xac\x04\x97\x06@'
p1177
tp1178
Rp1179
ag3
(g7
S'\xc0y5^\xda\xe6\xf0?'
p1180
tp1181
Rp1182
ag3
(g7
S'\xff^\x0b}\xfe5\xf1?'
p1183
tp1184
Rp1185
ag3
(g7
S'\xfe\xc7\x16\xaeN\xa7\xd2?'
p1186
tp1187
Rp1188
ag3
(g7
S'\xbc\xd7\xd8\x82 \xc8\xd0?'
p1189
tp1190
Rp1191
ag3
(g7
S'5\xe6\xab\xa6\xb6X\xf0?'
p1192
tp1193
Rp1194
ag3
(g7
S'\xe3E\xa2AE\xc6\xf0?'
p1195
tp1196
Rp1197
ag3
(g7
S'6\xca6Z9b\xe1?'
p1198
tp1199
Rp1200
ag3
(g7
S'\x86\xac\x00\xb6\xa8C\xd1?'
p1201
tp1202
Rp1203
ag3
(g7
S'\xcb\xed&\xed\x12\xbd\xe7?'
p1204
tp1205
Rp1206
ag3
(g7
S'\x1f\xdf\xa0:5,\xe9?'
p1207
tp1208
Rp1209
ag3
(g7
S'Cf\\\xe9\xe0y\xe8?'
p1210
tp1211
Rp1212
ag3
(g7
S'\xd6\xafzw\x96\xa0\xdc?'
p1213
tp1214
Rp1215
ag3
(g7
S'\xf3k\x88I\xd8(\xa4?'
p1216
tp1217
Rp1218
ag345
(g346
(I0
tp1219
g348
tp1220
Rp1221
(g351
(g352
g353
Ntp1222
Rp1223
(dp1224
g357
(lp1225
g359
(S'-1'
p1226
tp1227
Rp1228
asg363
F1.0
sg364
(lp1229
g378
asbI1
(tg7
I00
S'\x00\x00\x00\x00\x00\x00\x00\x00'
p1230
tp1231
bag3
(g7
S'O\x12\xf6p\xdb6\xc6?'
p1232
tp1233
Rp1234
ag3
(g7
S'\x01\xec\x06x\xbdh\xe6?'
p1235
tp1236
Rp1237
ag3
(g7
S'\xa7k\xb6\xdfC\x8d\xc7?'
p1238
tp1239
Rp1240
ag3
(g7
S'k\xcb\x16\xca\x1dp\xd5?'
p1241
tp1242
Rp1243
ag3
(g7
S't\r\xf0\xf0\xdb\xfe\xca?'
p1244
tp1245
Rp1246
ag3
(g7
S' \xc9\xc3\xf8\x0b\xa7\xc3?'
p1247
tp1248
Rp1249
ag3
(g7
S'\xa6\xd0\xce \xb9U\xd7?'
p1250
tp1251
Rp1252
ag3
(g7
S'\xb0\xad\r\xcdJ-\xd5?'
p1253
tp1254
Rp1255
ag3
(g7
S'\xb5\x9f\x9cw\x8b\x88\xa8?'
p1256
tp1257
Rp1258
ag3
(g7
S'4\x0c\x8a\xcf\xba\xa2\xc7?'
p1259
tp1260
Rp1261
ag3
(g7
S'\xd5\xc7Q\x15\xa9y\xcd?'
p1262
tp1263
Rp1264
ag3
(g7
S'\xda[\x01\xe9\x9e\x82\xd5?'
p1265
tp1266
Rp1267
ag3
(g7
S'\x10\t\xde-<\xe7\xdf?'
p1268
tp1269
Rp1270
ag3
(g7
S'\xe2\xf6\x8b)\xb3\x02\xca?'
p1271
tp1272
Rp1273
ag3
(g7
S'\x97\x11\xdb\xfb\xf0"\xb5?'
p1274
tp1275
Rp1276
ag3
(g7
S'\xe0z\x143\xe3,\xc0?'
p1277
tp1278
Rp1279
ag3
(g7
S',Q@*\xebn\xb4?'
p1280
tp1281
Rp1282
ag3
(g7
S'\x17\xa3\xd9\xac\xf2 \xc5?'
p1283
tp1284
Rp1285
ag3
(g7
S'\xc8\xd6\xa3\x04#\xc0\xc9?'
p1286
tp1287
Rp1288
ag3
(g7
S'\xe0d\r\xd8\x19\xc2\xc7?'
p1289
tp1290
Rp1291
as.