(dp0
S'dm'
p1
(lp2
cnumpy.core.multiarray
scalar
p3
(cnumpy
dtype
p4
(S'f8'
p5
I0
I1
tp6
Rp7
(I3
S'<'
p8
NNNI-1
I-1
I0
tp9
bS'\xbf\x82\xdcT\x10\xe3\xadA'
p10
tp11
Rp12
ag3
(g7
S'\xb8\xe5\xe7\x01\x9e\xe2\xb5A'
p13
tp14
Rp15
ag3
(g7
S'\xfd\x85\xc3Z!\x0e\xb0A'
p16
tp17
Rp18
ag3
(g7
S'Q\xf4#d\xeb\xf6\xbdA'
p19
tp20
Rp21
ag3
(g7
S'\x16\xe9HX\x05\xca\xb9A'
p22
tp23
Rp24
ag3
(g7
S'\x8e\xa9\xef\xa0\xc0\xdb\xb8A'
p25
tp26
Rp27
ag3
(g7
S';\xdd\xe4@\xd0\xda\xb6A'
p28
tp29
Rp30
ag3
(g7
S'\xc7\xbd\xfcj\xd5\xc4\xb5A'
p31
tp32
Rp33
ag3
(g7
S'I\x0e\\\xa4\xb5\xc2\xb4A'
p34
tp35
Rp36
ag3
(g7
S'TE\xb2\x9a,\xa9\xb6A'
p37
tp38
Rp39
ag3
(g7
S',\x05\xd0\xd7\x98\xf8\xb6A'
p40
tp41
Rp42
ag3
(g7
S"'f\x06\x96\xb3Q\xbaA"
p43
tp44
Rp45
ag3
(g7
S'\t\rJ\x8d\x17>\xb7A'
p46
tp47
Rp48
ag3
(g7
S'\x87\xbc\xeaS7@\xb8A'
p49
tp50
Rp51
ag3
(g7
S'>)+\x1b\x99z\xb9A'
p52
tp53
Rp54
ag3
(g7
S'\xdf~,\xbf\xdf\x98\xb3A'
p55
tp56
Rp57
ag3
(g7
S'\xda\xb7\xb4\x0e]\xb2\x9fA'
p58
tp59
Rp60
ag3
(g7
S'\xdc2\xe6\xe4\x16\xf9\xb0A'
p61
tp62
Rp63
ag3
(g7
S'E\x160h"\x16\xbaA'
p64
tp65
Rp66
ag3
(g7
S'\x84p\xa4yn\xa0\xb5A'
p67
tp68
Rp69
ag3
(g7
S's\xf3\xe6;\xc0\x18\xb5A'
p70
tp71
Rp72
ag3
(g7
S'\xee\xad\xae\xf1\xe9+\xb0A'
p73
tp74
Rp75
ag3
(g7
S'\xf5CFu\xa0\x16\xb4A'
p76
tp77
Rp78
ag3
(g7
S'-ZHp\x90T\xb2A'
p79
tp80
Rp81
ag3
(g7
S'\xac\x07\xf4\x05\xd5\x01\xb2A'
p82
tp83
Rp84
ag3
(g7
S'T=\xfe\x18(\x04\xaeA'
p85
tp86
Rp87
ag3
(g7
S'\x8c\xb2!_\xef\x97\xb1A'
p88
tp89
Rp90
ag3
(g7
S'V\x985\x02I\xb0\xb0A'
p91
tp92
Rp93
ag3
(g7
S'\xf0RW\xc6`\xd1\xb0A'
p94
tp95
Rp96
ag3
(g7
S"@\xa7\xc0\xa3_'\xafA"
p97
tp98
Rp99
ag3
(g7
S'\xe9\xf7\x1f\xdd?%\xaeA'
p100
tp101
Rp102
ag3
(g7
S"'\x03\xa1\xda7D\xadA"
p103
tp104
Rp105
ag3
(g7
S'\x96\x89\xea\xe4\x02\x96\xabA'
p106
tp107
Rp108
ag3
(g7
S'\xdc\x16B\x7f\xc0\x9a\xa7A'
p109
tp110
Rp111
asS'star'
p112
(lp113
g3
(g7
S'\x19\x14\xb5\xc67\xb0cA'
p114
tp115
Rp116
ag3
(g7
S'r\xae\x93\x1bk\xcb`A'
p117
tp118
Rp119
ag3
(g7
S'\xa4\x80\xb46\x043ZA'
p120
tp121
Rp122
ag3
(g7
S'\x0cU\x15\x88\x14qxA'
p123
tp124
Rp125
ag3
(g7
S'k\xb1\x8by\x82\xb8{A'
p126
tp127
Rp128
ag3
(g7
S's\xf3\xa2OR\xcc~A'
p129
tp130
Rp131
ag3
(g7
S'\xc5\xf0\xf1@l\x94\x80A'
p132
tp133
Rp134
ag3
(g7
S'\xe2\xc0%\xf7\xc2\xf0\x83A'
p135
tp136
Rp137
ag3
(g7
S'\x11r\x99\xc0\xb3U\x85A'
p138
tp139
Rp140
ag3
(g7
S'\xb68G9#`\x8aA'
p141
tp142
Rp143
ag3
(g7
S'\xde&\xad\xcb\xd22\x8eA'
p144
tp145
Rp146
ag3
(g7
S'\xb343\xc4\xdbc\x94A'
p147
tp148
Rp149
ag3
(g7
S'9\xc2\xd1k\x8b\xb2\x93A'
p150
tp151
Rp152
ag3
(g7
S'\xf4\xd2\x07\xee\x9cd\x9bA'
p153
tp154
Rp155
ag3
(g7
S'?\r\x07\xef\xecD\x9cA'
p156
tp157
Rp158
ag3
(g7
S'\x93Vp\x87t\x8e\x85A'
p159
tp160
Rp161
ag3
(g7
S'E\x08\x1e>y\xf2TA'
p162
tp163
Rp164
ag3
(g7
S'2\xe9!\xeb\xc2!\x87A'
p165
tp166
Rp167
ag3
(g7
S'n\x05\r\x92\xfd\xd0\x93A'
p168
tp169
Rp170
ag3
(g7
S'[\x01\xfe\x88\xe71\x8cA'
p171
tp172
Rp173
ag3
(g7
S'\x88\x0b@\xec42\x8fA'
p174
tp175
Rp176
ag3
(g7
S'w\xa8\xbcR\xb4\xd9\x8bA'
p177
tp178
Rp179
ag3
(g7
S'\xa2:\x9d\n\x89f\x92A'
p180
tp181
Rp182
ag3
(g7
S"1}%'\x04A\x92A"
p183
tp184
Rp185
ag3
(g7
S'\xb5\xd4\x11y\xdf_\x93A'
p186
tp187
Rp188
ag3
(g7
S'\xe4\x19\x81\x9bS\x0e\x8fA'
p189
tp190
Rp191
ag3
(g7
S'\xea\xc6v^F\x06\x94A'
p192
tp193
Rp194
ag3
(g7
S'\xe5\x9e+\x0b\x05\x15\x95A'
p195
tp196
Rp197
ag3
(g7
S'\xc9\x9a\x1eVc\xeb\x96A'
p198
tp199
Rp200
ag3
(g7
S'\x05\xac\x19]0B\x96A'
p201
tp202
Rp203
ag3
(g7
S'\x17\xddL\x03\x81\x0b\x97A'
p204
tp205
Rp206
ag3
(g7
S'|\xd2f.E\x9d\x96A'
p207
tp208
Rp209
ag3
(g7
S'?\xbb\xb0\xf8\xd9\x7f\x96A'
p210
tp211
Rp212
ag3
(g7
S'\x04\x95\xfe\x98\x80A\x92A'
p213
tp214
Rp215
asS'sfr'
p216
(lp217
g3
(g7
S'\xdb\xe1\x9aLb\x88v?'
p218
tp219
Rp220
ag3
(g7
S",\xc4\x96\x83\xcf\xf9'?"
p221
tp222
Rp223
ag3
(g7
S'H<\x17\x7f\x8d\x8c\x90?'
p224
tp225
Rp226
ag3
(g7
S'\x8f\xc1P\xf8I\x1a\x97?'
p227
tp228
Rp229
ag3
(g7
S'\xc9\xaf\xb8lk\xae\x9a?'
p230
tp231
Rp232
ag3
(g7
S'\xcd\xbe\x87\xf0c\x10\x80?'
p233
tp234
Rp235
ag3
(g7
S'"\xc7\xf45\xcf\x1e\x7f?'
p236
tp237
Rp238
ag3
(g7
S'7\xad\xff\xa5\x97:\xa2?'
p239
tp240
Rp241
ag3
(g7
S'i\xec\x81<\x9c\x03\xa4?'
p242
tp243
Rp244
ag3
(g7
S'\xbd\x9ecP3\xa4\x99?'
p245
tp246
Rp247
ag3
(g7
S'6\x96\xa0\xe1\x06(\x8d?'
p248
tp249
Rp250
ag3
(g7
S'gc\xc9\xf1\xa8\x11\xab?'
p251
tp252
Rp253
ag3
(g7
S'\x98;\xb1\xa1\xaf\xba\xab?'
p254
tp255
Rp256
ag3
(g7
S'\x1a\x02\xd8\x86p\xbf\xb2?'
p257
tp258
Rp259
ag3
(g7
S'\xc2\xb7\xbet\xfe\xa0\xa6?'
p260
tp261
Rp262
ag3
(g7
S'T\xd8\xff\xf3\x86MX?'
p263
tp264
Rp265
aI0
ag3
(g7
S'\xa7\xd16>\xae\xbc|?'
p266
tp267
Rp268
ag3
(g7
S'\xf5\xadr\xbe\x85\xd5\xa8?'
p269
tp270
Rp271
ag3
(g7
S'\xc4}\x19\xebe\x91\x82?'
p272
tp273
Rp274
ag3
(g7
S'B\xffR&R\xb3\x92?'
p275
tp276
Rp277
ag3
(g7
S'3\x95O\xae\xdb\x05\x85?'
p278
tp279
Rp280
ag3
(g7
S'\x8e96\xdc\x1b9\x84?'
p281
tp282
Rp283
ag3
(g7
S'n\x8e\x96\x041\xd2\x97?'
p284
tp285
Rp286
ag3
(g7
S'\x9c\xb4\xcck\xf9\xf1\x96?'
p287
tp288
Rp289
ag3
(g7
S'\x85\xd6\xde\x9a\xf2Me?'
p290
tp291
Rp292
ag3
(g7
S'C\xf6\xdf\xb8\xebw\x8a?'
p293
tp294
Rp295
ag3
(g7
S"\xee\xe4K\xc3'`\x91?"
p296
tp297
Rp298
ag3
(g7
S'\xc3\xa2r\x1e\x1d\x92\x9b?'
p299
tp300
Rp301
ag3
(g7
S'\xfbU\xebU=\xdb\xa3?'
p302
tp303
Rp304
ag3
(g7
S'b\xe5+\x06\xc1\xc2\x90?'
p305
tp306
Rp307
ag3
(g7
S'M\xa07o#\xbbz?'
p308
tp309
Rp310
ag3
(g7
S'\xef\xbb\x0b\xd4NZ\x84?'
p311
tp312
Rp313
ag3
(g7
S's\xde."w\xdct?'
p314
tp315
Rp316
asS'smass10'
p317
cnumpy.core.multiarray
_reconstruct
p318
(cpynbody.array
SimArray
p319
(I0
tp320
S'b'
p321
tp322
Rp323
(ccopy_reg
_reconstructor
p324
(cpynbody.units
CompositeUnit
p325
c__builtin__
object
p326
Ntp327
Rp328
(dp329
S'_powers'
p330
(lp331
cfractions
Fraction
p332
(S'1'
p333
tp334
Rp335
asS'_scale'
p336
I1
sS'_bases'
p337
(lp338
cpynbody.units
_resurrect_named_unit
p339
(S'Msol'
p340
S'M_{\\odot}'
p341
g324
(g325
g326
Ntp342
Rp343
(dp344
g330
(lp345
I1
asg336
F1.98892e+30
sg337
(lp346
g339
(S'kg'
p347
NNtp348
Rp349
asbtp350
Rp351
asbI1
(tg7
I00
S'\xdfx\xa7B\x99c\xdaA'
p352
tp353
bsS'bharray'
p354
(lp355
I0
aI0
aI0
aI0
aI0
aI0
aI0
aI0
aI0
aI0
aI0
aI0
aI0
aI0
aI0
aI0
aI0
aI0
aI0
aI0
aI0
aI0
aI0
aI0
aI0
aI0
aI0
aI0
aI0
aI0
aI0
aI0
aI0
aI0
asS'gasarray'
p356
(lp357
g3
(g7
S'\xf6\x03\xf0\x86\x13*\xa1A'
p358
tp359
Rp360
ag3
(g7
S'm\x99w\x06\x9cn\x83A'
p361
tp362
Rp363
ag3
(g7
S'1V\x08\xc7X\xbc\x93A'
p364
tp365
Rp366
ag3
(g7
S'\xc1\xf5\xf9\xc88\xa1\x94A'
p367
tp368
Rp369
ag3
(g7
S'\xad\x8aj\xcd\xb2]\x9cA'
p370
tp371
Rp372
ag3
(g7
S'%\xf4w\xe5\xcf\xc5\x96A'
p373
tp374
Rp375
ag3
(g7
S'f\xe8\x92\xb7E\xc1\x9bA'
p376
tp377
Rp378
ag3
(g7
S'\xc1\xe4*ck\xb0wA'
p379
tp380
Rp381
ag3
(g7
S'+\xff\x96\xf5Z\xb6\x90A'
p382
tp383
Rp384
ag3
(g7
S'\xeb\xdb-\x00/\x87\xa2A'
p385
tp386
Rp387
ag3
(g7
S'{~\rt\xb4\x9a\xa2A'
p388
tp389
Rp390
ag3
(g7
S'2\xd3Ob\xf6\x93\xabA'
p391
tp392
Rp393
ag3
(g7
S')\xc1\xfdC\xca\xad\x80A'
p394
tp395
Rp396
ag3
(g7
S'\xcb\x02\xc0(g"\xa4A'
p397
tp398
Rp399
ag3
(g7
S'\xdf\x80q\xef8\x1c\x94A'
p400
tp401
Rp402
ag3
(g7
S'\xcfa\xcd\x8f\xd5\xd0rA'
p403
tp404
Rp405
ag3
(g7
S'd\x1a\xe1\x05T\x19sA'
p406
tp407
Rp408
ag3
(g7
S'\t\xe2\xaf]\xb14\x94A'
p409
tp410
Rp411
ag3
(g7
S'[\x9b\x0e\xa1\xad\x1b\xa2A'
p412
tp413
Rp414
ag3
(g7
S'\xb4-58\x05:\x83A'
p415
tp416
Rp417
ag3
(g7
S'\x1f^\x97\x93\xa1\x88WA'
p418
tp419
Rp420
ag3
(g7
S'\x83\xb1\x8c\xf8|\x08\x95A'
p421
tp422
Rp423
ag3
(g7
S'\xb58D1{\x1b\x84A'
p424
tp425
Rp426
ag3
(g7
S'\xf0\x82\xc7\xb1s[\x8aA'
p427
tp428
Rp429
ag3
(g7
S'n\x84\xbd8T\xb9\x84A'
p430
tp431
Rp432
ag3
(g7
S'h\xca(\xc4#\x1e\x96A'
p433
tp434
Rp435
ag3
(g7
S'\xcf6f8\xa3\xba\x82A'
p436
tp437
Rp438
ag3
(g7
S'\x00\xe8P\xb5d\xa3\x95A'
p439
tp440
Rp441
ag3
(g7
S'\xfd\xff\xf1s\x89o\x93A'
p442
tp443
Rp444
ag3
(g7
S'v\xdc\x02\xb7\x93(pA'
p445
tp446
Rp447
ag3
(g7
S'\xea\xe6\xc5\x95\x02~\x94A'
p448
tp449
Rp450
ag3
(g7
S'>\xa5IC\xbf\x05\xa5A'
p451
tp452
Rp453
ag3
(g7
S'\x1b\xf1\x16q\x82\x8c\x9dA'
p454
tp455
Rp456
ag3
(g7
S'\xd1\x9f\xc8x\n)\x8bA'
p457
tp458
Rp459
asS'redshiftarray'
p460
(lp461
F4.561225338906956
aF4.0219197196751315
aF3.595906673044489
aF3.249222482242713
aF2.9604880271712473
aF2.71551790099832
aF2.5044983646771204
aF2.320405534120926
aF2.158068630365731
aF2.013589558582861
aF1.8839693699809175
aF1.7668599804832716
aF1.6603944899299403
aF1.5630683748162806
aF1.4736545109946966
aF1.3911412352835408
aF1.3146864327771066
aF1.2435829846263102
aF1.1772324075636686
aF1.1151244920657106
aF1.0568213952022236
aF1.0019450842703685
aF0.9501673303644187
aF0.9012016643906826
aF0.8547968568831767
aF0.810731593960949
aF0.7688100988343307
aF0.7288585074728573
aF0.6907218501021464
aF0.6542615228075603
aF0.619353158234319
aF0.5858848232818783
aF0.5537554862750533
aF0.5228737074298768
asS'surfden1kpc'
p462
(lp463
g318
(g319
(I0
tp464
g321
tp465
Rp466
(g324
(g325
g326
Ntp467
Rp468
(dp469
g330
(lp470
g332
(g333
tp471
Rp472
asg336
I1
sg337
(lp473
g351
asbI1
(tg7
I00
S'\xddHN\x9bg\x11IA'
p474
tp475
bag318
(g319
(I0
tp476
g321
tp477
Rp478
(g324
(g325
g326
Ntp479
Rp480
(dp481
g330
(lp482
g332
(g333
tp483
Rp484
asg336
I1
sg337
(lp485
g351
asbI1
(tg7
I00
S'8A\xeb\x830bEA'
p486
tp487
bag318
(g319
(I0
tp488
g321
tp489
Rp490
(g324
(g325
g326
Ntp491
Rp492
(dp493
g330
(lp494
g332
(g333
tp495
Rp496
asg336
I1
sg337
(lp497
g351
asbI1
(tg7
I00
S'O\x85\x1c\xbd\xd1\xad@A'
p498
tp499
bag318
(g319
(I0
tp500
g321
tp501
Rp502
(g324
(g325
g326
Ntp503
Rp504
(dp505
g330
(lp506
g332
(g333
tp507
Rp508
asg336
I1
sg337
(lp509
g351
asbI1
(tg7
I00
S'\xf0\xdb\xf6\x0e\xc3\x1e_A'
p510
tp511
bag318
(g319
(I0
tp512
g321
tp513
Rp514
(g324
(g325
g326
Ntp515
Rp516
(dp517
g330
(lp518
g332
(g333
tp519
Rp520
asg336
I1
sg337
(lp521
g351
asbI1
(tg7
I00
S'\xfd$/C\xc7\xa5aA'
p522
tp523
bag318
(g319
(I0
tp524
g321
tp525
Rp526
(g324
(g325
g326
Ntp527
Rp528
(dp529
g330
(lp530
g332
(g333
tp531
Rp532
asg336
I1
sg337
(lp533
g351
asbI1
(tg7
I00
S'1\xe8G\xa2P\x9bcA'
p534
tp535
bag318
(g319
(I0
tp536
g321
tp537
Rp538
(g324
(g325
g326
Ntp539
Rp540
(dp541
g330
(lp542
g332
(g333
tp543
Rp544
asg336
I1
sg337
(lp545
g351
asbI1
(tg7
I00
S'\x1e\x06\xf9\xc2*\x1ceA'
p546
tp547
bag318
(g319
(I0
tp548
g321
tp549
Rp550
(g324
(g325
g326
Ntp551
Rp552
(dp553
g330
(lp554
g332
(g333
tp555
Rp556
asg336
I1
sg337
(lp557
g351
asbI1
(tg7
I00
S'T1\xa7\x95\x95ciA'
p558
tp559
bag318
(g319
(I0
tp560
g321
tp561
Rp562
(g324
(g325
g326
Ntp563
Rp564
(dp565
g330
(lp566
g332
(g333
tp567
Rp568
asg336
I1
sg337
(lp569
g351
asbI1
(tg7
I00
S'\xf8\x87\x87\x1f\x0e*kA'
p570
tp571
bag318
(g319
(I0
tp572
g321
tp573
Rp574
(g324
(g325
g326
Ntp575
Rp576
(dp577
g330
(lp578
g332
(g333
tp579
Rp580
asg336
I1
sg337
(lp581
g351
asbI1
(tg7
I00
S'\xf2-\x11W\x8b\xcapA'
p582
tp583
bag318
(g319
(I0
tp584
g321
tp585
Rp586
(g324
(g325
g326
Ntp587
Rp588
(dp589
g330
(lp590
g332
(g333
tp591
Rp592
asg336
I1
sg337
(lp593
g351
asbI1
(tg7
I00
S'[\x9e\xf0T\x989sA'
p594
tp595
bag318
(g319
(I0
tp596
g321
tp597
Rp598
(g324
(g325
g326
Ntp599
Rp600
(dp601
g330
(lp602
g332
(g333
tp603
Rp604
asg336
I1
sg337
(lp605
g351
asbI1
(tg7
I00
S'\xa9\xad\x99U!\xf6yA'
p606
tp607
bag318
(g319
(I0
tp608
g321
tp609
Rp610
(g324
(g325
g326
Ntp611
Rp612
(dp613
g330
(lp614
g332
(g333
tp615
Rp616
asg336
I1
sg337
(lp617
g351
asbI1
(tg7
I00
S'8ca\x01^\x14yA'
p618
tp619
bag318
(g319
(I0
tp620
g321
tp621
Rp622
(g324
(g325
g326
Ntp623
Rp624
(dp625
g330
(lp626
g332
(g333
tp627
Rp628
asg336
I1
sg337
(lp629
g351
asbI1
(tg7
I00
S'^b\x8e;^p\x81A'
p630
tp631
bag318
(g319
(I0
tp632
g321
tp633
Rp634
(g324
(g325
g326
Ntp635
Rp636
(dp637
g330
(lp638
g332
(g333
tp639
Rp640
asg336
I1
sg337
(lp641
g351
asbI1
(tg7
I00
S'\xeat*}+\xff\x81A'
p642
tp643
bag318
(g319
(I0
tp644
g321
tp645
Rp646
(g324
(g325
g326
Ntp647
Rp648
(dp649
g330
(lp650
g332
(g333
tp651
Rp652
asg336
I1
sg337
(lp653
g351
asbI1
(tg7
I00
S'\x17\x83x\xbcPrkA'
p654
tp655
bag318
(g319
(I0
tp656
g321
tp657
Rp658
(g324
(g325
g326
Ntp659
Rp660
(dp661
g330
(lp662
g332
(g333
tp663
Rp664
asg336
I1
sg337
(lp665
g351
asbI1
(tg7
I00
S'\x8f\x1d\xae\xa4\xb6\xab:A'
p666
tp667
bag318
(g319
(I0
tp668
g321
tp669
Rp670
(g324
(g325
g326
Ntp671
Rp672
(dp673
g330
(lp674
g332
(g333
tp675
Rp676
asg336
I1
sg337
(lp677
g351
asbI1
(tg7
I00
S'$\xf8@\x1f\xd2smA'
p678
tp679
bag318
(g319
(I0
tp680
g321
tp681
Rp682
(g324
(g325
g326
Ntp683
Rp684
(dp685
g330
(lp686
g332
(g333
tp687
Rp688
asg336
I1
sg337
(lp689
g351
asbI1
(tg7
I00
S'i\xd3\x15\xd3!;yA'
p690
tp691
bag318
(g319
(I0
tp692
g321
tp693
Rp694
(g324
(g325
g326
Ntp695
Rp696
(dp697
g330
(lp698
g332
(g333
tp699
Rp700
asg336
I1
sg337
(lp701
g351
asbI1
(tg7
I00
S'.\x87\x94\x88\x0f\xf3qA'
p702
tp703
bag318
(g319
(I0
tp704
g321
tp705
Rp706
(g324
(g325
g326
Ntp707
Rp708
(dp709
g330
(lp710
g332
(g333
tp711
Rp712
asg336
I1
sg337
(lp713
g351
asbI1
(tg7
I00
S'\xdf\x82\x1cW-\xdcsA'
p714
tp715
bag318
(g319
(I0
tp716
g321
tp717
Rp718
(g324
(g325
g326
Ntp719
Rp720
(dp721
g330
(lp722
g332
(g333
tp723
Rp724
asg336
I1
sg337
(lp725
g351
asbI1
(tg7
I00
S"\xa01')\xe9\xbaqA"
p726
tp727
bag318
(g319
(I0
tp728
g321
tp729
Rp730
(g324
(g325
g326
Ntp731
Rp732
(dp733
g330
(lp734
g332
(g333
tp735
Rp736
asg336
I1
sg337
(lp737
g351
asbI1
(tg7
I00
S'\xfaB\xd1\xcc\xa3mwA'
p738
tp739
bag318
(g319
(I0
tp740
g321
tp741
Rp742
(g324
(g325
g326
Ntp743
Rp744
(dp745
g330
(lp746
g332
(g333
tp747
Rp748
asg336
I1
sg337
(lp749
g351
asbI1
(tg7
I00
S'i\xe2\xe4y\xde=wA'
p750
tp751
bag318
(g319
(I0
tp752
g321
tp753
Rp754
(g324
(g325
g326
Ntp755
Rp756
(dp757
g330
(lp758
g332
(g333
tp759
Rp760
asg336
I1
sg337
(lp761
g351
asbI1
(tg7
I00
S'\x9d\x08\xc5:\x1b\xabxA'
p762
tp763
bag318
(g319
(I0
tp764
g321
tp765
Rp766
(g324
(g325
g326
Ntp767
Rp768
(dp769
g330
(lp770
g332
(g333
tp771
Rp772
asg336
I1
sg337
(lp773
g351
asbI1
(tg7
I00
S'\x16bp\xc9U\xc5sA'
p774
tp775
bag318
(g319
(I0
tp776
g321
tp777
Rp778
(g324
(g325
g326
Ntp779
Rp780
(dp781
g330
(lp782
g332
(g333
tp783
Rp784
asg336
I1
sg337
(lp785
g351
asbI1
(tg7
I00
S'w\xbe\x1f\xd4\xf9~yA'
p786
tp787
bag318
(g319
(I0
tp788
g321
tp789
Rp790
(g324
(g325
g326
Ntp791
Rp792
(dp793
g330
(lp794
g332
(g333
tp795
Rp796
asg336
I1
sg337
(lp797
g351
asbI1
(tg7
I00
S'\xba\r\xa1\xeb\xb2\xd7zA'
p798
tp799
bag318
(g319
(I0
tp800
g321
tp801
Rp802
(g324
(g325
g326
Ntp803
Rp804
(dp805
g330
(lp806
g332
(g333
tp807
Rp808
asg336
I1
sg337
(lp809
g351
asbI1
(tg7
I00
S'\xa3:\xe4(\x97.}A'
p810
tp811
bag318
(g319
(I0
tp812
g321
tp813
Rp814
(g324
(g325
g326
Ntp815
Rp816
(dp817
g330
(lp818
g332
(g333
tp819
Rp820
asg336
I1
sg337
(lp821
g351
asbI1
(tg7
I00
S'\xb9\x96\xd5\xd2(W|A'
p822
tp823
bag318
(g319
(I0
tp824
g321
tp825
Rp826
(g324
(g325
g326
Ntp827
Rp828
(dp829
g330
(lp830
g332
(g333
tp831
Rp832
asg336
I1
sg337
(lp833
g351
asbI1
(tg7
I00
S'\xba\xb6\xc7R{W}A'
p834
tp835
bag318
(g319
(I0
tp836
g321
tp837
Rp838
(g324
(g325
g326
Ntp839
Rp840
(dp841
g330
(lp842
g332
(g333
tp843
Rp844
asg336
I1
sg337
(lp845
g351
asbI1
(tg7
I00
S'@/\xc0\xb7 \xcb|A'
p846
tp847
bag318
(g319
(I0
tp848
g321
tp849
Rp850
(g324
(g325
g326
Ntp851
Rp852
(dp853
g330
(lp854
g332
(g333
tp855
Rp856
asg336
I1
sg337
(lp857
g351
asbI1
(tg7
I00
S'u*\x02\xaf\xab\xa5|A'
p858
tp859
bag318
(g319
(I0
tp860
g321
tp861
Rp862
(g328
I1
(tg7
I00
S'l\xe4\x90\xec|>wA'
p863
tp864
basS'outflowarray'
p865
(lp866
g3
(g7
S'\xa1\x15\xb0\xact\xd7\x1d@'
p867
tp868
Rp869
ag3
(g7
S'+\xa7\x9e\nez\xe4?'
p870
tp871
Rp872
ag3
(g7
S'jN~\xa9\x96\xe2\t@'
p873
tp874
Rp875
ag3
(g7
S'\xdd\x9e\x00O"\x0f\x0c@'
p876
tp877
Rp878
ag3
(g7
S'\x06b>\xd1\xfd\x81\x0e@'
p879
tp880
Rp881
ag3
(g7
S'\xb6c\xb8\xfet\xdf\t@'
p882
tp883
Rp884
ag3
(g7
S'\x0fN07\xd0?\x19@'
p885
tp886
Rp887
ag3
(g7
S'\xaa\x97R\xf3\x08\x14\xf0?'
p888
tp889
Rp890
ag3
(g7
S'\x15\x89\x04uB]\x04@'
p891
tp892
Rp893
ag3
(g7
S'\xc7=\x93\xc1|\xe0\x1b@'
p894
tp895
Rp896
ag3
(g7
S'\x85J\x80\xa4F\x8a#@'
p897
tp898
Rp899
ag3
(g7
S'a\xd7\xd3c\xcd\x18(@'
p900
tp901
Rp902
ag3
(g7
S'\xf0L\xed\xb9\xc2#\x02@'
p903
tp904
Rp905
ag3
(g7
S'm/V\x9b]\xe6 @'
p906
tp907
Rp908
ag3
(g7
S'\xcc\xfc\xc3\x8a\x00H @'
p909
tp910
Rp911
ag3
(g7
S'\rB\\7\x1f{\xcb?'
p912
tp913
Rp914
ag3
(g7
S'\xcd@\xe4GH\x18\xd2?'
p915
tp916
Rp917
ag3
(g7
S'\xbf\x06P\xfc\x8c,\x0e@'
p918
tp919
Rp920
ag3
(g7
S'\xe1\x16\xab\xc8\x0f\xc6*@'
p921
tp922
Rp923
ag3
(g7
S'=\xe0\xa7\xde*\xbf\xf4?'
p924
tp925
Rp926
ag3
(g7
S'\xcf5\xe9\xa2:\xc1\xea?'
p927
tp928
Rp929
ag3
(g7
S'\x04\xa1\x96h\xf9\xb4\x07@'
p930
tp931
Rp932
ag3
(g7
S'\x08\x1d\xe4\xed\x8c\x08\xf0?'
p933
tp934
Rp935
ag3
(g7
S'tN~]8\xda\x0e@'
p936
tp937
Rp938
ag3
(g7
S'\x85\xc1\x03F\xbb/\x0b@'
p939
tp940
Rp941
ag3
(g7
S'\xc7/u\x1d\xa7Z\xeb?'
p942
tp943
Rp944
ag3
(g7
S't\x18"\xe6\xf1Z\xeb?'
p945
tp946
Rp947
ag3
(g7
S'\xd4\x1a\x00\x8e\xc9\x08\x1f@'
p948
tp949
Rp950
ag3
(g7
S'\x150w\xd2\x06P\x1b@'
p951
tp952
Rp953
ag3
(g7
S'\x96 \x18\xc8\x98\x08\xf3?'
p954
tp955
Rp956
ag3
(g7
S'v\xeb\xf5\x02\xe7\xac\x10@'
p957
tp958
Rp959
ag3
(g7
S'\x8c\x0cL\xf2l\x1f\xfb?'
p960
tp961
Rp962
ag3
(g7
S'\n1~~Lz\x1c@'
p963
tp964
Rp965
ag3
(g7
S'^Z;\x82\x04$\xe1?'
p966
tp967
Rp968
asS'smass'
p969
g318
(g319
(I0
tp970
g321
tp971
Rp972
(g328
I1
(tg7
I00
S'\xe8\x94\xfe\x98\x80A\x92A'
p973
tp974
bsS'inflowarray'
p975
(lp976
g3
(g7
S'\x90M\xea\x01\x05\x08\x08@'
p977
tp978
Rp979
ag3
(g7
S'\xfd\xb5umU\xe3\x03@'
p980
tp981
Rp982
ag3
(g7
S'\xd5\xe8\t*\x10\xfa\t@'
p983
tp984
Rp985
ag3
(g7
S':\r\x0e\xb5Y\x1f\x11@'
p986
tp987
Rp988
ag3
(g7
S'\x97\x00\xf7\xc2\xbc\x84\x18@'
p989
tp990
Rp991
ag3
(g7
S'Y\xc2\xc1>\xef\xf9\t@'
p992
tp993
Rp994
ag3
(g7
S'\x8c\xedo\x18\xd01\x11@'
p995
tp996
Rp997
ag3
(g7
S'\xff\x81\x16\xcd\x94\xed\xf2?'
p998
tp999
Rp1000
ag3
(g7
S'\x87\xea\xab\xe9p7\x0f@'
p1001
tp1002
Rp1003
ag3
(g7
S'\xff\x1d\x11\xb0\xb1\x9b"@'
p1004
tp1005
Rp1006
ag3
(g7
S'iC\xf8<f\x1d!@'
p1007
tp1008
Rp1009
ag3
(g7
S'Ix\xf1f\xfc\xd3"@'
p1010
tp1011
Rp1012
ag3
(g7
S'\x1d\xcb\xc5\xacb\xd9\xf5?'
p1013
tp1014
Rp1015
ag3
(g7
S'\x82\xdbk\x05?E\x1c@'
p1016
tp1017
Rp1018
ag3
(g7
S'\xa5\xa6\x06\x06\xb7z\x16@'
p1019
tp1020
Rp1021
ag3
(g7
S'\xb5\x88i\xca\xd5\xfd\xfc?'
p1022
tp1023
Rp1024
ag3
(g7
S'\x9esBA?V\x07@'
p1025
tp1026
Rp1027
ag3
(g7
S'@u\x19\xa1\xd6B\x08@'
p1028
tp1029
Rp1030
ag3
(g7
S'\xad\xd7Sh\xd5"%@'
p1031
tp1032
Rp1033
ag3
(g7
S'\xdb}5\xd6!\xcd\x01@'
p1034
tp1035
Rp1036
ag3
(g7
S':\x9f\xa2"6\xba\xd4?'
p1037
tp1038
Rp1039
ag3
(g7
S'\x90\xcc$\xd9\xbf[\xfd?'
p1040
tp1041
Rp1042
ag3
(g7
S'\xae9u`\x06\xa6\xfa?'
p1043
tp1044
Rp1045
ag3
(g7
S'q\x98\xcaRE\xc6\x0b@'
p1046
tp1047
Rp1048
ag3
(g7
S'\x81\x1a\xa6eR\xa9\x03@'
p1049
tp1050
Rp1051
ag3
(g7
S'\xf6\x97\xb3O\xf78\x11@'
p1052
tp1053
Rp1054
ag3
(g7
S'\x9bN\xa4\xa2\xd1\xca\x0c@'
p1055
tp1056
Rp1057
ag3
(g7
S'\x07\x11\xc5\xef\xfd\x95\x07@'
p1058
tp1059
Rp1060
ag3
(g7
S'<r\xabM<\xdf\xf4?'
p1061
tp1062
Rp1063
ag3
(g7
S'\xf5\x80F\xc9\xd3\x99\x04@'
p1064
tp1065
Rp1066
ag3
(g7
S'\xcd\x05J\xe0f%\n@'
p1067
tp1068
Rp1069
ag3
(g7
S":\xfc\x12\xc4s$'@"
p1070
tp1071
Rp1072
ag3
(g7
S'\x11_\x8f\xa3\x08\xd8\x19@'
p1073
tp1074
Rp1075
ag3
(g7
S'\x96M\x9a\xf8+l\xfa?'
p1076
tp1077
Rp1078
asS'ssfr'
p1079
(lp1080
g3
(g7
S'\xf3\x91\xf4"\xf9v\xe4?'
p1081
tp1082
Rp1083
ag3
(g7
S'\xd5LU\x18\xfe\x86\x99?'
p1084
tp1085
Rp1086
ag3
(g7
S'pf\x05\xac\x04\x97\x06@'
p1087
tp1088
Rp1089
ag3
(g7
S'\xc0y5^\xda\xe6\xf0?'
p1090
tp1091
Rp1092
ag3
(g7
S'\xff^\x0b}\xfe5\xf1?'
p1093
tp1094
Rp1095
ag3
(g7
S'\xfe\xc7\x16\xaeN\xa7\xd2?'
p1096
tp1097
Rp1098
ag3
(g7
S'\xbc\xd7\xd8\x82 \xc8\xd0?'
p1099
tp1100
Rp1101
ag3
(g7
S'5\xe6\xab\xa6\xb6X\xf0?'
p1102
tp1103
Rp1104
ag3
(g7
S'\xe3E\xa2AE\xc6\xf0?'
p1105
tp1106
Rp1107
ag3
(g7
S'6\xca6Z9b\xe1?'
p1108
tp1109
Rp1110
ag3
(g7
S'\x86\xac\x00\xb6\xa8C\xd1?'
p1111
tp1112
Rp1113
ag3
(g7
S'\xcb\xed&\xed\x12\xbd\xe7?'
p1114
tp1115
Rp1116
ag3
(g7
S'\x1f\xdf\xa0:5,\xe9?'
p1117
tp1118
Rp1119
ag3
(g7
S'Cf\\\xe9\xe0y\xe8?'
p1120
tp1121
Rp1122
ag3
(g7
S'\xd6\xafzw\x96\xa0\xdc?'
p1123
tp1124
Rp1125
ag3
(g7
S'\xf3k\x88I\xd8(\xa4?'
p1126
tp1127
Rp1128
ag318
(g319
(I0
tp1129
g321
tp1130
Rp1131
(g324
(g325
g326
Ntp1132
Rp1133
(dp1134
g330
(lp1135
g332
(S'-1'
p1136
tp1137
Rp1138
asg336
F1.0
sg337
(lp1139
g351
asbI1
(tg7
I00
S'\x00\x00\x00\x00\x00\x00\x00\x00'
p1140
tp1141
bag3
(g7
S'O\x12\xf6p\xdb6\xc6?'
p1142
tp1143
Rp1144
ag3
(g7
S'\x01\xec\x06x\xbdh\xe6?'
p1145
tp1146
Rp1147
ag3
(g7
S'\xa7k\xb6\xdfC\x8d\xc7?'
p1148
tp1149
Rp1150
ag3
(g7
S'k\xcb\x16\xca\x1dp\xd5?'
p1151
tp1152
Rp1153
ag3
(g7
S't\r\xf0\xf0\xdb\xfe\xca?'
p1154
tp1155
Rp1156
ag3
(g7
S' \xc9\xc3\xf8\x0b\xa7\xc3?'
p1157
tp1158
Rp1159
ag3
(g7
S'\xa6\xd0\xce \xb9U\xd7?'
p1160
tp1161
Rp1162
ag3
(g7
S'\xb0\xad\r\xcdJ-\xd5?'
p1163
tp1164
Rp1165
ag3
(g7
S'\xb5\x9f\x9cw\x8b\x88\xa8?'
p1166
tp1167
Rp1168
ag3
(g7
S'4\x0c\x8a\xcf\xba\xa2\xc7?'
p1169
tp1170
Rp1171
ag3
(g7
S'\xd5\xc7Q\x15\xa9y\xcd?'
p1172
tp1173
Rp1174
ag3
(g7
S'\xda[\x01\xe9\x9e\x82\xd5?'
p1175
tp1176
Rp1177
ag3
(g7
S'\x10\t\xde-<\xe7\xdf?'
p1178
tp1179
Rp1180
ag3
(g7
S'\xe2\xf6\x8b)\xb3\x02\xca?'
p1181
tp1182
Rp1183
ag3
(g7
S'\x97\x11\xdb\xfb\xf0"\xb5?'
p1184
tp1185
Rp1186
ag3
(g7
S'\xe0z\x143\xe3,\xc0?'
p1187
tp1188
Rp1189
ag3
(g7
S',Q@*\xebn\xb4?'
p1190
tp1191
Rp1192
as.