(dp0
S'dm'
p1
(lp2
cnumpy.core.multiarray
scalar
p3
(cnumpy
dtype
p4
(S'f8'
p5
I0
I1
tp6
Rp7
(I3
S'<'
p8
NNNI-1
I-1
I0
tp9
bS'+\x9e\xca\xa7 \xf8\xc5A'
p10
tp11
Rp12
asS'star'
p13
(lp14
g3
(g7
S'\x0c\x1a\x8e\xa0y~\xdaA'
p15
tp16
Rp17
asS'sfr'
p18
(lp19
g3
(g7
S'r\xe7\xbeKQ2\x96?'
p20
tp21
Rp22
asS'smass10'
p23
cnumpy.core.multiarray
_reconstruct
p24
(cpynbody.array
SimArray
p25
(I0
tp26
S'b'
p27
tp28
Rp29
(ccopy_reg
_reconstructor
p30
(cpynbody.units
CompositeUnit
p31
c__builtin__
object
p32
Ntp33
Rp34
(dp35
S'_powers'
p36
(lp37
cfractions
Fraction
p38
(S'1'
p39
tp40
Rp41
asS'_scale'
p42
I1
sS'_bases'
p43
(lp44
cpynbody.units
_resurrect_named_unit
p45
(S'Msol'
p46
S'M_{\\odot}'
p47
g30
(g31
g32
Ntp48
Rp49
(dp50
g36
(lp51
I1
asg42
F1.98892e+30
sg43
(lp52
g45
(S'kg'
p53
NNtp54
Rp55
asbtp56
Rp57
asbI1
(tg7
I00
S'\x17\x15p\x9c\xd1\x18\x0fB'
p58
tp59
bsS'bharray'
p60
(lp61
I0
asS'gasarray'
p62
(lp63
g3
(g7
S'K\xc5\x1c\xea^\xe7\x96A'
p64
tp65
Rp66
asS'redshiftarray'
p67
(lp68
F1.5765166949677223e-14
asS'surfden1kpc'
p69
(lp70
g24
(g25
(I0
tp71
g27
tp72
Rp73
(g34
I1
(tg7
I00
S'\xc9\xc5\t\x96\xdb\xdd\xc0A'
p74
tp75
basS'outflowarray'
p76
(lp77
g3
(g7
S'\xa7\xb6\x04\nZ\xfa\r@'
p78
tp79
Rp80
asS'smass'
p81
g24
(g25
(I0
tp82
g27
tp83
Rp84
(g34
I1
(tg7
I00
S'.\x1a\x8e\xa0y~\xdaA'
p85
tp86
bsS'inflowarray'
p87
(lp88
g3
(g7
S'\xc8f\xf0\xbf\x07H\x02@'
p89
tp90
Rp91
asS'ssfr'
p92
(lp93
g3
(g7
S'\xc9\xd29\xe6;\xf6\x8d?'
p94
tp95
Rp96
as.