(dp0
S'dm'
p1
(lp2
cnumpy.core.multiarray
scalar
p3
(cnumpy
dtype
p4
(S'f8'
p5
I0
I1
tp6
Rp7
(I3
S'<'
p8
NNNI-1
I-1
I0
tp9
bS'\xbf\x82\xdcT\x10\xe3\xadA'
p10
tp11
Rp12
ag3
(g7
S'\xb8\xe5\xe7\x01\x9e\xe2\xb5A'
p13
tp14
Rp15
ag3
(g7
S'\xfd\x85\xc3Z!\x0e\xb0A'
p16
tp17
Rp18
ag3
(g7
S'Q\xf4#d\xeb\xf6\xbdA'
p19
tp20
Rp21
ag3
(g7
S'\x16\xe9HX\x05\xca\xb9A'
p22
tp23
Rp24
ag3
(g7
S'\x8e\xa9\xef\xa0\xc0\xdb\xb8A'
p25
tp26
Rp27
ag3
(g7
S';\xdd\xe4@\xd0\xda\xb6A'
p28
tp29
Rp30
ag3
(g7
S'\xc7\xbd\xfcj\xd5\xc4\xb5A'
p31
tp32
Rp33
ag3
(g7
S'I\x0e\\\xa4\xb5\xc2\xb4A'
p34
tp35
Rp36
ag3
(g7
S'TE\xb2\x9a,\xa9\xb6A'
p37
tp38
Rp39
ag3
(g7
S',\x05\xd0\xd7\x98\xf8\xb6A'
p40
tp41
Rp42
ag3
(g7
S"'f\x06\x96\xb3Q\xbaA"
p43
tp44
Rp45
ag3
(g7
S'\t\rJ\x8d\x17>\xb7A'
p46
tp47
Rp48
ag3
(g7
S'\x87\xbc\xeaS7@\xb8A'
p49
tp50
Rp51
ag3
(g7
S'>)+\x1b\x99z\xb9A'
p52
tp53
Rp54
ag3
(g7
S'\xdf~,\xbf\xdf\x98\xb3A'
p55
tp56
Rp57
ag3
(g7
S'\xda\xb7\xb4\x0e]\xb2\x9fA'
p58
tp59
Rp60
ag3
(g7
S'\xdc2\xe6\xe4\x16\xf9\xb0A'
p61
tp62
Rp63
ag3
(g7
S'E\x160h"\x16\xbaA'
p64
tp65
Rp66
ag3
(g7
S'\x84p\xa4yn\xa0\xb5A'
p67
tp68
Rp69
ag3
(g7
S's\xf3\xe6;\xc0\x18\xb5A'
p70
tp71
Rp72
ag3
(g7
S'\xee\xad\xae\xf1\xe9+\xb0A'
p73
tp74
Rp75
ag3
(g7
S'\xf5CFu\xa0\x16\xb4A'
p76
tp77
Rp78
ag3
(g7
S'-ZHp\x90T\xb2A'
p79
tp80
Rp81
ag3
(g7
S'\xac\x07\xf4\x05\xd5\x01\xb2A'
p82
tp83
Rp84
ag3
(g7
S'T=\xfe\x18(\x04\xaeA'
p85
tp86
Rp87
ag3
(g7
S'\x8c\xb2!_\xef\x97\xb1A'
p88
tp89
Rp90
ag3
(g7
S'V\x985\x02I\xb0\xb0A'
p91
tp92
Rp93
ag3
(g7
S'\xf0RW\xc6`\xd1\xb0A'
p94
tp95
Rp96
ag3
(g7
S"@\xa7\xc0\xa3_'\xafA"
p97
tp98
Rp99
ag3
(g7
S'\xe9\xf7\x1f\xdd?%\xaeA'
p100
tp101
Rp102
ag3
(g7
S"'\x03\xa1\xda7D\xadA"
p103
tp104
Rp105
ag3
(g7
S'\x96\x89\xea\xe4\x02\x96\xabA'
p106
tp107
Rp108
ag3
(g7
S'\xdc\x16B\x7f\xc0\x9a\xa7A'
p109
tp110
Rp111
ag3
(g7
S'%i\xb3\xcf>\x1d\xa4A'
p112
tp113
Rp114
ag3
(g7
S'a|\x91\x9c\xf2Q\xa7A'
p115
tp116
Rp117
ag3
(g7
S'kG0\xd7V\xc0\xa6A'
p118
tp119
Rp120
ag3
(g7
S'Uh*\xc4\xefZ\xa5A'
p121
tp122
Rp123
ag3
(g7
S'\xda\xcdy\xe1!\x12\xa5A'
p124
tp125
Rp126
asS'star'
p127
(lp128
g3
(g7
S'\x19\x14\xb5\xc67\xb0cA'
p129
tp130
Rp131
ag3
(g7
S'r\xae\x93\x1bk\xcb`A'
p132
tp133
Rp134
ag3
(g7
S'\xa4\x80\xb46\x043ZA'
p135
tp136
Rp137
ag3
(g7
S'\x0cU\x15\x88\x14qxA'
p138
tp139
Rp140
ag3
(g7
S'k\xb1\x8by\x82\xb8{A'
p141
tp142
Rp143
ag3
(g7
S's\xf3\xa2OR\xcc~A'
p144
tp145
Rp146
ag3
(g7
S'\xc5\xf0\xf1@l\x94\x80A'
p147
tp148
Rp149
ag3
(g7
S'\xe2\xc0%\xf7\xc2\xf0\x83A'
p150
tp151
Rp152
ag3
(g7
S'\x11r\x99\xc0\xb3U\x85A'
p153
tp154
Rp155
ag3
(g7
S'\xb68G9#`\x8aA'
p156
tp157
Rp158
ag3
(g7
S'\xde&\xad\xcb\xd22\x8eA'
p159
tp160
Rp161
ag3
(g7
S'\xb343\xc4\xdbc\x94A'
p162
tp163
Rp164
ag3
(g7
S'9\xc2\xd1k\x8b\xb2\x93A'
p165
tp166
Rp167
ag3
(g7
S'\xf4\xd2\x07\xee\x9cd\x9bA'
p168
tp169
Rp170
ag3
(g7
S'?\r\x07\xef\xecD\x9cA'
p171
tp172
Rp173
ag3
(g7
S'\x93Vp\x87t\x8e\x85A'
p174
tp175
Rp176
ag3
(g7
S'E\x08\x1e>y\xf2TA'
p177
tp178
Rp179
ag3
(g7
S'2\xe9!\xeb\xc2!\x87A'
p180
tp181
Rp182
ag3
(g7
S'n\x05\r\x92\xfd\xd0\x93A'
p183
tp184
Rp185
ag3
(g7
S'[\x01\xfe\x88\xe71\x8cA'
p186
tp187
Rp188
ag3
(g7
S'\x88\x0b@\xec42\x8fA'
p189
tp190
Rp191
ag3
(g7
S'w\xa8\xbcR\xb4\xd9\x8bA'
p192
tp193
Rp194
ag3
(g7
S'\xa2:\x9d\n\x89f\x92A'
p195
tp196
Rp197
ag3
(g7
S"1}%'\x04A\x92A"
p198
tp199
Rp200
ag3
(g7
S'\xb5\xd4\x11y\xdf_\x93A'
p201
tp202
Rp203
ag3
(g7
S'\xe4\x19\x81\x9bS\x0e\x8fA'
p204
tp205
Rp206
ag3
(g7
S'\xea\xc6v^F\x06\x94A'
p207
tp208
Rp209
ag3
(g7
S'\xe5\x9e+\x0b\x05\x15\x95A'
p210
tp211
Rp212
ag3
(g7
S'\xc9\x9a\x1eVc\xeb\x96A'
p213
tp214
Rp215
ag3
(g7
S'\x05\xac\x19]0B\x96A'
p216
tp217
Rp218
ag3
(g7
S'\x17\xddL\x03\x81\x0b\x97A'
p219
tp220
Rp221
ag3
(g7
S'|\xd2f.E\x9d\x96A'
p222
tp223
Rp224
ag3
(g7
S'?\xbb\xb0\xf8\xd9\x7f\x96A'
p225
tp226
Rp227
ag3
(g7
S'\x04\x95\xfe\x98\x80A\x92A'
p228
tp229
Rp230
ag3
(g7
S'\x03\xf5\xb1\xfb\xb45\x90A'
p231
tp232
Rp233
ag3
(g7
S'\x84\x0cW;\x95^\x94A'
p234
tp235
Rp236
ag3
(g7
S'\x13$\x1b\xb4\x98e\x93A'
p237
tp238
Rp239
ag3
(g7
S'Vj\x82\x0b\xd6\xba\x91A'
p240
tp241
Rp242
ag3
(g7
S'\xca\xfd\xc1\x80\xfc\xb2\x92A'
p243
tp244
Rp245
asS'sfr'
p246
(lp247
g3
(g7
S'\xdb\xe1\x9aLb\x88v?'
p248
tp249
Rp250
ag3
(g7
S",\xc4\x96\x83\xcf\xf9'?"
p251
tp252
Rp253
ag3
(g7
S'H<\x17\x7f\x8d\x8c\x90?'
p254
tp255
Rp256
ag3
(g7
S'\x8f\xc1P\xf8I\x1a\x97?'
p257
tp258
Rp259
ag3
(g7
S'\xc9\xaf\xb8lk\xae\x9a?'
p260
tp261
Rp262
ag3
(g7
S'\xcd\xbe\x87\xf0c\x10\x80?'
p263
tp264
Rp265
ag3
(g7
S'"\xc7\xf45\xcf\x1e\x7f?'
p266
tp267
Rp268
ag3
(g7
S'7\xad\xff\xa5\x97:\xa2?'
p269
tp270
Rp271
ag3
(g7
S'i\xec\x81<\x9c\x03\xa4?'
p272
tp273
Rp274
ag3
(g7
S'\xbd\x9ecP3\xa4\x99?'
p275
tp276
Rp277
ag3
(g7
S'6\x96\xa0\xe1\x06(\x8d?'
p278
tp279
Rp280
ag3
(g7
S'gc\xc9\xf1\xa8\x11\xab?'
p281
tp282
Rp283
ag3
(g7
S'\x98;\xb1\xa1\xaf\xba\xab?'
p284
tp285
Rp286
ag3
(g7
S'\x1a\x02\xd8\x86p\xbf\xb2?'
p287
tp288
Rp289
ag3
(g7
S'\xc2\xb7\xbet\xfe\xa0\xa6?'
p290
tp291
Rp292
ag3
(g7
S'T\xd8\xff\xf3\x86MX?'
p293
tp294
Rp295
aI0
ag3
(g7
S'\xa7\xd16>\xae\xbc|?'
p296
tp297
Rp298
ag3
(g7
S'\xf5\xadr\xbe\x85\xd5\xa8?'
p299
tp300
Rp301
ag3
(g7
S'\xc4}\x19\xebe\x91\x82?'
p302
tp303
Rp304
ag3
(g7
S'B\xffR&R\xb3\x92?'
p305
tp306
Rp307
ag3
(g7
S'3\x95O\xae\xdb\x05\x85?'
p308
tp309
Rp310
ag3
(g7
S'\x8e96\xdc\x1b9\x84?'
p311
tp312
Rp313
ag3
(g7
S'n\x8e\x96\x041\xd2\x97?'
p314
tp315
Rp316
ag3
(g7
S'\x9c\xb4\xcck\xf9\xf1\x96?'
p317
tp318
Rp319
ag3
(g7
S'\x85\xd6\xde\x9a\xf2Me?'
p320
tp321
Rp322
ag3
(g7
S'C\xf6\xdf\xb8\xebw\x8a?'
p323
tp324
Rp325
ag3
(g7
S"\xee\xe4K\xc3'`\x91?"
p326
tp327
Rp328
ag3
(g7
S'\xc3\xa2r\x1e\x1d\x92\x9b?'
p329
tp330
Rp331
ag3
(g7
S'\xfbU\xebU=\xdb\xa3?'
p332
tp333
Rp334
ag3
(g7
S'b\xe5+\x06\xc1\xc2\x90?'
p335
tp336
Rp337
ag3
(g7
S'M\xa07o#\xbbz?'
p338
tp339
Rp340
ag3
(g7
S'\xef\xbb\x0b\xd4NZ\x84?'
p341
tp342
Rp343
ag3
(g7
S's\xde."w\xdct?'
p344
tp345
Rp346
ag3
(g7
S"'\x9b\x18\x14N'\x83?"
p347
tp348
Rp349
ag3
(g7
S'\xfeD\xd9\xfabU\x8d?'
p350
tp351
Rp352
ag3
(g7
S'\x9d\xfbr\xd4\x90\xc5\x89?'
p353
tp354
Rp355
ag3
(g7
S'\xef+\x12"J\xb9b?'
p356
tp357
Rp358
ag3
(g7
S'\x16VZr\x04\xab\x83?'
p359
tp360
Rp361
asS'smass10'
p362
cnumpy.core.multiarray
_reconstruct
p363
(cpynbody.array
SimArray
p364
(I0
tp365
S'b'
p366
tp367
Rp368
(ccopy_reg
_reconstructor
p369
(cpynbody.units
CompositeUnit
p370
c__builtin__
object
p371
Ntp372
Rp373
(dp374
S'_powers'
p375
(lp376
cfractions
Fraction
p377
(S'1'
p378
tp379
Rp380
asS'_scale'
p381
I1
sS'_bases'
p382
(lp383
cpynbody.units
_resurrect_named_unit
p384
(S'Msol'
p385
S'M_{\\odot}'
p386
g369
(g370
g371
Ntp387
Rp388
(dp389
g375
(lp390
I1
asg381
F1.98892e+30
sg382
(lp391
g384
(S'kg'
p392
NNtp393
Rp394
asbtp395
Rp396
asbI1
(tg7
I00
S'\xc1?\x18.\x00\xd5\xdeA'
p397
tp398
bsS'bharray'
p399
(lp400
I0
aI0
aI0
aI0
aI0
aI0
aI0
aI0
aI0
aI0
aI0
aI0
aI0
aI0
aI0
aI0
aI0
aI0
aI0
aI0
aI0
aI0
aI0
aI0
aI0
aI0
aI0
aI0
aI0
aI0
aI0
aI0
aI0
aI0
aI0
aI0
aI0
aI0
aI0
asS'gasarray'
p401
(lp402
g3
(g7
S'\xf6\x03\xf0\x86\x13*\xa1A'
p403
tp404
Rp405
ag3
(g7
S'm\x99w\x06\x9cn\x83A'
p406
tp407
Rp408
ag3
(g7
S'1V\x08\xc7X\xbc\x93A'
p409
tp410
Rp411
ag3
(g7
S'\xc1\xf5\xf9\xc88\xa1\x94A'
p412
tp413
Rp414
ag3
(g7
S'\xad\x8aj\xcd\xb2]\x9cA'
p415
tp416
Rp417
ag3
(g7
S'%\xf4w\xe5\xcf\xc5\x96A'
p418
tp419
Rp420
ag3
(g7
S'f\xe8\x92\xb7E\xc1\x9bA'
p421
tp422
Rp423
ag3
(g7
S'\xc1\xe4*ck\xb0wA'
p424
tp425
Rp426
ag3
(g7
S'+\xff\x96\xf5Z\xb6\x90A'
p427
tp428
Rp429
ag3
(g7
S'\xeb\xdb-\x00/\x87\xa2A'
p430
tp431
Rp432
ag3
(g7
S'{~\rt\xb4\x9a\xa2A'
p433
tp434
Rp435
ag3
(g7
S'2\xd3Ob\xf6\x93\xabA'
p436
tp437
Rp438
ag3
(g7
S')\xc1\xfdC\xca\xad\x80A'
p439
tp440
Rp441
ag3
(g7
S'\xcb\x02\xc0(g"\xa4A'
p442
tp443
Rp444
ag3
(g7
S'\xdf\x80q\xef8\x1c\x94A'
p445
tp446
Rp447
ag3
(g7
S'\xcfa\xcd\x8f\xd5\xd0rA'
p448
tp449
Rp450
ag3
(g7
S'd\x1a\xe1\x05T\x19sA'
p451
tp452
Rp453
ag3
(g7
S'\t\xe2\xaf]\xb14\x94A'
p454
tp455
Rp456
ag3
(g7
S'[\x9b\x0e\xa1\xad\x1b\xa2A'
p457
tp458
Rp459
ag3
(g7
S'\xb4-58\x05:\x83A'
p460
tp461
Rp462
ag3
(g7
S'\x1f^\x97\x93\xa1\x88WA'
p463
tp464
Rp465
ag3
(g7
S'\x83\xb1\x8c\xf8|\x08\x95A'
p466
tp467
Rp468
ag3
(g7
S'\xb58D1{\x1b\x84A'
p469
tp470
Rp471
ag3
(g7
S'\xf0\x82\xc7\xb1s[\x8aA'
p472
tp473
Rp474
ag3
(g7
S'n\x84\xbd8T\xb9\x84A'
p475
tp476
Rp477
ag3
(g7
S'h\xca(\xc4#\x1e\x96A'
p478
tp479
Rp480
ag3
(g7
S'\xcf6f8\xa3\xba\x82A'
p481
tp482
Rp483
ag3
(g7
S'\x00\xe8P\xb5d\xa3\x95A'
p484
tp485
Rp486
ag3
(g7
S'\xfd\xff\xf1s\x89o\x93A'
p487
tp488
Rp489
ag3
(g7
S'v\xdc\x02\xb7\x93(pA'
p490
tp491
Rp492
ag3
(g7
S'\xea\xe6\xc5\x95\x02~\x94A'
p493
tp494
Rp495
ag3
(g7
S'>\xa5IC\xbf\x05\xa5A'
p496
tp497
Rp498
ag3
(g7
S'\x1b\xf1\x16q\x82\x8c\x9dA'
p499
tp500
Rp501
ag3
(g7
S'\xd1\x9f\xc8x\n)\x8bA'
p502
tp503
Rp504
ag3
(g7
S'\xe1\xb09!\xf8\xfauA'
p505
tp506
Rp507
ag3
(g7
S'k\xc3\xc4\xa555\x91A'
p508
tp509
Rp510
ag3
(g7
S'\x1d\xcf\xca23\x8a\x91A'
p511
tp512
Rp513
ag3
(g7
S'\xbd+w\x90bv\x8cA'
p514
tp515
Rp516
ag3
(g7
S'X\x82,V\xfe#\x87A'
p517
tp518
Rp519
asS'redshiftarray'
p520
(lp521
F4.561225338906956
aF4.0219197196751315
aF3.595906673044489
aF3.249222482242713
aF2.9604880271712473
aF2.71551790099832
aF2.5044983646771204
aF2.320405534120926
aF2.158068630365731
aF2.013589558582861
aF1.8839693699809175
aF1.7668599804832716
aF1.6603944899299403
aF1.5630683748162806
aF1.4736545109946966
aF1.3911412352835408
aF1.3146864327771066
aF1.2435829846263102
aF1.1772324075636686
aF1.1151244920657106
aF1.0568213952022236
aF1.0019450842703685
aF0.9501673303644187
aF0.9012016643906826
aF0.8547968568831767
aF0.810731593960949
aF0.7688100988343307
aF0.7288585074728573
aF0.6907218501021464
aF0.6542615228075603
aF0.619353158234319
aF0.5858848232818783
aF0.5537554862750533
aF0.5228737074298768
aF0.4931565153057902
aF0.46452843892788764
aF0.4369206708132436
aF0.41027034055606837
aF0.3845198821844189
asS'surfden1kpc'
p522
(lp523
g363
(g364
(I0
tp524
g366
tp525
Rp526
(g369
(g370
g371
Ntp527
Rp528
(dp529
g375
(lp530
g377
(g378
tp531
Rp532
asg381
I1
sg382
(lp533
g396
asbI1
(tg7
I00
S'\xddHN\x9bg\x11IA'
p534
tp535
bag363
(g364
(I0
tp536
g366
tp537
Rp538
(g369
(g370
g371
Ntp539
Rp540
(dp541
g375
(lp542
g377
(g378
tp543
Rp544
asg381
I1
sg382
(lp545
g396
asbI1
(tg7
I00
S'8A\xeb\x830bEA'
p546
tp547
bag363
(g364
(I0
tp548
g366
tp549
Rp550
(g369
(g370
g371
Ntp551
Rp552
(dp553
g375
(lp554
g377
(g378
tp555
Rp556
asg381
I1
sg382
(lp557
g396
asbI1
(tg7
I00
S'O\x85\x1c\xbd\xd1\xad@A'
p558
tp559
bag363
(g364
(I0
tp560
g366
tp561
Rp562
(g369
(g370
g371
Ntp563
Rp564
(dp565
g375
(lp566
g377
(g378
tp567
Rp568
asg381
I1
sg382
(lp569
g396
asbI1
(tg7
I00
S'\xf0\xdb\xf6\x0e\xc3\x1e_A'
p570
tp571
bag363
(g364
(I0
tp572
g366
tp573
Rp574
(g369
(g370
g371
Ntp575
Rp576
(dp577
g375
(lp578
g377
(g378
tp579
Rp580
asg381
I1
sg382
(lp581
g396
asbI1
(tg7
I00
S'\xfd$/C\xc7\xa5aA'
p582
tp583
bag363
(g364
(I0
tp584
g366
tp585
Rp586
(g369
(g370
g371
Ntp587
Rp588
(dp589
g375
(lp590
g377
(g378
tp591
Rp592
asg381
I1
sg382
(lp593
g396
asbI1
(tg7
I00
S'1\xe8G\xa2P\x9bcA'
p594
tp595
bag363
(g364
(I0
tp596
g366
tp597
Rp598
(g369
(g370
g371
Ntp599
Rp600
(dp601
g375
(lp602
g377
(g378
tp603
Rp604
asg381
I1
sg382
(lp605
g396
asbI1
(tg7
I00
S'\x1e\x06\xf9\xc2*\x1ceA'
p606
tp607
bag363
(g364
(I0
tp608
g366
tp609
Rp610
(g369
(g370
g371
Ntp611
Rp612
(dp613
g375
(lp614
g377
(g378
tp615
Rp616
asg381
I1
sg382
(lp617
g396
asbI1
(tg7
I00
S'T1\xa7\x95\x95ciA'
p618
tp619
bag363
(g364
(I0
tp620
g366
tp621
Rp622
(g369
(g370
g371
Ntp623
Rp624
(dp625
g375
(lp626
g377
(g378
tp627
Rp628
asg381
I1
sg382
(lp629
g396
asbI1
(tg7
I00
S'\xf8\x87\x87\x1f\x0e*kA'
p630
tp631
bag363
(g364
(I0
tp632
g366
tp633
Rp634
(g369
(g370
g371
Ntp635
Rp636
(dp637
g375
(lp638
g377
(g378
tp639
Rp640
asg381
I1
sg382
(lp641
g396
asbI1
(tg7
I00
S'\xf2-\x11W\x8b\xcapA'
p642
tp643
bag363
(g364
(I0
tp644
g366
tp645
Rp646
(g369
(g370
g371
Ntp647
Rp648
(dp649
g375
(lp650
g377
(g378
tp651
Rp652
asg381
I1
sg382
(lp653
g396
asbI1
(tg7
I00
S'[\x9e\xf0T\x989sA'
p654
tp655
bag363
(g364
(I0
tp656
g366
tp657
Rp658
(g369
(g370
g371
Ntp659
Rp660
(dp661
g375
(lp662
g377
(g378
tp663
Rp664
asg381
I1
sg382
(lp665
g396
asbI1
(tg7
I00
S'\xa9\xad\x99U!\xf6yA'
p666
tp667
bag363
(g364
(I0
tp668
g366
tp669
Rp670
(g369
(g370
g371
Ntp671
Rp672
(dp673
g375
(lp674
g377
(g378
tp675
Rp676
asg381
I1
sg382
(lp677
g396
asbI1
(tg7
I00
S'8ca\x01^\x14yA'
p678
tp679
bag363
(g364
(I0
tp680
g366
tp681
Rp682
(g369
(g370
g371
Ntp683
Rp684
(dp685
g375
(lp686
g377
(g378
tp687
Rp688
asg381
I1
sg382
(lp689
g396
asbI1
(tg7
I00
S'^b\x8e;^p\x81A'
p690
tp691
bag363
(g364
(I0
tp692
g366
tp693
Rp694
(g369
(g370
g371
Ntp695
Rp696
(dp697
g375
(lp698
g377
(g378
tp699
Rp700
asg381
I1
sg382
(lp701
g396
asbI1
(tg7
I00
S'\xeat*}+\xff\x81A'
p702
tp703
bag363
(g364
(I0
tp704
g366
tp705
Rp706
(g369
(g370
g371
Ntp707
Rp708
(dp709
g375
(lp710
g377
(g378
tp711
Rp712
asg381
I1
sg382
(lp713
g396
asbI1
(tg7
I00
S'\x17\x83x\xbcPrkA'
p714
tp715
bag363
(g364
(I0
tp716
g366
tp717
Rp718
(g369
(g370
g371
Ntp719
Rp720
(dp721
g375
(lp722
g377
(g378
tp723
Rp724
asg381
I1
sg382
(lp725
g396
asbI1
(tg7
I00
S'\x8f\x1d\xae\xa4\xb6\xab:A'
p726
tp727
bag363
(g364
(I0
tp728
g366
tp729
Rp730
(g369
(g370
g371
Ntp731
Rp732
(dp733
g375
(lp734
g377
(g378
tp735
Rp736
asg381
I1
sg382
(lp737
g396
asbI1
(tg7
I00
S'$\xf8@\x1f\xd2smA'
p738
tp739
bag363
(g364
(I0
tp740
g366
tp741
Rp742
(g369
(g370
g371
Ntp743
Rp744
(dp745
g375
(lp746
g377
(g378
tp747
Rp748
asg381
I1
sg382
(lp749
g396
asbI1
(tg7
I00
S'i\xd3\x15\xd3!;yA'
p750
tp751
bag363
(g364
(I0
tp752
g366
tp753
Rp754
(g369
(g370
g371
Ntp755
Rp756
(dp757
g375
(lp758
g377
(g378
tp759
Rp760
asg381
I1
sg382
(lp761
g396
asbI1
(tg7
I00
S'.\x87\x94\x88\x0f\xf3qA'
p762
tp763
bag363
(g364
(I0
tp764
g366
tp765
Rp766
(g369
(g370
g371
Ntp767
Rp768
(dp769
g375
(lp770
g377
(g378
tp771
Rp772
asg381
I1
sg382
(lp773
g396
asbI1
(tg7
I00
S'\xdf\x82\x1cW-\xdcsA'
p774
tp775
bag363
(g364
(I0
tp776
g366
tp777
Rp778
(g369
(g370
g371
Ntp779
Rp780
(dp781
g375
(lp782
g377
(g378
tp783
Rp784
asg381
I1
sg382
(lp785
g396
asbI1
(tg7
I00
S"\xa01')\xe9\xbaqA"
p786
tp787
bag363
(g364
(I0
tp788
g366
tp789
Rp790
(g369
(g370
g371
Ntp791
Rp792
(dp793
g375
(lp794
g377
(g378
tp795
Rp796
asg381
I1
sg382
(lp797
g396
asbI1
(tg7
I00
S'\xfaB\xd1\xcc\xa3mwA'
p798
tp799
bag363
(g364
(I0
tp800
g366
tp801
Rp802
(g369
(g370
g371
Ntp803
Rp804
(dp805
g375
(lp806
g377
(g378
tp807
Rp808
asg381
I1
sg382
(lp809
g396
asbI1
(tg7
I00
S'i\xe2\xe4y\xde=wA'
p810
tp811
bag363
(g364
(I0
tp812
g366
tp813
Rp814
(g369
(g370
g371
Ntp815
Rp816
(dp817
g375
(lp818
g377
(g378
tp819
Rp820
asg381
I1
sg382
(lp821
g396
asbI1
(tg7
I00
S'\x9d\x08\xc5:\x1b\xabxA'
p822
tp823
bag363
(g364
(I0
tp824
g366
tp825
Rp826
(g369
(g370
g371
Ntp827
Rp828
(dp829
g375
(lp830
g377
(g378
tp831
Rp832
asg381
I1
sg382
(lp833
g396
asbI1
(tg7
I00
S'\x16bp\xc9U\xc5sA'
p834
tp835
bag363
(g364
(I0
tp836
g366
tp837
Rp838
(g369
(g370
g371
Ntp839
Rp840
(dp841
g375
(lp842
g377
(g378
tp843
Rp844
asg381
I1
sg382
(lp845
g396
asbI1
(tg7
I00
S'w\xbe\x1f\xd4\xf9~yA'
p846
tp847
bag363
(g364
(I0
tp848
g366
tp849
Rp850
(g369
(g370
g371
Ntp851
Rp852
(dp853
g375
(lp854
g377
(g378
tp855
Rp856
asg381
I1
sg382
(lp857
g396
asbI1
(tg7
I00
S'\xba\r\xa1\xeb\xb2\xd7zA'
p858
tp859
bag363
(g364
(I0
tp860
g366
tp861
Rp862
(g369
(g370
g371
Ntp863
Rp864
(dp865
g375
(lp866
g377
(g378
tp867
Rp868
asg381
I1
sg382
(lp869
g396
asbI1
(tg7
I00
S'\xa3:\xe4(\x97.}A'
p870
tp871
bag363
(g364
(I0
tp872
g366
tp873
Rp874
(g369
(g370
g371
Ntp875
Rp876
(dp877
g375
(lp878
g377
(g378
tp879
Rp880
asg381
I1
sg382
(lp881
g396
asbI1
(tg7
I00
S'\xb9\x96\xd5\xd2(W|A'
p882
tp883
bag363
(g364
(I0
tp884
g366
tp885
Rp886
(g369
(g370
g371
Ntp887
Rp888
(dp889
g375
(lp890
g377
(g378
tp891
Rp892
asg381
I1
sg382
(lp893
g396
asbI1
(tg7
I00
S'\xba\xb6\xc7R{W}A'
p894
tp895
bag363
(g364
(I0
tp896
g366
tp897
Rp898
(g369
(g370
g371
Ntp899
Rp900
(dp901
g375
(lp902
g377
(g378
tp903
Rp904
asg381
I1
sg382
(lp905
g396
asbI1
(tg7
I00
S'@/\xc0\xb7 \xcb|A'
p906
tp907
bag363
(g364
(I0
tp908
g366
tp909
Rp910
(g369
(g370
g371
Ntp911
Rp912
(dp913
g375
(lp914
g377
(g378
tp915
Rp916
asg381
I1
sg382
(lp917
g396
asbI1
(tg7
I00
S'u*\x02\xaf\xab\xa5|A'
p918
tp919
bag363
(g364
(I0
tp920
g366
tp921
Rp922
(g369
(g370
g371
Ntp923
Rp924
(dp925
g375
(lp926
g377
(g378
tp927
Rp928
asg381
I1
sg382
(lp929
g396
asbI1
(tg7
I00
S'l\xe4\x90\xec|>wA'
p930
tp931
bag363
(g364
(I0
tp932
g366
tp933
Rp934
(g369
(g370
g371
Ntp935
Rp936
(dp937
g375
(lp938
g377
(g378
tp939
Rp940
asg381
I1
sg382
(lp941
g396
asbI1
(tg7
I00
S'\xc6$\x8e-\x92\xa3tA'
p942
tp943
bag363
(g364
(I0
tp944
g366
tp945
Rp946
(g369
(g370
g371
Ntp947
Rp948
(dp949
g375
(lp950
g377
(g378
tp951
Rp952
asg381
I1
sg382
(lp953
g396
asbI1
(tg7
I00
S'\x91\x12\xc2\xc7i\xefyA'
p954
tp955
bag363
(g364
(I0
tp956
g366
tp957
Rp958
(g369
(g370
g371
Ntp959
Rp960
(dp961
g375
(lp962
g377
(g378
tp963
Rp964
asg381
I1
sg382
(lp965
g396
asbI1
(tg7
I00
S'+*\xb2\xd1d\xb2xA'
p966
tp967
bag363
(g364
(I0
tp968
g366
tp969
Rp970
(g369
(g370
g371
Ntp971
Rp972
(dp973
g375
(lp974
g377
(g378
tp975
Rp976
asg381
I1
sg382
(lp977
g396
asbI1
(tg7
I00
S'K\xe9q\x8f\x06\x93vA'
p978
tp979
bag363
(g364
(I0
tp980
g366
tp981
Rp982
(g373
I1
(tg7
I00
S't\xaas\xf5\xfa\xcewA'
p983
tp984
basS'outflowarray'
p985
(lp986
g3
(g7
S'\xa1\x15\xb0\xact\xd7\x1d@'
p987
tp988
Rp989
ag3
(g7
S'+\xa7\x9e\nez\xe4?'
p990
tp991
Rp992
ag3
(g7
S'jN~\xa9\x96\xe2\t@'
p993
tp994
Rp995
ag3
(g7
S'\xdd\x9e\x00O"\x0f\x0c@'
p996
tp997
Rp998
ag3
(g7
S'\x06b>\xd1\xfd\x81\x0e@'
p999
tp1000
Rp1001
ag3
(g7
S'\xb6c\xb8\xfet\xdf\t@'
p1002
tp1003
Rp1004
ag3
(g7
S'\x0fN07\xd0?\x19@'
p1005
tp1006
Rp1007
ag3
(g7
S'\xaa\x97R\xf3\x08\x14\xf0?'
p1008
tp1009
Rp1010
ag3
(g7
S'\x15\x89\x04uB]\x04@'
p1011
tp1012
Rp1013
ag3
(g7
S'\xc7=\x93\xc1|\xe0\x1b@'
p1014
tp1015
Rp1016
ag3
(g7
S'\x85J\x80\xa4F\x8a#@'
p1017
tp1018
Rp1019
ag3
(g7
S'a\xd7\xd3c\xcd\x18(@'
p1020
tp1021
Rp1022
ag3
(g7
S'\xf0L\xed\xb9\xc2#\x02@'
p1023
tp1024
Rp1025
ag3
(g7
S'm/V\x9b]\xe6 @'
p1026
tp1027
Rp1028
ag3
(g7
S'\xcc\xfc\xc3\x8a\x00H @'
p1029
tp1030
Rp1031
ag3
(g7
S'\rB\\7\x1f{\xcb?'
p1032
tp1033
Rp1034
ag3
(g7
S'\xcd@\xe4GH\x18\xd2?'
p1035
tp1036
Rp1037
ag3
(g7
S'\xbf\x06P\xfc\x8c,\x0e@'
p1038
tp1039
Rp1040
ag3
(g7
S'\xe1\x16\xab\xc8\x0f\xc6*@'
p1041
tp1042
Rp1043
ag3
(g7
S'=\xe0\xa7\xde*\xbf\xf4?'
p1044
tp1045
Rp1046
ag3
(g7
S'\xcf5\xe9\xa2:\xc1\xea?'
p1047
tp1048
Rp1049
ag3
(g7
S'\x04\xa1\x96h\xf9\xb4\x07@'
p1050
tp1051
Rp1052
ag3
(g7
S'\x08\x1d\xe4\xed\x8c\x08\xf0?'
p1053
tp1054
Rp1055
ag3
(g7
S'tN~]8\xda\x0e@'
p1056
tp1057
Rp1058
ag3
(g7
S'\x85\xc1\x03F\xbb/\x0b@'
p1059
tp1060
Rp1061
ag3
(g7
S'\xc7/u\x1d\xa7Z\xeb?'
p1062
tp1063
Rp1064
ag3
(g7
S't\x18"\xe6\xf1Z\xeb?'
p1065
tp1066
Rp1067
ag3
(g7
S'\xd4\x1a\x00\x8e\xc9\x08\x1f@'
p1068
tp1069
Rp1070
ag3
(g7
S'\x150w\xd2\x06P\x1b@'
p1071
tp1072
Rp1073
ag3
(g7
S'\x96 \x18\xc8\x98\x08\xf3?'
p1074
tp1075
Rp1076
ag3
(g7
S'v\xeb\xf5\x02\xe7\xac\x10@'
p1077
tp1078
Rp1079
ag3
(g7
S'\x8c\x0cL\xf2l\x1f\xfb?'
p1080
tp1081
Rp1082
ag3
(g7
S'\n1~~Lz\x1c@'
p1083
tp1084
Rp1085
ag3
(g7
S'^Z;\x82\x04$\xe1?'
p1086
tp1087
Rp1088
ag3
(g7
S'h{F\xc1\x8c\xe3\xf4?'
p1089
tp1090
Rp1091
ag3
(g7
S'\xa7%\xf4uT:\n@'
p1092
tp1093
Rp1094
ag3
(g7
S'Ip\xa7\xcdu\xf0\x05@'
p1095
tp1096
Rp1097
ag3
(g7
S'%\xa8\x13\xba\xfc\xd2\x10@'
p1098
tp1099
Rp1100
ag3
(g7
S'\xe9\x88\xc05k\x97\t@'
p1101
tp1102
Rp1103
asS'smass'
p1104
g363
(g364
(I0
tp1105
g366
tp1106
Rp1107
(g373
I1
(tg7
I00
S'\xdc\xfd\xc1\x80\xfc\xb2\x92A'
p1108
tp1109
bsS'inflowarray'
p1110
(lp1111
g3
(g7
S'\x90M\xea\x01\x05\x08\x08@'
p1112
tp1113
Rp1114
ag3
(g7
S'\xfd\xb5umU\xe3\x03@'
p1115
tp1116
Rp1117
ag3
(g7
S'\xd5\xe8\t*\x10\xfa\t@'
p1118
tp1119
Rp1120
ag3
(g7
S':\r\x0e\xb5Y\x1f\x11@'
p1121
tp1122
Rp1123
ag3
(g7
S'\x97\x00\xf7\xc2\xbc\x84\x18@'
p1124
tp1125
Rp1126
ag3
(g7
S'Y\xc2\xc1>\xef\xf9\t@'
p1127
tp1128
Rp1129
ag3
(g7
S'\x8c\xedo\x18\xd01\x11@'
p1130
tp1131
Rp1132
ag3
(g7
S'\xff\x81\x16\xcd\x94\xed\xf2?'
p1133
tp1134
Rp1135
ag3
(g7
S'\x87\xea\xab\xe9p7\x0f@'
p1136
tp1137
Rp1138
ag3
(g7
S'\xff\x1d\x11\xb0\xb1\x9b"@'
p1139
tp1140
Rp1141
ag3
(g7
S'iC\xf8<f\x1d!@'
p1142
tp1143
Rp1144
ag3
(g7
S'Ix\xf1f\xfc\xd3"@'
p1145
tp1146
Rp1147
ag3
(g7
S'\x1d\xcb\xc5\xacb\xd9\xf5?'
p1148
tp1149
Rp1150
ag3
(g7
S'\x82\xdbk\x05?E\x1c@'
p1151
tp1152
Rp1153
ag3
(g7
S'\xa5\xa6\x06\x06\xb7z\x16@'
p1154
tp1155
Rp1156
ag3
(g7
S'\xb5\x88i\xca\xd5\xfd\xfc?'
p1157
tp1158
Rp1159
ag3
(g7
S'\x9esBA?V\x07@'
p1160
tp1161
Rp1162
ag3
(g7
S'@u\x19\xa1\xd6B\x08@'
p1163
tp1164
Rp1165
ag3
(g7
S'\xad\xd7Sh\xd5"%@'
p1166
tp1167
Rp1168
ag3
(g7
S'\xdb}5\xd6!\xcd\x01@'
p1169
tp1170
Rp1171
ag3
(g7
S':\x9f\xa2"6\xba\xd4?'
p1172
tp1173
Rp1174
ag3
(g7
S'\x90\xcc$\xd9\xbf[\xfd?'
p1175
tp1176
Rp1177
ag3
(g7
S'\xae9u`\x06\xa6\xfa?'
p1178
tp1179
Rp1180
ag3
(g7
S'q\x98\xcaRE\xc6\x0b@'
p1181
tp1182
Rp1183
ag3
(g7
S'\x81\x1a\xa6eR\xa9\x03@'
p1184
tp1185
Rp1186
ag3
(g7
S'\xf6\x97\xb3O\xf78\x11@'
p1187
tp1188
Rp1189
ag3
(g7
S'\x9bN\xa4\xa2\xd1\xca\x0c@'
p1190
tp1191
Rp1192
ag3
(g7
S'\x07\x11\xc5\xef\xfd\x95\x07@'
p1193
tp1194
Rp1195
ag3
(g7
S'<r\xabM<\xdf\xf4?'
p1196
tp1197
Rp1198
ag3
(g7
S'\xf5\x80F\xc9\xd3\x99\x04@'
p1199
tp1200
Rp1201
ag3
(g7
S'\xcd\x05J\xe0f%\n@'
p1202
tp1203
Rp1204
ag3
(g7
S":\xfc\x12\xc4s$'@"
p1205
tp1206
Rp1207
ag3
(g7
S'\x11_\x8f\xa3\x08\xd8\x19@'
p1208
tp1209
Rp1210
ag3
(g7
S'\x96M\x9a\xf8+l\xfa?'
p1211
tp1212
Rp1213
ag3
(g7
S'G\xe6\x95\xd0F\x83\x00@'
p1214
tp1215
Rp1216
ag3
(g7
S'4\x0bi/tK\r@'
p1217
tp1218
Rp1219
ag3
(g7
S'\xf8\xc6\x96\x85\xb6s\xf3?'
p1220
tp1221
Rp1222
ag3
(g7
S'\xab]\xbb\xdd\xd4\x95\x10@'
p1223
tp1224
Rp1225
ag3
(g7
S'A"\xdc\x10\xccF\x00@'
p1226
tp1227
Rp1228
asS'ssfr'
p1229
(lp1230
g3
(g7
S'\xf3\x91\xf4"\xf9v\xe4?'
p1231
tp1232
Rp1233
ag3
(g7
S'\xd5LU\x18\xfe\x86\x99?'
p1234
tp1235
Rp1236
ag3
(g7
S'pf\x05\xac\x04\x97\x06@'
p1237
tp1238
Rp1239
ag3
(g7
S'\xc0y5^\xda\xe6\xf0?'
p1240
tp1241
Rp1242
ag3
(g7
S'\xff^\x0b}\xfe5\xf1?'
p1243
tp1244
Rp1245
ag3
(g7
S'\xfe\xc7\x16\xaeN\xa7\xd2?'
p1246
tp1247
Rp1248
ag3
(g7
S'\xbc\xd7\xd8\x82 \xc8\xd0?'
p1249
tp1250
Rp1251
ag3
(g7
S'5\xe6\xab\xa6\xb6X\xf0?'
p1252
tp1253
Rp1254
ag3
(g7
S'\xe3E\xa2AE\xc6\xf0?'
p1255
tp1256
Rp1257
ag3
(g7
S'6\xca6Z9b\xe1?'
p1258
tp1259
Rp1260
ag3
(g7
S'\x86\xac\x00\xb6\xa8C\xd1?'
p1261
tp1262
Rp1263
ag3
(g7
S'\xcb\xed&\xed\x12\xbd\xe7?'
p1264
tp1265
Rp1266
ag3
(g7
S'\x1f\xdf\xa0:5,\xe9?'
p1267
tp1268
Rp1269
ag3
(g7
S'Cf\\\xe9\xe0y\xe8?'
p1270
tp1271
Rp1272
ag3
(g7
S'\xd6\xafzw\x96\xa0\xdc?'
p1273
tp1274
Rp1275
ag3
(g7
S'\xf3k\x88I\xd8(\xa4?'
p1276
tp1277
Rp1278
ag363
(g364
(I0
tp1279
g366
tp1280
Rp1281
(g369
(g370
g371
Ntp1282
Rp1283
(dp1284
g375
(lp1285
g377
(S'-1'
p1286
tp1287
Rp1288
asg381
F1.0
sg382
(lp1289
g396
asbI1
(tg7
I00
S'\x00\x00\x00\x00\x00\x00\x00\x00'
p1290
tp1291
bag3
(g7
S'O\x12\xf6p\xdb6\xc6?'
p1292
tp1293
Rp1294
ag3
(g7
S'\x01\xec\x06x\xbdh\xe6?'
p1295
tp1296
Rp1297
ag3
(g7
S'\xa7k\xb6\xdfC\x8d\xc7?'
p1298
tp1299
Rp1300
ag3
(g7
S'k\xcb\x16\xca\x1dp\xd5?'
p1301
tp1302
Rp1303
ag3
(g7
S't\r\xf0\xf0\xdb\xfe\xca?'
p1304
tp1305
Rp1306
ag3
(g7
S' \xc9\xc3\xf8\x0b\xa7\xc3?'
p1307
tp1308
Rp1309
ag3
(g7
S'\xa6\xd0\xce \xb9U\xd7?'
p1310
tp1311
Rp1312
ag3
(g7
S'\xb0\xad\r\xcdJ-\xd5?'
p1313
tp1314
Rp1315
ag3
(g7
S'\xb5\x9f\x9cw\x8b\x88\xa8?'
p1316
tp1317
Rp1318
ag3
(g7
S'4\x0c\x8a\xcf\xba\xa2\xc7?'
p1319
tp1320
Rp1321
ag3
(g7
S'\xd5\xc7Q\x15\xa9y\xcd?'
p1322
tp1323
Rp1324
ag3
(g7
S'\xda[\x01\xe9\x9e\x82\xd5?'
p1325
tp1326
Rp1327
ag3
(g7
S'\x10\t\xde-<\xe7\xdf?'
p1328
tp1329
Rp1330
ag3
(g7
S'\xe2\xf6\x8b)\xb3\x02\xca?'
p1331
tp1332
Rp1333
ag3
(g7
S'\x97\x11\xdb\xfb\xf0"\xb5?'
p1334
tp1335
Rp1336
ag3
(g7
S'\xe0z\x143\xe3,\xc0?'
p1337
tp1338
Rp1339
ag3
(g7
S',Q@*\xebn\xb4?'
p1340
tp1341
Rp1342
ag3
(g7
S'\x17\xa3\xd9\xac\xf2 \xc5?'
p1343
tp1344
Rp1345
ag3
(g7
S'\xc8\xd6\xa3\x04#\xc0\xc9?'
p1346
tp1347
Rp1348
ag3
(g7
S'\xe0d\r\xd8\x19\xc2\xc7?'
p1349
tp1350
Rp1351
ag3
(g7
S'\xa8\x9c\x83\xf1C\xe2\xa2?'
p1352
tp1353
Rp1354
ag3
(g7
S'V!.\x12\xd2\xce\xc2?'
p1355
tp1356
Rp1357
as.