(dp0
S'dm'
p1
(lp2
cnumpy.core.multiarray
scalar
p3
(cnumpy
dtype
p4
(S'f8'
p5
I0
I1
tp6
Rp7
(I3
S'<'
p8
NNNI-1
I-1
I0
tp9
bS'\xbf\x82\xdcT\x10\xe3\xadA'
p10
tp11
Rp12
ag3
(g7
S'\xb8\xe5\xe7\x01\x9e\xe2\xb5A'
p13
tp14
Rp15
ag3
(g7
S'\xfd\x85\xc3Z!\x0e\xb0A'
p16
tp17
Rp18
ag3
(g7
S'Q\xf4#d\xeb\xf6\xbdA'
p19
tp20
Rp21
ag3
(g7
S'\x16\xe9HX\x05\xca\xb9A'
p22
tp23
Rp24
ag3
(g7
S'\x8e\xa9\xef\xa0\xc0\xdb\xb8A'
p25
tp26
Rp27
ag3
(g7
S';\xdd\xe4@\xd0\xda\xb6A'
p28
tp29
Rp30
ag3
(g7
S'\xc7\xbd\xfcj\xd5\xc4\xb5A'
p31
tp32
Rp33
ag3
(g7
S'I\x0e\\\xa4\xb5\xc2\xb4A'
p34
tp35
Rp36
ag3
(g7
S'TE\xb2\x9a,\xa9\xb6A'
p37
tp38
Rp39
ag3
(g7
S',\x05\xd0\xd7\x98\xf8\xb6A'
p40
tp41
Rp42
ag3
(g7
S"'f\x06\x96\xb3Q\xbaA"
p43
tp44
Rp45
ag3
(g7
S'\t\rJ\x8d\x17>\xb7A'
p46
tp47
Rp48
asS'star'
p49
(lp50
g3
(g7
S'\x19\x14\xb5\xc67\xb0cA'
p51
tp52
Rp53
ag3
(g7
S'r\xae\x93\x1bk\xcb`A'
p54
tp55
Rp56
ag3
(g7
S'\xa4\x80\xb46\x043ZA'
p57
tp58
Rp59
ag3
(g7
S'\x0cU\x15\x88\x14qxA'
p60
tp61
Rp62
ag3
(g7
S'k\xb1\x8by\x82\xb8{A'
p63
tp64
Rp65
ag3
(g7
S's\xf3\xa2OR\xcc~A'
p66
tp67
Rp68
ag3
(g7
S'\xc5\xf0\xf1@l\x94\x80A'
p69
tp70
Rp71
ag3
(g7
S'\xe2\xc0%\xf7\xc2\xf0\x83A'
p72
tp73
Rp74
ag3
(g7
S'\x11r\x99\xc0\xb3U\x85A'
p75
tp76
Rp77
ag3
(g7
S'\xb68G9#`\x8aA'
p78
tp79
Rp80
ag3
(g7
S'\xde&\xad\xcb\xd22\x8eA'
p81
tp82
Rp83
ag3
(g7
S'\xb343\xc4\xdbc\x94A'
p84
tp85
Rp86
ag3
(g7
S'9\xc2\xd1k\x8b\xb2\x93A'
p87
tp88
Rp89
asS'sfr'
p90
(lp91
g3
(g7
S'\xdb\xe1\x9aLb\x88v?'
p92
tp93
Rp94
ag3
(g7
S",\xc4\x96\x83\xcf\xf9'?"
p95
tp96
Rp97
ag3
(g7
S'H<\x17\x7f\x8d\x8c\x90?'
p98
tp99
Rp100
ag3
(g7
S'\x8f\xc1P\xf8I\x1a\x97?'
p101
tp102
Rp103
ag3
(g7
S'\xc9\xaf\xb8lk\xae\x9a?'
p104
tp105
Rp106
ag3
(g7
S'\xcd\xbe\x87\xf0c\x10\x80?'
p107
tp108
Rp109
ag3
(g7
S'"\xc7\xf45\xcf\x1e\x7f?'
p110
tp111
Rp112
ag3
(g7
S'7\xad\xff\xa5\x97:\xa2?'
p113
tp114
Rp115
ag3
(g7
S'i\xec\x81<\x9c\x03\xa4?'
p116
tp117
Rp118
ag3
(g7
S'\xbd\x9ecP3\xa4\x99?'
p119
tp120
Rp121
ag3
(g7
S'6\x96\xa0\xe1\x06(\x8d?'
p122
tp123
Rp124
ag3
(g7
S'gc\xc9\xf1\xa8\x11\xab?'
p125
tp126
Rp127
ag3
(g7
S'\x98;\xb1\xa1\xaf\xba\xab?'
p128
tp129
Rp130
asS'smass10'
p131
cnumpy.core.multiarray
_reconstruct
p132
(cpynbody.array
SimArray
p133
(I0
tp134
S'b'
p135
tp136
Rp137
(ccopy_reg
_reconstructor
p138
(cpynbody.units
CompositeUnit
p139
c__builtin__
object
p140
Ntp141
Rp142
(dp143
S'_powers'
p144
(lp145
cfractions
Fraction
p146
(S'1'
p147
tp148
Rp149
asS'_scale'
p150
I1
sS'_bases'
p151
(lp152
cpynbody.units
_resurrect_named_unit
p153
(S'Msol'
p154
S'M_{\\odot}'
p155
g138
(g139
g140
Ntp156
Rp157
(dp158
g144
(lp159
I1
asg150
F1.98892e+30
sg151
(lp160
g153
(S'kg'
p161
NNtp162
Rp163
asbtp164
Rp165
asbI1
(tg7
I00
S';BM\x87\xe8\xdd\xc5A'
p166
tp167
bsS'bharray'
p168
(lp169
I0
aI0
aI0
aI0
aI0
aI0
aI0
aI0
aI0
aI0
aI0
aI0
aI0
asS'gasarray'
p170
(lp171
g3
(g7
S'\xf6\x03\xf0\x86\x13*\xa1A'
p172
tp173
Rp174
ag3
(g7
S'm\x99w\x06\x9cn\x83A'
p175
tp176
Rp177
ag3
(g7
S'1V\x08\xc7X\xbc\x93A'
p178
tp179
Rp180
ag3
(g7
S'\xc1\xf5\xf9\xc88\xa1\x94A'
p181
tp182
Rp183
ag3
(g7
S'\xad\x8aj\xcd\xb2]\x9cA'
p184
tp185
Rp186
ag3
(g7
S'%\xf4w\xe5\xcf\xc5\x96A'
p187
tp188
Rp189
ag3
(g7
S'f\xe8\x92\xb7E\xc1\x9bA'
p190
tp191
Rp192
ag3
(g7
S'\xc1\xe4*ck\xb0wA'
p193
tp194
Rp195
ag3
(g7
S'+\xff\x96\xf5Z\xb6\x90A'
p196
tp197
Rp198
ag3
(g7
S'\xeb\xdb-\x00/\x87\xa2A'
p199
tp200
Rp201
ag3
(g7
S'{~\rt\xb4\x9a\xa2A'
p202
tp203
Rp204
ag3
(g7
S'2\xd3Ob\xf6\x93\xabA'
p205
tp206
Rp207
ag3
(g7
S')\xc1\xfdC\xca\xad\x80A'
p208
tp209
Rp210
asS'redshiftarray'
p211
(lp212
F4.561225338906956
aF4.0219197196751315
aF3.595906673044489
aF3.249222482242713
aF2.9604880271712473
aF2.71551790099832
aF2.5044983646771204
aF2.320405534120926
aF2.158068630365731
aF2.013589558582861
aF1.8839693699809175
aF1.7668599804832716
aF1.6603944899299403
asS'surfden1kpc'
p213
(lp214
g132
(g133
(I0
tp215
g135
tp216
Rp217
(g138
(g139
g140
Ntp218
Rp219
(dp220
g144
(lp221
g146
(g147
tp222
Rp223
asg150
I1
sg151
(lp224
g165
asbI1
(tg7
I00
S'\xddHN\x9bg\x11IA'
p225
tp226
bag132
(g133
(I0
tp227
g135
tp228
Rp229
(g138
(g139
g140
Ntp230
Rp231
(dp232
g144
(lp233
g146
(g147
tp234
Rp235
asg150
I1
sg151
(lp236
g165
asbI1
(tg7
I00
S'8A\xeb\x830bEA'
p237
tp238
bag132
(g133
(I0
tp239
g135
tp240
Rp241
(g138
(g139
g140
Ntp242
Rp243
(dp244
g144
(lp245
g146
(g147
tp246
Rp247
asg150
I1
sg151
(lp248
g165
asbI1
(tg7
I00
S'O\x85\x1c\xbd\xd1\xad@A'
p249
tp250
bag132
(g133
(I0
tp251
g135
tp252
Rp253
(g138
(g139
g140
Ntp254
Rp255
(dp256
g144
(lp257
g146
(g147
tp258
Rp259
asg150
I1
sg151
(lp260
g165
asbI1
(tg7
I00
S'\xf0\xdb\xf6\x0e\xc3\x1e_A'
p261
tp262
bag132
(g133
(I0
tp263
g135
tp264
Rp265
(g138
(g139
g140
Ntp266
Rp267
(dp268
g144
(lp269
g146
(g147
tp270
Rp271
asg150
I1
sg151
(lp272
g165
asbI1
(tg7
I00
S'\xfd$/C\xc7\xa5aA'
p273
tp274
bag132
(g133
(I0
tp275
g135
tp276
Rp277
(g138
(g139
g140
Ntp278
Rp279
(dp280
g144
(lp281
g146
(g147
tp282
Rp283
asg150
I1
sg151
(lp284
g165
asbI1
(tg7
I00
S'1\xe8G\xa2P\x9bcA'
p285
tp286
bag132
(g133
(I0
tp287
g135
tp288
Rp289
(g138
(g139
g140
Ntp290
Rp291
(dp292
g144
(lp293
g146
(g147
tp294
Rp295
asg150
I1
sg151
(lp296
g165
asbI1
(tg7
I00
S'\x1e\x06\xf9\xc2*\x1ceA'
p297
tp298
bag132
(g133
(I0
tp299
g135
tp300
Rp301
(g138
(g139
g140
Ntp302
Rp303
(dp304
g144
(lp305
g146
(g147
tp306
Rp307
asg150
I1
sg151
(lp308
g165
asbI1
(tg7
I00
S'T1\xa7\x95\x95ciA'
p309
tp310
bag132
(g133
(I0
tp311
g135
tp312
Rp313
(g138
(g139
g140
Ntp314
Rp315
(dp316
g144
(lp317
g146
(g147
tp318
Rp319
asg150
I1
sg151
(lp320
g165
asbI1
(tg7
I00
S'\xf8\x87\x87\x1f\x0e*kA'
p321
tp322
bag132
(g133
(I0
tp323
g135
tp324
Rp325
(g138
(g139
g140
Ntp326
Rp327
(dp328
g144
(lp329
g146
(g147
tp330
Rp331
asg150
I1
sg151
(lp332
g165
asbI1
(tg7
I00
S'\xf2-\x11W\x8b\xcapA'
p333
tp334
bag132
(g133
(I0
tp335
g135
tp336
Rp337
(g138
(g139
g140
Ntp338
Rp339
(dp340
g144
(lp341
g146
(g147
tp342
Rp343
asg150
I1
sg151
(lp344
g165
asbI1
(tg7
I00
S'[\x9e\xf0T\x989sA'
p345
tp346
bag132
(g133
(I0
tp347
g135
tp348
Rp349
(g138
(g139
g140
Ntp350
Rp351
(dp352
g144
(lp353
g146
(g147
tp354
Rp355
asg150
I1
sg151
(lp356
g165
asbI1
(tg7
I00
S'\xa9\xad\x99U!\xf6yA'
p357
tp358
bag132
(g133
(I0
tp359
g135
tp360
Rp361
(g142
I1
(tg7
I00
S'8ca\x01^\x14yA'
p362
tp363
basS'outflowarray'
p364
(lp365
g3
(g7
S'\xa1\x15\xb0\xact\xd7\x1d@'
p366
tp367
Rp368
ag3
(g7
S'+\xa7\x9e\nez\xe4?'
p369
tp370
Rp371
ag3
(g7
S'jN~\xa9\x96\xe2\t@'
p372
tp373
Rp374
ag3
(g7
S'\xdd\x9e\x00O"\x0f\x0c@'
p375
tp376
Rp377
ag3
(g7
S'\x06b>\xd1\xfd\x81\x0e@'
p378
tp379
Rp380
ag3
(g7
S'\xb6c\xb8\xfet\xdf\t@'
p381
tp382
Rp383
ag3
(g7
S'\x0fN07\xd0?\x19@'
p384
tp385
Rp386
ag3
(g7
S'\xaa\x97R\xf3\x08\x14\xf0?'
p387
tp388
Rp389
ag3
(g7
S'\x15\x89\x04uB]\x04@'
p390
tp391
Rp392
ag3
(g7
S'\xc7=\x93\xc1|\xe0\x1b@'
p393
tp394
Rp395
ag3
(g7
S'\x85J\x80\xa4F\x8a#@'
p396
tp397
Rp398
ag3
(g7
S'a\xd7\xd3c\xcd\x18(@'
p399
tp400
Rp401
ag3
(g7
S'\xf0L\xed\xb9\xc2#\x02@'
p402
tp403
Rp404
asS'smass'
p405
g132
(g133
(I0
tp406
g135
tp407
Rp408
(g142
I1
(tg7
I00
S')\xc2\xd1k\x8b\xb2\x93A'
p409
tp410
bsS'inflowarray'
p411
(lp412
g3
(g7
S'\x90M\xea\x01\x05\x08\x08@'
p413
tp414
Rp415
ag3
(g7
S'\xfd\xb5umU\xe3\x03@'
p416
tp417
Rp418
ag3
(g7
S'\xd5\xe8\t*\x10\xfa\t@'
p419
tp420
Rp421
ag3
(g7
S':\r\x0e\xb5Y\x1f\x11@'
p422
tp423
Rp424
ag3
(g7
S'\x97\x00\xf7\xc2\xbc\x84\x18@'
p425
tp426
Rp427
ag3
(g7
S'Y\xc2\xc1>\xef\xf9\t@'
p428
tp429
Rp430
ag3
(g7
S'\x8c\xedo\x18\xd01\x11@'
p431
tp432
Rp433
ag3
(g7
S'\xff\x81\x16\xcd\x94\xed\xf2?'
p434
tp435
Rp436
ag3
(g7
S'\x87\xea\xab\xe9p7\x0f@'
p437
tp438
Rp439
ag3
(g7
S'\xff\x1d\x11\xb0\xb1\x9b"@'
p440
tp441
Rp442
ag3
(g7
S'iC\xf8<f\x1d!@'
p443
tp444
Rp445
ag3
(g7
S'Ix\xf1f\xfc\xd3"@'
p446
tp447
Rp448
ag3
(g7
S'\x1d\xcb\xc5\xacb\xd9\xf5?'
p449
tp450
Rp451
asS'ssfr'
p452
(lp453
g3
(g7
S'\xf3\x91\xf4"\xf9v\xe4?'
p454
tp455
Rp456
ag3
(g7
S'\xd5LU\x18\xfe\x86\x99?'
p457
tp458
Rp459
ag3
(g7
S'pf\x05\xac\x04\x97\x06@'
p460
tp461
Rp462
ag3
(g7
S'\xc0y5^\xda\xe6\xf0?'
p463
tp464
Rp465
ag3
(g7
S'\xff^\x0b}\xfe5\xf1?'
p466
tp467
Rp468
ag3
(g7
S'\xfe\xc7\x16\xaeN\xa7\xd2?'
p469
tp470
Rp471
ag3
(g7
S'\xbc\xd7\xd8\x82 \xc8\xd0?'
p472
tp473
Rp474
ag3
(g7
S'5\xe6\xab\xa6\xb6X\xf0?'
p475
tp476
Rp477
ag3
(g7
S'\xe3E\xa2AE\xc6\xf0?'
p478
tp479
Rp480
ag3
(g7
S'6\xca6Z9b\xe1?'
p481
tp482
Rp483
ag3
(g7
S'\x86\xac\x00\xb6\xa8C\xd1?'
p484
tp485
Rp486
ag3
(g7
S'\xcb\xed&\xed\x12\xbd\xe7?'
p487
tp488
Rp489
ag3
(g7
S'\x1f\xdf\xa0:5,\xe9?'
p490
tp491
Rp492
as.