(dp0
S'dm'
p1
(lp2
cnumpy.core.multiarray
scalar
p3
(cnumpy
dtype
p4
(S'f8'
p5
I0
I1
tp6
Rp7
(I3
S'<'
p8
NNNI-1
I-1
I0
tp9
bS'\xbf\x82\xdcT\x10\xe3\xadA'
p10
tp11
Rp12
ag3
(g7
S'\xb8\xe5\xe7\x01\x9e\xe2\xb5A'
p13
tp14
Rp15
ag3
(g7
S'\xfd\x85\xc3Z!\x0e\xb0A'
p16
tp17
Rp18
ag3
(g7
S'Q\xf4#d\xeb\xf6\xbdA'
p19
tp20
Rp21
ag3
(g7
S'\x16\xe9HX\x05\xca\xb9A'
p22
tp23
Rp24
ag3
(g7
S'\x8e\xa9\xef\xa0\xc0\xdb\xb8A'
p25
tp26
Rp27
ag3
(g7
S';\xdd\xe4@\xd0\xda\xb6A'
p28
tp29
Rp30
ag3
(g7
S'\xc7\xbd\xfcj\xd5\xc4\xb5A'
p31
tp32
Rp33
ag3
(g7
S'I\x0e\\\xa4\xb5\xc2\xb4A'
p34
tp35
Rp36
ag3
(g7
S'TE\xb2\x9a,\xa9\xb6A'
p37
tp38
Rp39
ag3
(g7
S',\x05\xd0\xd7\x98\xf8\xb6A'
p40
tp41
Rp42
ag3
(g7
S"'f\x06\x96\xb3Q\xbaA"
p43
tp44
Rp45
ag3
(g7
S'\t\rJ\x8d\x17>\xb7A'
p46
tp47
Rp48
ag3
(g7
S'\x87\xbc\xeaS7@\xb8A'
p49
tp50
Rp51
ag3
(g7
S'>)+\x1b\x99z\xb9A'
p52
tp53
Rp54
ag3
(g7
S'\xdf~,\xbf\xdf\x98\xb3A'
p55
tp56
Rp57
ag3
(g7
S'\xda\xb7\xb4\x0e]\xb2\x9fA'
p58
tp59
Rp60
asS'star'
p61
(lp62
g3
(g7
S'\x19\x14\xb5\xc67\xb0cA'
p63
tp64
Rp65
ag3
(g7
S'r\xae\x93\x1bk\xcb`A'
p66
tp67
Rp68
ag3
(g7
S'\xa4\x80\xb46\x043ZA'
p69
tp70
Rp71
ag3
(g7
S'\x0cU\x15\x88\x14qxA'
p72
tp73
Rp74
ag3
(g7
S'k\xb1\x8by\x82\xb8{A'
p75
tp76
Rp77
ag3
(g7
S's\xf3\xa2OR\xcc~A'
p78
tp79
Rp80
ag3
(g7
S'\xc5\xf0\xf1@l\x94\x80A'
p81
tp82
Rp83
ag3
(g7
S'\xe2\xc0%\xf7\xc2\xf0\x83A'
p84
tp85
Rp86
ag3
(g7
S'\x11r\x99\xc0\xb3U\x85A'
p87
tp88
Rp89
ag3
(g7
S'\xb68G9#`\x8aA'
p90
tp91
Rp92
ag3
(g7
S'\xde&\xad\xcb\xd22\x8eA'
p93
tp94
Rp95
ag3
(g7
S'\xb343\xc4\xdbc\x94A'
p96
tp97
Rp98
ag3
(g7
S'9\xc2\xd1k\x8b\xb2\x93A'
p99
tp100
Rp101
ag3
(g7
S'\xf4\xd2\x07\xee\x9cd\x9bA'
p102
tp103
Rp104
ag3
(g7
S'?\r\x07\xef\xecD\x9cA'
p105
tp106
Rp107
ag3
(g7
S'\x93Vp\x87t\x8e\x85A'
p108
tp109
Rp110
ag3
(g7
S'E\x08\x1e>y\xf2TA'
p111
tp112
Rp113
asS'sfr'
p114
(lp115
g3
(g7
S'\xdb\xe1\x9aLb\x88v?'
p116
tp117
Rp118
ag3
(g7
S",\xc4\x96\x83\xcf\xf9'?"
p119
tp120
Rp121
ag3
(g7
S'H<\x17\x7f\x8d\x8c\x90?'
p122
tp123
Rp124
ag3
(g7
S'\x8f\xc1P\xf8I\x1a\x97?'
p125
tp126
Rp127
ag3
(g7
S'\xc9\xaf\xb8lk\xae\x9a?'
p128
tp129
Rp130
ag3
(g7
S'\xcd\xbe\x87\xf0c\x10\x80?'
p131
tp132
Rp133
ag3
(g7
S'"\xc7\xf45\xcf\x1e\x7f?'
p134
tp135
Rp136
ag3
(g7
S'7\xad\xff\xa5\x97:\xa2?'
p137
tp138
Rp139
ag3
(g7
S'i\xec\x81<\x9c\x03\xa4?'
p140
tp141
Rp142
ag3
(g7
S'\xbd\x9ecP3\xa4\x99?'
p143
tp144
Rp145
ag3
(g7
S'6\x96\xa0\xe1\x06(\x8d?'
p146
tp147
Rp148
ag3
(g7
S'gc\xc9\xf1\xa8\x11\xab?'
p149
tp150
Rp151
ag3
(g7
S'\x98;\xb1\xa1\xaf\xba\xab?'
p152
tp153
Rp154
ag3
(g7
S'\x1a\x02\xd8\x86p\xbf\xb2?'
p155
tp156
Rp157
ag3
(g7
S'\xc2\xb7\xbet\xfe\xa0\xa6?'
p158
tp159
Rp160
ag3
(g7
S'T\xd8\xff\xf3\x86MX?'
p161
tp162
Rp163
aI0
asS'smass10'
p164
cnumpy.core.multiarray
_reconstruct
p165
(cpynbody.array
SimArray
p166
(I0
tp167
S'b'
p168
tp169
Rp170
(ccopy_reg
_reconstructor
p171
(cpynbody.units
CompositeUnit
p172
c__builtin__
object
p173
Ntp174
Rp175
(dp176
S'_powers'
p177
(lp178
cfractions
Fraction
p179
(S'1'
p180
tp181
Rp182
asS'_scale'
p183
I1
sS'_bases'
p184
(lp185
cpynbody.units
_resurrect_named_unit
p186
(S'Msol'
p187
S'M_{\\odot}'
p188
g171
(g172
g173
Ntp189
Rp190
(dp191
g177
(lp192
I1
asg183
F1.98892e+30
sg184
(lp193
g186
(S'kg'
p194
NNtp195
Rp196
asbtp197
Rp198
asbI1
(tg7
I00
S'AXL1}\xfd\xc0A'
p199
tp200
bsS'bharray'
p201
(lp202
I0
aI0
aI0
aI0
aI0
aI0
aI0
aI0
aI0
aI0
aI0
aI0
aI0
aI0
aI0
aI0
aI0
asS'gasarray'
p203
(lp204
g3
(g7
S'\xf6\x03\xf0\x86\x13*\xa1A'
p205
tp206
Rp207
ag3
(g7
S'm\x99w\x06\x9cn\x83A'
p208
tp209
Rp210
ag3
(g7
S'1V\x08\xc7X\xbc\x93A'
p211
tp212
Rp213
ag3
(g7
S'\xc1\xf5\xf9\xc88\xa1\x94A'
p214
tp215
Rp216
ag3
(g7
S'\xad\x8aj\xcd\xb2]\x9cA'
p217
tp218
Rp219
ag3
(g7
S'%\xf4w\xe5\xcf\xc5\x96A'
p220
tp221
Rp222
ag3
(g7
S'f\xe8\x92\xb7E\xc1\x9bA'
p223
tp224
Rp225
ag3
(g7
S'\xc1\xe4*ck\xb0wA'
p226
tp227
Rp228
ag3
(g7
S'+\xff\x96\xf5Z\xb6\x90A'
p229
tp230
Rp231
ag3
(g7
S'\xeb\xdb-\x00/\x87\xa2A'
p232
tp233
Rp234
ag3
(g7
S'{~\rt\xb4\x9a\xa2A'
p235
tp236
Rp237
ag3
(g7
S'2\xd3Ob\xf6\x93\xabA'
p238
tp239
Rp240
ag3
(g7
S')\xc1\xfdC\xca\xad\x80A'
p241
tp242
Rp243
ag3
(g7
S'\xcb\x02\xc0(g"\xa4A'
p244
tp245
Rp246
ag3
(g7
S'\xdf\x80q\xef8\x1c\x94A'
p247
tp248
Rp249
ag3
(g7
S'\xcfa\xcd\x8f\xd5\xd0rA'
p250
tp251
Rp252
ag3
(g7
S'd\x1a\xe1\x05T\x19sA'
p253
tp254
Rp255
asS'redshiftarray'
p256
(lp257
F4.561225338906956
aF4.0219197196751315
aF3.595906673044489
aF3.249222482242713
aF2.9604880271712473
aF2.71551790099832
aF2.5044983646771204
aF2.320405534120926
aF2.158068630365731
aF2.013589558582861
aF1.8839693699809175
aF1.7668599804832716
aF1.6603944899299403
aF1.5630683748162806
aF1.4736545109946966
aF1.3911412352835408
aF1.3146864327771066
asS'surfden1kpc'
p258
(lp259
g165
(g166
(I0
tp260
g168
tp261
Rp262
(g171
(g172
g173
Ntp263
Rp264
(dp265
g177
(lp266
g179
(g180
tp267
Rp268
asg183
I1
sg184
(lp269
g198
asbI1
(tg7
I00
S'\xddHN\x9bg\x11IA'
p270
tp271
bag165
(g166
(I0
tp272
g168
tp273
Rp274
(g171
(g172
g173
Ntp275
Rp276
(dp277
g177
(lp278
g179
(g180
tp279
Rp280
asg183
I1
sg184
(lp281
g198
asbI1
(tg7
I00
S'8A\xeb\x830bEA'
p282
tp283
bag165
(g166
(I0
tp284
g168
tp285
Rp286
(g171
(g172
g173
Ntp287
Rp288
(dp289
g177
(lp290
g179
(g180
tp291
Rp292
asg183
I1
sg184
(lp293
g198
asbI1
(tg7
I00
S'O\x85\x1c\xbd\xd1\xad@A'
p294
tp295
bag165
(g166
(I0
tp296
g168
tp297
Rp298
(g171
(g172
g173
Ntp299
Rp300
(dp301
g177
(lp302
g179
(g180
tp303
Rp304
asg183
I1
sg184
(lp305
g198
asbI1
(tg7
I00
S'\xf0\xdb\xf6\x0e\xc3\x1e_A'
p306
tp307
bag165
(g166
(I0
tp308
g168
tp309
Rp310
(g171
(g172
g173
Ntp311
Rp312
(dp313
g177
(lp314
g179
(g180
tp315
Rp316
asg183
I1
sg184
(lp317
g198
asbI1
(tg7
I00
S'\xfd$/C\xc7\xa5aA'
p318
tp319
bag165
(g166
(I0
tp320
g168
tp321
Rp322
(g171
(g172
g173
Ntp323
Rp324
(dp325
g177
(lp326
g179
(g180
tp327
Rp328
asg183
I1
sg184
(lp329
g198
asbI1
(tg7
I00
S'1\xe8G\xa2P\x9bcA'
p330
tp331
bag165
(g166
(I0
tp332
g168
tp333
Rp334
(g171
(g172
g173
Ntp335
Rp336
(dp337
g177
(lp338
g179
(g180
tp339
Rp340
asg183
I1
sg184
(lp341
g198
asbI1
(tg7
I00
S'\x1e\x06\xf9\xc2*\x1ceA'
p342
tp343
bag165
(g166
(I0
tp344
g168
tp345
Rp346
(g171
(g172
g173
Ntp347
Rp348
(dp349
g177
(lp350
g179
(g180
tp351
Rp352
asg183
I1
sg184
(lp353
g198
asbI1
(tg7
I00
S'T1\xa7\x95\x95ciA'
p354
tp355
bag165
(g166
(I0
tp356
g168
tp357
Rp358
(g171
(g172
g173
Ntp359
Rp360
(dp361
g177
(lp362
g179
(g180
tp363
Rp364
asg183
I1
sg184
(lp365
g198
asbI1
(tg7
I00
S'\xf8\x87\x87\x1f\x0e*kA'
p366
tp367
bag165
(g166
(I0
tp368
g168
tp369
Rp370
(g171
(g172
g173
Ntp371
Rp372
(dp373
g177
(lp374
g179
(g180
tp375
Rp376
asg183
I1
sg184
(lp377
g198
asbI1
(tg7
I00
S'\xf2-\x11W\x8b\xcapA'
p378
tp379
bag165
(g166
(I0
tp380
g168
tp381
Rp382
(g171
(g172
g173
Ntp383
Rp384
(dp385
g177
(lp386
g179
(g180
tp387
Rp388
asg183
I1
sg184
(lp389
g198
asbI1
(tg7
I00
S'[\x9e\xf0T\x989sA'
p390
tp391
bag165
(g166
(I0
tp392
g168
tp393
Rp394
(g171
(g172
g173
Ntp395
Rp396
(dp397
g177
(lp398
g179
(g180
tp399
Rp400
asg183
I1
sg184
(lp401
g198
asbI1
(tg7
I00
S'\xa9\xad\x99U!\xf6yA'
p402
tp403
bag165
(g166
(I0
tp404
g168
tp405
Rp406
(g171
(g172
g173
Ntp407
Rp408
(dp409
g177
(lp410
g179
(g180
tp411
Rp412
asg183
I1
sg184
(lp413
g198
asbI1
(tg7
I00
S'8ca\x01^\x14yA'
p414
tp415
bag165
(g166
(I0
tp416
g168
tp417
Rp418
(g171
(g172
g173
Ntp419
Rp420
(dp421
g177
(lp422
g179
(g180
tp423
Rp424
asg183
I1
sg184
(lp425
g198
asbI1
(tg7
I00
S'^b\x8e;^p\x81A'
p426
tp427
bag165
(g166
(I0
tp428
g168
tp429
Rp430
(g171
(g172
g173
Ntp431
Rp432
(dp433
g177
(lp434
g179
(g180
tp435
Rp436
asg183
I1
sg184
(lp437
g198
asbI1
(tg7
I00
S'\xeat*}+\xff\x81A'
p438
tp439
bag165
(g166
(I0
tp440
g168
tp441
Rp442
(g171
(g172
g173
Ntp443
Rp444
(dp445
g177
(lp446
g179
(g180
tp447
Rp448
asg183
I1
sg184
(lp449
g198
asbI1
(tg7
I00
S'\x17\x83x\xbcPrkA'
p450
tp451
bag165
(g166
(I0
tp452
g168
tp453
Rp454
(g175
I1
(tg7
I00
S'\x8f\x1d\xae\xa4\xb6\xab:A'
p455
tp456
basS'outflowarray'
p457
(lp458
g3
(g7
S'\xa1\x15\xb0\xact\xd7\x1d@'
p459
tp460
Rp461
ag3
(g7
S'+\xa7\x9e\nez\xe4?'
p462
tp463
Rp464
ag3
(g7
S'jN~\xa9\x96\xe2\t@'
p465
tp466
Rp467
ag3
(g7
S'\xdd\x9e\x00O"\x0f\x0c@'
p468
tp469
Rp470
ag3
(g7
S'\x06b>\xd1\xfd\x81\x0e@'
p471
tp472
Rp473
ag3
(g7
S'\xb6c\xb8\xfet\xdf\t@'
p474
tp475
Rp476
ag3
(g7
S'\x0fN07\xd0?\x19@'
p477
tp478
Rp479
ag3
(g7
S'\xaa\x97R\xf3\x08\x14\xf0?'
p480
tp481
Rp482
ag3
(g7
S'\x15\x89\x04uB]\x04@'
p483
tp484
Rp485
ag3
(g7
S'\xc7=\x93\xc1|\xe0\x1b@'
p486
tp487
Rp488
ag3
(g7
S'\x85J\x80\xa4F\x8a#@'
p489
tp490
Rp491
ag3
(g7
S'a\xd7\xd3c\xcd\x18(@'
p492
tp493
Rp494
ag3
(g7
S'\xf0L\xed\xb9\xc2#\x02@'
p495
tp496
Rp497
ag3
(g7
S'm/V\x9b]\xe6 @'
p498
tp499
Rp500
ag3
(g7
S'\xcc\xfc\xc3\x8a\x00H @'
p501
tp502
Rp503
ag3
(g7
S'\rB\\7\x1f{\xcb?'
p504
tp505
Rp506
ag3
(g7
S'\xcd@\xe4GH\x18\xd2?'
p507
tp508
Rp509
asS'smass'
p510
g165
(g166
(I0
tp511
g168
tp512
Rp513
(g175
I1
(tg7
I00
S'F\x08\x1e>y\xf2TA'
p514
tp515
bsS'inflowarray'
p516
(lp517
g3
(g7
S'\x90M\xea\x01\x05\x08\x08@'
p518
tp519
Rp520
ag3
(g7
S'\xfd\xb5umU\xe3\x03@'
p521
tp522
Rp523
ag3
(g7
S'\xd5\xe8\t*\x10\xfa\t@'
p524
tp525
Rp526
ag3
(g7
S':\r\x0e\xb5Y\x1f\x11@'
p527
tp528
Rp529
ag3
(g7
S'\x97\x00\xf7\xc2\xbc\x84\x18@'
p530
tp531
Rp532
ag3
(g7
S'Y\xc2\xc1>\xef\xf9\t@'
p533
tp534
Rp535
ag3
(g7
S'\x8c\xedo\x18\xd01\x11@'
p536
tp537
Rp538
ag3
(g7
S'\xff\x81\x16\xcd\x94\xed\xf2?'
p539
tp540
Rp541
ag3
(g7
S'\x87\xea\xab\xe9p7\x0f@'
p542
tp543
Rp544
ag3
(g7
S'\xff\x1d\x11\xb0\xb1\x9b"@'
p545
tp546
Rp547
ag3
(g7
S'iC\xf8<f\x1d!@'
p548
tp549
Rp550
ag3
(g7
S'Ix\xf1f\xfc\xd3"@'
p551
tp552
Rp553
ag3
(g7
S'\x1d\xcb\xc5\xacb\xd9\xf5?'
p554
tp555
Rp556
ag3
(g7
S'\x82\xdbk\x05?E\x1c@'
p557
tp558
Rp559
ag3
(g7
S'\xa5\xa6\x06\x06\xb7z\x16@'
p560
tp561
Rp562
ag3
(g7
S'\xb5\x88i\xca\xd5\xfd\xfc?'
p563
tp564
Rp565
ag3
(g7
S'\x9esBA?V\x07@'
p566
tp567
Rp568
asS'ssfr'
p569
(lp570
g3
(g7
S'\xf3\x91\xf4"\xf9v\xe4?'
p571
tp572
Rp573
ag3
(g7
S'\xd5LU\x18\xfe\x86\x99?'
p574
tp575
Rp576
ag3
(g7
S'pf\x05\xac\x04\x97\x06@'
p577
tp578
Rp579
ag3
(g7
S'\xc0y5^\xda\xe6\xf0?'
p580
tp581
Rp582
ag3
(g7
S'\xff^\x0b}\xfe5\xf1?'
p583
tp584
Rp585
ag3
(g7
S'\xfe\xc7\x16\xaeN\xa7\xd2?'
p586
tp587
Rp588
ag3
(g7
S'\xbc\xd7\xd8\x82 \xc8\xd0?'
p589
tp590
Rp591
ag3
(g7
S'5\xe6\xab\xa6\xb6X\xf0?'
p592
tp593
Rp594
ag3
(g7
S'\xe3E\xa2AE\xc6\xf0?'
p595
tp596
Rp597
ag3
(g7
S'6\xca6Z9b\xe1?'
p598
tp599
Rp600
ag3
(g7
S'\x86\xac\x00\xb6\xa8C\xd1?'
p601
tp602
Rp603
ag3
(g7
S'\xcb\xed&\xed\x12\xbd\xe7?'
p604
tp605
Rp606
ag3
(g7
S'\x1f\xdf\xa0:5,\xe9?'
p607
tp608
Rp609
ag3
(g7
S'Cf\\\xe9\xe0y\xe8?'
p610
tp611
Rp612
ag3
(g7
S'\xd6\xafzw\x96\xa0\xdc?'
p613
tp614
Rp615
ag3
(g7
S'\xf3k\x88I\xd8(\xa4?'
p616
tp617
Rp618
ag165
(g166
(I0
tp619
g168
tp620
Rp621
(g171
(g172
g173
Ntp622
Rp623
(dp624
g177
(lp625
g179
(S'-1'
p626
tp627
Rp628
asg183
F1.0
sg184
(lp629
g198
asbI1
(tg7
I00
S'\x00\x00\x00\x00\x00\x00\x00\x00'
p630
tp631
bas.