(dp0
S'g7.55e11'
p1
(dp2
S'mbh'
p3
(lp4
I0
aI0
aI0
aI0
aI0
aI0
aI0
acnumpy.core.multiarray
_reconstruct
p5
(cpynbody.array
SimArray
p6
(I0
tp7
S'b'
p8
tp9
Rp10
(ccopy_reg
_reconstructor
p11
(cpynbody.units
CompositeUnit
p12
c__builtin__
object
p13
Ntp14
Rp15
(dp16
S'_powers'
p17
(lp18
I1
asS'_scale'
p19
I1
sS'_bases'
p20
(lp21
cpynbody.units
_resurrect_named_unit
p22
(S'Msol'
p23
S'M_{\\odot}'
p24
g11
(g12
g13
Ntp25
Rp26
(dp27
g17
(lp28
I1
asg19
F1.98892e+30
sg20
(lp29
g22
(S'kg'
p30
NNtp31
Rp32
asbtp33
Rp34
asbI1
(tcnumpy
dtype
p35
(S'f8'
p36
I0
I1
tp37
Rp38
(I3
S'<'
p39
NNNI-1
I-1
I0
tp40
bI00
S'y}\x93V\xa3\x88\xfd@'
p41
tp42
bag5
(g6
(I0
tp43
g8
tp44
Rp45
(g11
(g12
g13
Ntp46
Rp47
(dp48
g17
(lp49
I1
asg19
I1
sg20
(lp50
g34
asbI1
(tg38
I00
S'\xd2\xa7\xc9\xee\xce\xac\x00A'
p51
tp52
bag5
(g6
(I0
tp53
g8
tp54
Rp55
(g11
(g12
g13
Ntp56
Rp57
(dp58
g17
(lp59
I1
asg19
I1
sg20
(lp60
g34
asbI1
(tg38
I00
S'\xc9\xaeZ<\xa8\xf3\x02A'
p61
tp62
bag5
(g6
(I0
tp63
g8
tp64
Rp65
(g11
(g12
g13
Ntp66
Rp67
(dp68
g17
(lp69
I1
asg19
I1
sg20
(lp70
g34
asbI1
(tg38
I00
S'\xba\xa9Eae\x16\x05A'
p71
tp72
bag5
(g6
(I0
tp73
g8
tp74
Rp75
(g11
(g12
g13
Ntp76
Rp77
(dp78
g17
(lp79
I1
asg19
I1
sg20
(lp80
g34
asbI1
(tg38
I00
S'\xf7>u3\x04\x9d\x07A'
p81
tp82
bag5
(g6
(I0
tp83
g8
tp84
Rp85
(g11
(g12
g13
Ntp86
Rp87
(dp88
g17
(lp89
I1
asg19
I1
sg20
(lp90
g34
asbI1
(tg38
I00
S'X\x17\xf6\xd5\x88~\nA'
p91
tp92
bag5
(g6
(I0
tp93
g8
tp94
Rp95
(g11
(g12
g13
Ntp96
Rp97
(dp98
g17
(lp99
I1
asg19
I1
sg20
(lp100
g34
asbI1
(tg38
I00
S'\xce\xf5U\xfez\xb3\x0cA'
p101
tp102
bag5
(g6
(I0
tp103
g8
tp104
Rp105
(g11
(g12
g13
Ntp106
Rp107
(dp108
g17
(lp109
I1
asg19
I1
sg20
(lp110
g34
asbI1
(tg38
I00
S'\xa4\xc7y \x18"\x0eA'
p111
tp112
bag5
(g6
(I0
tp113
g8
tp114
Rp115
(g11
(g12
g13
Ntp116
Rp117
(dp118
g17
(lp119
I1
asg19
I1
sg20
(lp120
g34
asbI1
(tg38
I00
S'\x96h\xe5O\xd9\x96\x10A'
p121
tp122
bag5
(g6
(I0
tp123
g8
tp124
Rp125
(g11
(g12
g13
Ntp126
Rp127
(dp128
g17
(lp129
I1
asg19
I1
sg20
(lp130
g34
asbI1
(tg38
I00
S'\x01\x0b\xb0o\xb8\xb4 A'
p131
tp132
bag5
(g6
(I0
tp133
g8
tp134
Rp135
(g11
(g12
g13
Ntp136
Rp137
(dp138
g17
(lp139
I1
asg19
I1
sg20
(lp140
g34
asbI1
(tg38
I00
S'\n\xbcM4\xdf\xa4"A'
p141
tp142
bag5
(g6
(I0
tp143
g8
tp144
Rp145
(g11
(g12
g13
Ntp146
Rp147
(dp148
g17
(lp149
I1
asg19
I1
sg20
(lp150
g34
asbI1
(tg38
I00
S'\xc9\xc6-\xdeD($A'
p151
tp152
bag5
(g6
(I0
tp153
g8
tp154
Rp155
(g11
(g12
g13
Ntp156
Rp157
(dp158
g17
(lp159
I1
asg19
I1
sg20
(lp160
g34
asbI1
(tg38
I00
S'\xf5y\xab\xb9\xc1\xa3%A'
p161
tp162
bag5
(g6
(I0
tp163
g8
tp164
Rp165
(g11
(g12
g13
Ntp166
Rp167
(dp168
g17
(lp169
I1
asg19
I1
sg20
(lp170
g34
asbI1
(tg38
I00
S"\x82\xf4\xd7C\xa9\xc2'A"
p171
tp172
bag5
(g6
(I0
tp173
g8
tp174
Rp175
(g11
(g12
g13
Ntp176
Rp177
(dp178
g17
(lp179
I1
asg19
I1
sg20
(lp180
g34
asbI1
(tg38
I00
S'\xc9\xcbq\xfc\x15W*A'
p181
tp182
bag5
(g6
(I0
tp183
g8
tp184
Rp185
(g11
(g12
g13
Ntp186
Rp187
(dp188
g17
(lp189
I1
asg19
I1
sg20
(lp190
g34
asbI1
(tg38
I00
S'\x1a\xe9\x9b\x1a\x0eo.A'
p191
tp192
bag5
(g6
(I0
tp193
g8
tp194
Rp195
(g11
(g12
g13
Ntp196
Rp197
(dp198
g17
(lp199
I1
asg19
I1
sg20
(lp200
g34
asbI1
(tg38
I00
S'\x10\xd8\x93\x8e\xa8\x811A'
p201
tp202
bag5
(g6
(I0
tp203
g8
tp204
Rp205
(g11
(g12
g13
Ntp206
Rp207
(dp208
g17
(lp209
I1
asg19
I1
sg20
(lp210
g34
asbI1
(tg38
I00
S'?L\xd5.\x97\x1f4A'
p211
tp212
bag5
(g6
(I0
tp213
g8
tp214
Rp215
(g11
(g12
g13
Ntp216
Rp217
(dp218
g17
(lp219
I1
asg19
I1
sg20
(lp220
g34
asbI1
(tg38
I00
S'\xc9\x87\xfa\xec\xfc>7A'
p221
tp222
bag5
(g6
(I0
tp223
g8
tp224
Rp225
(g11
(g12
g13
Ntp226
Rp227
(dp228
g17
(lp229
I1
asg19
I1
sg20
(lp230
g34
asbI1
(tg38
I00
S'\x98\r\xae\xf7\xec\xca<A'
p231
tp232
bag5
(g6
(I0
tp233
g8
tp234
Rp235
(g11
(g12
g13
Ntp236
Rp237
(dp238
g17
(lp239
I1
asg19
I1
sg20
(lp240
g34
asbI1
(tg38
I00
S'\xb7\x95+\xb2\xb9\xc5@A'
p241
tp242
bag5
(g6
(I0
tp243
g8
tp244
Rp245
(g11
(g12
g13
Ntp246
Rp247
(dp248
g17
(lp249
I1
asg19
I1
sg20
(lp250
g34
asbI1
(tg38
I00
S'\xe9w\xf2u[\x8dDA'
p251
tp252
bag5
(g6
(I0
tp253
g8
tp254
Rp255
(g11
(g12
g13
Ntp256
Rp257
(dp258
g17
(lp259
I1
asg19
I1
sg20
(lp260
g34
asbI1
(tg38
I00
S'3=\x023\x14\xa5HA'
p261
tp262
bag5
(g6
(I0
tp263
g8
tp264
Rp265
(g11
(g12
g13
Ntp266
Rp267
(dp268
g17
(lp269
I1
asg19
I1
sg20
(lp270
g34
asbI1
(tg38
I00
S'\x9a\xa1D6\x93\xf3TA'
p271
tp272
bag5
(g6
(I0
tp273
g8
tp274
Rp275
(g11
(g12
g13
Ntp276
Rp277
(dp278
g17
(lp279
I1
asg19
I1
sg20
(lp280
g34
asbI1
(tg38
I00
S'\xdc\x9d\xb6"\xb2\xc2ZA'
p281
tp282
bag5
(g6
(I0
tp283
g8
tp284
Rp285
(g11
(g12
g13
Ntp286
Rp287
(dp288
g17
(lp289
I1
asg19
I1
sg20
(lp290
g34
asbI1
(tg38
I00
S'2\xf7\xaa\xa1<\xdf`A'
p291
tp292
bag5
(g6
(I0
tp293
g8
tp294
Rp295
(g11
(g12
g13
Ntp296
Rp297
(dp298
g17
(lp299
I1
asg19
I1
sg20
(lp300
g34
asbI1
(tg38
I00
S'\x11\xa5\xf8M\xba]dA'
p301
tp302
bag5
(g6
(I0
tp303
g8
tp304
Rp305
(g11
(g12
g13
Ntp306
Rp307
(dp308
g17
(lp309
I1
asg19
I1
sg20
(lp310
g34
asbI1
(tg38
I00
S'\x03=\xa2\xeeO\xf3fA'
p311
tp312
bag5
(g6
(I0
tp313
g8
tp314
Rp315
(g11
(g12
g13
Ntp316
Rp317
(dp318
g17
(lp319
I1
asg19
I1
sg20
(lp320
g34
asbI1
(tg38
I00
S'\xa9\xc5\xd0\xe8\xec\xbdhA'
p321
tp322
bag5
(g6
(I0
tp323
g8
tp324
Rp325
(g11
(g12
g13
Ntp326
Rp327
(dp328
g17
(lp329
I1
asg19
I1
sg20
(lp330
g34
asbI1
(tg38
I00
S'\xf2\xfe\x94\t\xddmjA'
p331
tp332
bag5
(g6
(I0
tp333
g8
tp334
Rp335
(g11
(g12
g13
Ntp336
Rp337
(dp338
g17
(lp339
I1
asg19
I1
sg20
(lp340
g34
asbI1
(tg38
I00
S'lZ\x96%\xcd\x99kA'
p341
tp342
bag5
(g6
(I0
tp343
g8
tp344
Rp345
(g11
(g12
g13
Ntp346
Rp347
(dp348
g17
(lp349
I1
asg19
I1
sg20
(lp350
g34
asbI1
(tg38
I00
S'\xd3)0\xf2%\xd9lA'
p351
tp352
bag5
(g6
(I0
tp353
g8
tp354
Rp355
(g11
(g12
g13
Ntp356
Rp357
(dp358
g17
(lp359
I1
asg19
I1
sg20
(lp360
g34
asbI1
(tg38
I00
S'\xbcv\xdd\x0f\xbb;nA'
p361
tp362
bag5
(g6
(I0
tp363
g8
tp364
Rp365
(g11
(g12
g13
Ntp366
Rp367
(dp368
g17
(lp369
I1
asg19
I1
sg20
(lp370
g34
asbI1
(tg38
I00
S'\xaa\xd3\x0e~|\xe8nA'
p371
tp372
bag5
(g6
(I0
tp373
g8
tp374
Rp375
(g11
(g12
g13
Ntp376
Rp377
(dp378
g17
(lp379
I1
asg19
I1
sg20
(lp380
g34
asbI1
(tg38
I00
S'\xcc<\xae.\xfe\xd1oA'
p381
tp382
bag5
(g6
(I0
tp383
g8
tp384
Rp385
(g11
(g12
g13
Ntp386
Rp387
(dp388
g17
(lp389
I1
asg19
I1
sg20
(lp390
g34
asbI1
(tg38
I00
S'\x07\xbaL\xa3#\x1epA'
p391
tp392
bag5
(g6
(I0
tp393
g8
tp394
Rp395
(g11
(g12
g13
Ntp396
Rp397
(dp398
g17
(lp399
I1
asg19
I1
sg20
(lp400
g34
asbI1
(tg38
I00
S'\xdf)\xad\xb0VepA'
p401
tp402
bag5
(g6
(I0
tp403
g8
tp404
Rp405
(g11
(g12
g13
Ntp406
Rp407
(dp408
g17
(lp409
I1
asg19
I1
sg20
(lp410
g34
asbI1
(tg38
I00
S'\xf3\xd6\x0e\xca-\xbepA'
p411
tp412
bag5
(g6
(I0
tp413
g8
tp414
Rp415
(g11
(g12
g13
Ntp416
Rp417
(dp418
g17
(lp419
I1
asg19
I1
sg20
(lp420
g34
asbI1
(tg38
I00
S'\xa1\x00\x1bFI\tqA'
p421
tp422
bag5
(g6
(I0
tp423
g8
tp424
Rp425
(g11
(g12
g13
Ntp426
Rp427
(dp428
g17
(lp429
I1
asg19
I1
sg20
(lp430
g34
asbI1
(tg38
I00
S'`\xbbDR\xa1\\qA'
p431
tp432
bag5
(g6
(I0
tp433
g8
tp434
Rp435
(g11
(g12
g13
Ntp436
Rp437
(dp438
g17
(lp439
I1
asg19
I1
sg20
(lp440
g34
asbI1
(tg38
I00
S'\xf4\x0bXp\xc3\xb0qA'
p441
tp442
bag5
(g6
(I0
tp443
g8
tp444
Rp445
(g11
(g12
g13
Ntp446
Rp447
(dp448
g17
(lp449
I1
asg19
I1
sg20
(lp450
g34
asbI1
(tg38
I00
S'\xb9e\x9d\xbc\xa7\x01rA'
p451
tp452
bag5
(g6
(I0
tp453
g8
tp454
Rp455
(g11
(g12
g13
Ntp456
Rp457
(dp458
g17
(lp459
I1
asg19
I1
sg20
(lp460
g34
asbI1
(tg38
I00
S'\xf8q\x8cq\xd7crA'
p461
tp462
bag5
(g6
(I0
tp463
g8
tp464
Rp465
(g11
(g12
g13
Ntp466
Rp467
(dp468
g17
(lp469
I1
asg19
I1
sg20
(lp470
g34
asbI1
(tg38
I00
S'\x82\xa5\x18\xb6\xf0\xbcrA'
p471
tp472
bag5
(g6
(I0
tp473
g8
tp474
Rp475
(g11
(g12
g13
Ntp476
Rp477
(dp478
g17
(lp479
I1
asg19
I1
sg20
(lp480
g34
asbI1
(tg38
I00
S'*y\x84\x02 SsA'
p481
tp482
bag5
(g6
(I0
tp483
g8
tp484
Rp485
(g11
(g12
g13
Ntp486
Rp487
(dp488
g17
(lp489
I1
asg19
I1
sg20
(lp490
g34
asbI1
(tg38
I00
S'\xe9\x935s\xd7\x8bsA'
p491
tp492
bag5
(g6
(I0
tp493
g8
tp494
Rp495
(g11
(g12
g13
Ntp496
Rp497
(dp498
g17
(lp499
I1
asg19
I1
sg20
(lp500
g34
asbI1
(tg38
I00
S'\xc5M@\xb9\x13\x8atA'
p501
tp502
bag5
(g6
(I0
tp503
g8
tp504
Rp505
(g11
(g12
g13
Ntp506
Rp507
(dp508
g17
(lp509
I1
asg19
I1
sg20
(lp510
g34
asbI1
(tg38
I00
S'\x1aQ\x1eN\xd8\xcbtA'
p511
tp512
bag5
(g6
(I0
tp513
g8
tp514
Rp515
(g11
(g12
g13
Ntp516
Rp517
(dp518
g17
(lp519
I1
asg19
I1
sg20
(lp520
g34
asbI1
(tg38
I00
S"\xc5L\xeb\x1b'\x0fuA"
p521
tp522
bag5
(g6
(I0
tp523
g8
tp524
Rp525
(g11
(g12
g13
Ntp526
Rp527
(dp528
g17
(lp529
I1
asg19
I1
sg20
(lp530
g34
asbI1
(tg38
I00
S'u\x118\x03\xb40uA'
p531
tp532
bag5
(g6
(I0
tp533
g8
tp534
Rp535
(g11
(g12
g13
Ntp536
Rp537
(dp538
g17
(lp539
I1
asg19
I1
sg20
(lp540
g34
asbI1
(tg38
I00
S'\x9a}`C\x055vA'
p541
tp542
bag5
(g6
(I0
tp543
g8
tp544
Rp545
(g11
(g12
g13
Ntp546
Rp547
(dp548
g17
(lp549
I1
asg19
I1
sg20
(lp550
g34
asbI1
(tg38
I00
S'b\x80\x96\xb2\xbesvA'
p551
tp552
bag5
(g6
(I0
tp553
g8
tp554
Rp555
(g11
(g12
g13
Ntp556
Rp557
(dp558
g17
(lp559
I1
asg19
I1
sg20
(lp560
g34
asbI1
(tg38
I00
S'B\xc9\xdf\xca\xa1\xe7vA'
p561
tp562
bag5
(g6
(I0
tp563
g8
tp564
Rp565
(g11
(g12
g13
Ntp566
Rp567
(dp568
g17
(lp569
I1
asg19
I1
sg20
(lp570
g34
asbI1
(tg38
I00
S'\xc3\xe6\xa0+7swA'
p571
tp572
bag5
(g6
(I0
tp573
g8
tp574
Rp575
(g11
(g12
g13
Ntp576
Rp577
(dp578
g17
(lp579
I1
asg19
I1
sg20
(lp580
g34
asbI1
(tg38
I00
S'P}\x8a\xdfP\xa7wA'
p581
tp582
bag5
(g6
(I0
tp583
g8
tp584
Rp585
(g11
(g12
g13
Ntp586
Rp587
(dp588
g17
(lp589
I1
asg19
I1
sg20
(lp590
g34
asbI1
(tg38
I00
S'\x16\xeb\x05z\xff\x0exA'
p591
tp592
bag5
(g6
(I0
tp593
g8
tp594
Rp595
(g11
(g12
g13
Ntp596
Rp597
(dp598
g17
(lp599
I1
asg19
I1
sg20
(lp600
g34
asbI1
(tg38
I00
S'\xa6\xd5\xb0\xa9\xc7DxA'
p601
tp602
basS'z'
p603
(lp604
F16.623558052686253
aF10.383342051876113
aF7.760385909303658
aF6.261032218898561
aF5.271612154445051
aF4.561225338906955
aF4.021919719675131
aF3.595906673044489
aF3.249222482242713
aF2.9604880271712473
aF2.71551790099832
aF2.504498364677121
aF2.3204055341209258
aF2.158068630365731
aF2.013589558582861
aF1.8839693699809175
aF1.7668599804832716
aF1.6603944899299399
aF1.5630683748162806
aF1.4736545109946966
aF1.3911412352835417
aF1.3146864327771066
aF1.2435829846263102
aF1.1772324075636686
aF1.1151244920657106
aF1.056821395202224
aF1.001945084270368
aF0.9501673303644187
aF0.9012016643906815
aF0.8547968568831767
aF0.810731593960949
aF0.7688100988343307
aF0.7288585074728573
aF0.6907218501021457
aF0.6542615228075603
aF0.619353158234319
aF0.5858848232818783
aF0.5537554862750533
aF0.5228737074298768
aF0.4931565153057902
aF0.46452843892788787
aF0.4369206708132438
aF0.41027034055606837
aF0.38451988218441935
aF0.3596164813648439
aF0.33551159085792337
aF0.3121605045233309
aF0.2895219817258434
aF0.26755791527134787
aF0.24623303705755828
aF0.22551465650016955
aF0.20537242752475993
aF0.1857781405249741
aF0.16670553619946937
aF0.14813013861132895
aF0.13002910517796407
aF0.11238109160837317
aF0.09516613006722774
aF0.07836551906918454
aF0.0619617237984591
aF0.04593828571287295
aF0.030279740432948676
aF0.01497154303845405
aF1.5765166949677223e-14
asS'mstar'
p605
(lp606
g5
(g6
(I0
tp607
g8
tp608
Rp609
(g11
(g12
g13
Ntp610
Rp611
(dp612
g17
(lp613
I1
asg19
I1
sg20
(lp614
g34
asbI1
(tg38
I00
S'\x00\x00\x00\x00\x00\x00\x00\x00'
p615
tp616
bag5
(g6
(I0
tp617
g8
tp618
Rp619
(g11
(g12
g13
Ntp620
Rp621
(dp622
g17
(lp623
I1
asg19
I1
sg20
(lp624
g34
asbI1
(tg38
I00
S'\xf2\x9f\xbf\x14\x1f\x1e0A'
p625
tp626
bag5
(g6
(I0
tp627
g8
tp628
Rp629
(g11
(g12
g13
Ntp630
Rp631
(dp632
g17
(lp633
I1
asg19
I1
sg20
(lp634
g34
asbI1
(tg38
I00
S'\x06\x1b\xa8L\x02daA'
p635
tp636
bag5
(g6
(I0
tp637
g8
tp638
Rp639
(g11
(g12
g13
Ntp640
Rp641
(dp642
g17
(lp643
I1
asg19
I1
sg20
(lp644
g34
asbI1
(tg38
I00
S'\x98\x19\xb6v\x94\xb9kA'
p645
tp646
bag5
(g6
(I0
tp647
g8
tp648
Rp649
(g11
(g12
g13
Ntp650
Rp651
(dp652
g17
(lp653
I1
asg19
I1
sg20
(lp654
g34
asbI1
(tg38
I00
S'\xd3\x97^\x07Rj\x82A'
p655
tp656
bag5
(g6
(I0
tp657
g8
tp658
Rp659
(g11
(g12
g13
Ntp660
Rp661
(dp662
g17
(lp663
I1
asg19
I1
sg20
(lp664
g34
asbI1
(tg38
I00
S'\xa2\xa64l\x8d\xb8\x87A'
p665
tp666
bag5
(g6
(I0
tp667
g8
tp668
Rp669
(g11
(g12
g13
Ntp670
Rp671
(dp672
g17
(lp673
I1
asg19
I1
sg20
(lp674
g34
asbI1
(tg38
I00
S'\xc2co0\x97=\x97A'
p675
tp676
bag5
(g6
(I0
tp677
g8
tp678
Rp679
(g11
(g12
g13
Ntp680
Rp681
(dp682
g17
(lp683
I1
asg19
I1
sg20
(lp684
g34
asbI1
(tg38
I00
S'@p22c\xd4\xa8A'
p685
tp686
bag5
(g6
(I0
tp687
g8
tp688
Rp689
(g11
(g12
g13
Ntp690
Rp691
(dp692
g17
(lp693
I1
asg19
I1
sg20
(lp694
g34
asbI1
(tg38
I00
S'N\xfa\ne\xe8\xc3\xb5A'
p695
tp696
bag5
(g6
(I0
tp697
g8
tp698
Rp699
(g11
(g12
g13
Ntp700
Rp701
(dp702
g17
(lp703
I1
asg19
I1
sg20
(lp704
g34
asbI1
(tg38
I00
S'\xec\x88\xe7qm\x19\xbeA'
p705
tp706
bag5
(g6
(I0
tp707
g8
tp708
Rp709
(g11
(g12
g13
Ntp710
Rp711
(dp712
g17
(lp713
I1
asg19
I1
sg20
(lp714
g34
asbI1
(tg38
I00
S'\xf1\xd4f\x9a\xb4U\xc6A'
p715
tp716
bag5
(g6
(I0
tp717
g8
tp718
Rp719
(g11
(g12
g13
Ntp720
Rp721
(dp722
g17
(lp723
I1
asg19
I1
sg20
(lp724
g34
asbI1
(tg38
I00
S'\x8c\xd8\x1egA\xd4\xceA'
p725
tp726
bag5
(g6
(I0
tp727
g8
tp728
Rp729
(g11
(g12
g13
Ntp730
Rp731
(dp732
g17
(lp733
I1
asg19
I1
sg20
(lp734
g34
asbI1
(tg38
I00
S'%\x1a/\xdeX\xd1\xd2A'
p735
tp736
bag5
(g6
(I0
tp737
g8
tp738
Rp739
(g11
(g12
g13
Ntp740
Rp741
(dp742
g17
(lp743
I1
asg19
I1
sg20
(lp744
g34
asbI1
(tg38
I00
S'\xe4\xccg\x9b+z\xd7A'
p745
tp746
bag5
(g6
(I0
tp747
g8
tp748
Rp749
(g11
(g12
g13
Ntp750
Rp751
(dp752
g17
(lp753
I1
asg19
I1
sg20
(lp754
g34
asbI1
(tg38
I00
S'lz\xdd\xbd\x06\xad\xdcA'
p755
tp756
bag5
(g6
(I0
tp757
g8
tp758
Rp759
(g11
(g12
g13
Ntp760
Rp761
(dp762
g17
(lp763
I1
asg19
I1
sg20
(lp764
g34
asbI1
(tg38
I00
S'\xf2)\x03W\xb2\x80\xe2A'
p765
tp766
bag5
(g6
(I0
tp767
g8
tp768
Rp769
(g11
(g12
g13
Ntp770
Rp771
(dp772
g17
(lp773
I1
asg19
I1
sg20
(lp774
g34
asbI1
(tg38
I00
S'I\xea\xec\xb42\x9f\xe5A'
p775
tp776
bag5
(g6
(I0
tp777
g8
tp778
Rp779
(g11
(g12
g13
Ntp780
Rp781
(dp782
g17
(lp783
I1
asg19
I1
sg20
(lp784
g34
asbI1
(tg38
I00
S'>\xd7\x97\xc9\xa30\xe8A'
p785
tp786
bag5
(g6
(I0
tp787
g8
tp788
Rp789
(g11
(g12
g13
Ntp790
Rp791
(dp792
g17
(lp793
I1
asg19
I1
sg20
(lp794
g34
asbI1
(tg38
I00
S'\x9a\xe8<\xec\x16\x97\xedA'
p795
tp796
bag5
(g6
(I0
tp797
g8
tp798
Rp799
(g11
(g12
g13
Ntp800
Rp801
(dp802
g17
(lp803
I1
asg19
I1
sg20
(lp804
g34
asbI1
(tg38
I00
S'\xc9\xde\x1d\xf7\x07&\xf0A'
p805
tp806
bag5
(g6
(I0
tp807
g8
tp808
Rp809
(g11
(g12
g13
Ntp810
Rp811
(dp812
g17
(lp813
I1
asg19
I1
sg20
(lp814
g34
asbI1
(tg38
I00
S'g\xc9n\xc0\xb7\xac\xf1A'
p815
tp816
bag5
(g6
(I0
tp817
g8
tp818
Rp819
(g11
(g12
g13
Ntp820
Rp821
(dp822
g17
(lp823
I1
asg19
I1
sg20
(lp824
g34
asbI1
(tg38
I00
S'n\xa8\xe5\x1e\xe9\x00\xf3A'
p825
tp826
bag5
(g6
(I0
tp827
g8
tp828
Rp829
(g11
(g12
g13
Ntp830
Rp831
(dp832
g17
(lp833
I1
asg19
I1
sg20
(lp834
g34
asbI1
(tg38
I00
S'f\xa2\xcd\x16\xd8\xe8\xf6A'
p835
tp836
bag5
(g6
(I0
tp837
g8
tp838
Rp839
(g11
(g12
g13
Ntp840
Rp841
(dp842
g17
(lp843
I1
asg19
I1
sg20
(lp844
g34
asbI1
(tg38
I00
S'\xa5\xb4\xff\x1a\x1f\xda\xf8A'
p845
tp846
bag5
(g6
(I0
tp847
g8
tp848
Rp849
(g11
(g12
g13
Ntp850
Rp851
(dp852
g17
(lp853
I1
asg19
I1
sg20
(lp854
g34
asbI1
(tg38
I00
S'\xf5;\x12\xf7\xc1\x0e\xfbA'
p855
tp856
bag5
(g6
(I0
tp857
g8
tp858
Rp859
(g11
(g12
g13
Ntp860
Rp861
(dp862
g17
(lp863
I1
asg19
I1
sg20
(lp864
g34
asbI1
(tg38
I00
S'H\xc3\xd3(\xeb\x08\x00B'
p865
tp866
bag5
(g6
(I0
tp867
g8
tp868
Rp869
(g11
(g12
g13
Ntp870
Rp871
(dp872
g17
(lp873
I1
asg19
I1
sg20
(lp874
g34
asbI1
(tg38
I00
S'5B\xb1H\xd56\x02B'
p875
tp876
bag5
(g6
(I0
tp877
g8
tp878
Rp879
(g11
(g12
g13
Ntp880
Rp881
(dp882
g17
(lp883
I1
asg19
I1
sg20
(lp884
g34
asbI1
(tg38
I00
S'\x90Ja&\xc2>\x04B'
p885
tp886
bag5
(g6
(I0
tp887
g8
tp888
Rp889
(g11
(g12
g13
Ntp890
Rp891
(dp892
g17
(lp893
I1
asg19
I1
sg20
(lp894
g34
asbI1
(tg38
I00
S'\xc4#K\xd1m\x02\x06B'
p895
tp896
bag5
(g6
(I0
tp897
g8
tp898
Rp899
(g11
(g12
g13
Ntp900
Rp901
(dp902
g17
(lp903
I1
asg19
I1
sg20
(lp904
g34
asbI1
(tg38
I00
S'^HEx\xfa\xe8\x07B'
p905
tp906
bag5
(g6
(I0
tp907
g8
tp908
Rp909
(g11
(g12
g13
Ntp910
Rp911
(dp912
g17
(lp913
I1
asg19
I1
sg20
(lp914
g34
asbI1
(tg38
I00
S'\xa4R^\nZ\xf7\tB'
p915
tp916
bag5
(g6
(I0
tp917
g8
tp918
Rp919
(g11
(g12
g13
Ntp920
Rp921
(dp922
g17
(lp923
I1
asg19
I1
sg20
(lp924
g34
asbI1
(tg38
I00
S'\x0c\x0b\x1a\x99M$\x0bB'
p925
tp926
bag5
(g6
(I0
tp927
g8
tp928
Rp929
(g11
(g12
g13
Ntp930
Rp931
(dp932
g17
(lp933
I1
asg19
I1
sg20
(lp934
g34
asbI1
(tg38
I00
S'\xa5\x00\x80^\xb9&\x0cB'
p935
tp936
bag5
(g6
(I0
tp937
g8
tp938
Rp939
(g11
(g12
g13
Ntp940
Rp941
(dp942
g17
(lp943
I1
asg19
I1
sg20
(lp944
g34
asbI1
(tg38
I00
S'<xGwM\xda\x0cB'
p945
tp946
bag5
(g6
(I0
tp947
g8
tp948
Rp949
(g11
(g12
g13
Ntp950
Rp951
(dp952
g17
(lp953
I1
asg19
I1
sg20
(lp954
g34
asbI1
(tg38
I00
S'\xca\xe3\xd0V\xaf\x88\rB'
p955
tp956
bag5
(g6
(I0
tp957
g8
tp958
Rp959
(g11
(g12
g13
Ntp960
Rp961
(dp962
g17
(lp963
I1
asg19
I1
sg20
(lp964
g34
asbI1
(tg38
I00
S'\x15r\xb2y\xa7\xe1\rB'
p965
tp966
bag5
(g6
(I0
tp967
g8
tp968
Rp969
(g11
(g12
g13
Ntp970
Rp971
(dp972
g17
(lp973
I1
asg19
I1
sg20
(lp974
g34
asbI1
(tg38
I00
S'\x9a\x17P\xfd\xcfG\x0eB'
p975
tp976
bag5
(g6
(I0
tp977
g8
tp978
Rp979
(g11
(g12
g13
Ntp980
Rp981
(dp982
g17
(lp983
I1
asg19
I1
sg20
(lp984
g34
asbI1
(tg38
I00
S'\x04\xe0K\\\x0c\x82\x0eB'
p985
tp986
bag5
(g6
(I0
tp987
g8
tp988
Rp989
(g11
(g12
g13
Ntp990
Rp991
(dp992
g17
(lp993
I1
asg19
I1
sg20
(lp994
g34
asbI1
(tg38
I00
S'\x8d\xa7[4\xea\xc3\x0eB'
p995
tp996
bag5
(g6
(I0
tp997
g8
tp998
Rp999
(g11
(g12
g13
Ntp1000
Rp1001
(dp1002
g17
(lp1003
I1
asg19
I1
sg20
(lp1004
g34
asbI1
(tg38
I00
S'\x8f\x90\xb0\xeb\x81\n\x0fB'
p1005
tp1006
bag5
(g6
(I0
tp1007
g8
tp1008
Rp1009
(g11
(g12
g13
Ntp1010
Rp1011
(dp1012
g17
(lp1013
I1
asg19
I1
sg20
(lp1014
g34
asbI1
(tg38
I00
S'\x04\x9dOJ6/\x0fB'
p1015
tp1016
bag5
(g6
(I0
tp1017
g8
tp1018
Rp1019
(g11
(g12
g13
Ntp1020
Rp1021
(dp1022
g17
(lp1023
I1
asg19
I1
sg20
(lp1024
g34
asbI1
(tg38
I00
S'\xdeT\xc3\x82\xe2R\x0fB'
p1025
tp1026
bag5
(g6
(I0
tp1027
g8
tp1028
Rp1029
(g11
(g12
g13
Ntp1030
Rp1031
(dp1032
g17
(lp1033
I1
asg19
I1
sg20
(lp1034
g34
asbI1
(tg38
I00
S'\xc4\xdb\xc6cr\x81\x0fB'
p1035
tp1036
bag5
(g6
(I0
tp1037
g8
tp1038
Rp1039
(g11
(g12
g13
Ntp1040
Rp1041
(dp1042
g17
(lp1043
I1
asg19
I1
sg20
(lp1044
g34
asbI1
(tg38
I00
S'\x05l\xcc\xef\x7f\xb6\x0fB'
p1045
tp1046
bag5
(g6
(I0
tp1047
g8
tp1048
Rp1049
(g11
(g12
g13
Ntp1050
Rp1051
(dp1052
g17
(lp1053
I1
asg19
I1
sg20
(lp1054
g34
asbI1
(tg38
I00
S'\xef\x147tu\x06\x10B'
p1055
tp1056
bag5
(g6
(I0
tp1057
g8
tp1058
Rp1059
(g11
(g12
g13
Ntp1060
Rp1061
(dp1062
g17
(lp1063
I1
asg19
I1
sg20
(lp1064
g34
asbI1
(tg38
I00
S'rb\x00t\xcc\x10\x10B'
p1065
tp1066
bag5
(g6
(I0
tp1067
g8
tp1068
Rp1069
(g11
(g12
g13
Ntp1070
Rp1071
(dp1072
g17
(lp1073
I1
asg19
I1
sg20
(lp1074
g34
asbI1
(tg38
I00
S'\xab{\xd8N\x94$\x10B'
p1075
tp1076
bag5
(g6
(I0
tp1077
g8
tp1078
Rp1079
(g11
(g12
g13
Ntp1080
Rp1081
(dp1082
g17
(lp1083
I1
asg19
I1
sg20
(lp1084
g34
asbI1
(tg38
I00
S'(1v\xfd\xb08\x10B'
p1085
tp1086
bag5
(g6
(I0
tp1087
g8
tp1088
Rp1089
(g11
(g12
g13
Ntp1090
Rp1091
(dp1092
g17
(lp1093
I1
asg19
I1
sg20
(lp1094
g34
asbI1
(tg38
I00
S'\xe9\x04\xcf\x06\xc1K\x10B'
p1095
tp1096
bag5
(g6
(I0
tp1097
g8
tp1098
Rp1099
(g11
(g12
g13
Ntp1100
Rp1101
(dp1102
g17
(lp1103
I1
asg19
I1
sg20
(lp1104
g34
asbI1
(tg38
I00
S'\x15\x81\x9a"wN\x10B'
p1105
tp1106
bag5
(g6
(I0
tp1107
g8
tp1108
Rp1109
(g11
(g12
g13
Ntp1110
Rp1111
(dp1112
g17
(lp1113
I1
asg19
I1
sg20
(lp1114
g34
asbI1
(tg38
I00
S'V\x8d!)@c\x10B'
p1115
tp1116
bag5
(g6
(I0
tp1117
g8
tp1118
Rp1119
(g11
(g12
g13
Ntp1120
Rp1121
(dp1122
g17
(lp1123
I1
asg19
I1
sg20
(lp1124
g34
asbI1
(tg38
I00
S'"\xe5\xf5\xcc\x14n\x10B'
p1125
tp1126
bag5
(g6
(I0
tp1127
g8
tp1128
Rp1129
(g11
(g12
g13
Ntp1130
Rp1131
(dp1132
g17
(lp1133
I1
asg19
I1
sg20
(lp1134
g34
asbI1
(tg38
I00
S'\xf3\xda\xdd\xfbtj\x10B'
p1135
tp1136
bag5
(g6
(I0
tp1137
g8
tp1138
Rp1139
(g11
(g12
g13
Ntp1140
Rp1141
(dp1142
g17
(lp1143
I1
asg19
I1
sg20
(lp1144
g34
asbI1
(tg38
I00
S'\x1a\x07\\\xd1\xf6z\x10B'
p1145
tp1146
bag5
(g6
(I0
tp1147
g8
tp1148
Rp1149
(g11
(g12
g13
Ntp1150
Rp1151
(dp1152
g17
(lp1153
I1
asg19
I1
sg20
(lp1154
g34
asbI1
(tg38
I00
S'\xc5,\xf4;\x17\x8b\x10B'
p1155
tp1156
bag5
(g6
(I0
tp1157
g8
tp1158
Rp1159
(g11
(g12
g13
Ntp1160
Rp1161
(dp1162
g17
(lp1163
I1
asg19
I1
sg20
(lp1164
g34
asbI1
(tg38
I00
S'Nj@\x19D\x94\x10B'
p1165
tp1166
bag5
(g6
(I0
tp1167
g8
tp1168
Rp1169
(g11
(g12
g13
Ntp1170
Rp1171
(dp1172
g17
(lp1173
I1
asg19
I1
sg20
(lp1174
g34
asbI1
(tg38
I00
S'q\xe1\x81Sw\x9e\x10B'
p1175
tp1176
bag5
(g6
(I0
tp1177
g8
tp1178
Rp1179
(g11
(g12
g13
Ntp1180
Rp1181
(dp1182
g17
(lp1183
I1
asg19
I1
sg20
(lp1184
g34
asbI1
(tg38
I00
S'T.\xb8x\x8a\xa9\x10B'
p1185
tp1186
bag5
(g6
(I0
tp1187
g8
tp1188
Rp1189
(g11
(g12
g13
Ntp1190
Rp1191
(dp1192
g17
(lp1193
I1
asg19
I1
sg20
(lp1194
g34
asbI1
(tg38
I00
S'\xba\x9f\x9cc%\xb3\x10B'
p1195
tp1196
bag5
(g6
(I0
tp1197
g8
tp1198
Rp1199
(g11
(g12
g13
Ntp1200
Rp1201
(dp1202
g17
(lp1203
I1
asg19
I1
sg20
(lp1204
g34
asbI1
(tg38
I00
S'~\xda\x1e\x92l\xcd\x10B'
p1205
tp1206
bag5
(g6
(I0
tp1207
g8
tp1208
Rp1209
(g11
(g12
g13
Ntp1210
Rp1211
(dp1212
g17
(lp1213
I1
asg19
I1
sg20
(lp1214
g34
asbI1
(tg38
I00
S'K,\x1b8\xef\xd9\x10B'
p1215
tp1216
bag5
(g6
(I0
tp1217
g8
tp1218
Rp1219
(g11
(g12
g13
Ntp1220
Rp1221
(dp1222
g17
(lp1223
I1
asg19
I1
sg20
(lp1224
g34
asbI1
(tg38
I00
S'\x1a\xb5\x96\xc0\x12\xec\x10B'
p1225
tp1226
bag5
(g6
(I0
tp1227
g8
tp1228
Rp1229
(g11
(g12
g13
Ntp1230
Rp1231
(dp1232
g17
(lp1233
I1
asg19
I1
sg20
(lp1234
g34
asbI1
(tg38
I00
S'\x03;\xa4\x10\xa9\x13\x11B'
p1235
tp1236
bag5
(g6
(I0
tp1237
g8
tp1238
Rp1239
(g11
(g12
g13
Ntp1240
Rp1241
(dp1242
g17
(lp1243
I1
asg19
I1
sg20
(lp1244
g34
asbI1
(tg38
I00
S'\xc4[\xaf\x84y!\x11B'
p1245
tp1246
bassS'g7.92e12'
p1247
(dp1248
S'mbh'
p1249
(lp1250
I0
ag5
(g6
(I0
tp1251
g8
tp1252
Rp1253
(g11
(g12
g13
Ntp1254
Rp1255
(dp1256
g17
(lp1257
I1
asg19
I1
sg20
(lp1258
g34
asbI1
(tg35
(S'f8'
p1259
I0
I1
tp1260
Rp1261
(I3
S'<'
p1262
NNNI-1
I-1
I0
tp1263
bI00
S'\xf5\x99@\xd26Z\xf9@'
p1264
tp1265
bag5
(g6
(I0
tp1266
g8
tp1267
Rp1268
(g11
(g12
g13
Ntp1269
Rp1270
(dp1271
g17
(lp1272
I1
asg19
I1
sg20
(lp1273
g34
asbI1
(tg1261
I00
S'\x1b\x8fc\xe8\xa0\x15\xfa@'
p1274
tp1275
bag5
(g6
(I0
tp1276
g8
tp1277
Rp1278
(g11
(g12
g13
Ntp1279
Rp1280
(dp1281
g17
(lp1282
I1
asg19
I1
sg20
(lp1283
g34
asbI1
(tg1261
I00
S' \xbd\x9a\xad\x02E\xfb@'
p1284
tp1285
bag5
(g6
(I0
tp1286
g8
tp1287
Rp1288
(g11
(g12
g13
Ntp1289
Rp1290
(dp1291
g17
(lp1292
I1
asg19
I1
sg20
(lp1293
g34
asbI1
(tg1261
I00
S'i|\xf17\x00\xc4\xfc@'
p1294
tp1295
bag5
(g6
(I0
tp1296
g8
tp1297
Rp1298
(g11
(g12
g13
Ntp1299
Rp1300
(dp1301
g17
(lp1302
I1
asg19
I1
sg20
(lp1303
g34
asbI1
(tg1261
I00
S'\x02lV\xf7\xc8\xa2\xfd@'
p1304
tp1305
bag5
(g6
(I0
tp1306
g8
tp1307
Rp1308
(g11
(g12
g13
Ntp1309
Rp1310
(dp1311
g17
(lp1312
I1
asg19
I1
sg20
(lp1313
g34
asbI1
(tg1261
I00
S'\xe5S\xf5\x84^\x89\xff@'
p1314
tp1315
bag5
(g6
(I0
tp1316
g8
tp1317
Rp1318
(g11
(g12
g13
Ntp1319
Rp1320
(dp1321
g17
(lp1322
I1
asg19
I1
sg20
(lp1323
g34
asbI1
(tg1261
I00
S'\xf8\x04`\x12\xae\xa3\x00A'
p1324
tp1325
bag5
(g6
(I0
tp1326
g8
tp1327
Rp1328
(g11
(g12
g13
Ntp1329
Rp1330
(dp1331
g17
(lp1332
I1
asg19
I1
sg20
(lp1333
g34
asbI1
(tg1261
I00
S'd\x84\x85\xdc\xac0\x03A'
p1334
tp1335
bag5
(g6
(I0
tp1336
g8
tp1337
Rp1338
(g11
(g12
g13
Ntp1339
Rp1340
(dp1341
g17
(lp1342
I1
asg19
I1
sg20
(lp1343
g34
asbI1
(tg1261
I00
S'6OX\x81-5\x07A'
p1344
tp1345
bag5
(g6
(I0
tp1346
g8
tp1347
Rp1348
(g11
(g12
g13
Ntp1349
Rp1350
(dp1351
g17
(lp1352
I1
asg19
I1
sg20
(lp1353
g34
asbI1
(tg1261
I00
S'\x95\x1fYX\xde\xbe\tA'
p1354
tp1355
bag5
(g6
(I0
tp1356
g8
tp1357
Rp1358
(g11
(g12
g13
Ntp1359
Rp1360
(dp1361
g17
(lp1362
I1
asg19
I1
sg20
(lp1363
g34
asbI1
(tg1261
I00
S'X}Mb_%\x0cA'
p1364
tp1365
bag5
(g6
(I0
tp1366
g8
tp1367
Rp1368
(g11
(g12
g13
Ntp1369
Rp1370
(dp1371
g17
(lp1372
I1
asg19
I1
sg20
(lp1373
g34
asbI1
(tg1261
I00
S'\x87!\xf9E>\xd5\x0eA'
p1374
tp1375
bag5
(g6
(I0
tp1376
g8
tp1377
Rp1378
(g11
(g12
g13
Ntp1379
Rp1380
(dp1381
g17
(lp1382
I1
asg19
I1
sg20
(lp1383
g34
asbI1
(tg1261
I00
S'\x97\xf2Lak+\x10A'
p1384
tp1385
bag5
(g6
(I0
tp1386
g8
tp1387
Rp1388
(g11
(g12
g13
Ntp1389
Rp1390
(dp1391
g17
(lp1392
I1
asg19
I1
sg20
(lp1393
g34
asbI1
(tg1261
I00
S'\x86k\xcd\x0eDj\x11A'
p1394
tp1395
bag5
(g6
(I0
tp1396
g8
tp1397
Rp1398
(g11
(g12
g13
Ntp1399
Rp1400
(dp1401
g17
(lp1402
I1
asg19
I1
sg20
(lp1403
g34
asbI1
(tg1261
I00
S'\xa8W7\x8d\xc3\xfa\x13A'
p1404
tp1405
bag5
(g6
(I0
tp1406
g8
tp1407
Rp1408
(g11
(g12
g13
Ntp1409
Rp1410
(dp1411
g17
(lp1412
I1
asg19
I1
sg20
(lp1413
g34
asbI1
(tg1261
I00
S'+$\xd4e\x18a|A'
p1414
tp1415
bag5
(g6
(I0
tp1416
g8
tp1417
Rp1418
(g11
(g12
g13
Ntp1419
Rp1420
(dp1421
g17
(lp1422
I1
asg19
I1
sg20
(lp1423
g34
asbI1
(tg1261
I00
S'\xa3gY\x0e\x0c&\x89A'
p1424
tp1425
bag5
(g6
(I0
tp1426
g8
tp1427
Rp1428
(g11
(g12
g13
Ntp1429
Rp1430
(dp1431
g17
(lp1432
I1
asg19
I1
sg20
(lp1433
g34
asbI1
(tg1261
I00
S'\xc0\x8f\x8f\xb1\xc2\xf2\x92A'
p1434
tp1435
bag5
(g6
(I0
tp1436
g8
tp1437
Rp1438
(g11
(g12
g13
Ntp1439
Rp1440
(dp1441
g17
(lp1442
I1
asg19
I1
sg20
(lp1443
g34
asbI1
(tg1261
I00
S'\x07<c\x1e\xf1l\x97A'
p1444
tp1445
bag5
(g6
(I0
tp1446
g8
tp1447
Rp1448
(g11
(g12
g13
Ntp1449
Rp1450
(dp1451
g17
(lp1452
I1
asg19
I1
sg20
(lp1453
g34
asbI1
(tg1261
I00
S'\xd5\x95G"\xc5P\x9dA'
p1454
tp1455
bag5
(g6
(I0
tp1456
g8
tp1457
Rp1458
(g11
(g12
g13
Ntp1459
Rp1460
(dp1461
g17
(lp1462
I1
asg19
I1
sg20
(lp1463
g34
asbI1
(tg1261
I00
S'\xb91\xec\xe22\xb9\xa5A'
p1464
tp1465
bag5
(g6
(I0
tp1466
g8
tp1467
Rp1468
(g11
(g12
g13
Ntp1469
Rp1470
(dp1471
g17
(lp1472
I1
asg19
I1
sg20
(lp1473
g34
asbI1
(tg1261
I00
S'(X\xc6@\xc7(\xb3A'
p1474
tp1475
bag5
(g6
(I0
tp1476
g8
tp1477
Rp1478
(g11
(g12
g13
Ntp1479
Rp1480
(dp1481
g17
(lp1482
I1
asg19
I1
sg20
(lp1483
g34
asbI1
(tg1261
I00
S'\xc6\x92\x86\xa8\xa3\xe5\xb5A'
p1484
tp1485
bag5
(g6
(I0
tp1486
g8
tp1487
Rp1488
(g11
(g12
g13
Ntp1489
Rp1490
(dp1491
g17
(lp1492
I1
asg19
I1
sg20
(lp1493
g34
asbI1
(tg1261
I00
S'.I\x17yj\xa4\xb8A'
p1494
tp1495
bag5
(g6
(I0
tp1496
g8
tp1497
Rp1498
(g11
(g12
g13
Ntp1499
Rp1500
(dp1501
g17
(lp1502
I1
asg19
I1
sg20
(lp1503
g34
asbI1
(tg1261
I00
S'0\x19:\xfa\xaf\xa6\xbbA'
p1504
tp1505
bag5
(g6
(I0
tp1506
g8
tp1507
Rp1508
(g11
(g12
g13
Ntp1509
Rp1510
(dp1511
g17
(lp1512
I1
asg19
I1
sg20
(lp1513
g34
asbI1
(tg1261
I00
S'\xae`Ew\x92p\xbeA'
p1514
tp1515
bag5
(g6
(I0
tp1516
g8
tp1517
Rp1518
(g11
(g12
g13
Ntp1519
Rp1520
(dp1521
g17
(lp1522
I1
asg19
I1
sg20
(lp1523
g34
asbI1
(tg1261
I00
S'\xbe\x8dG\xbe\xff\xa8\xc0A'
p1524
tp1525
bag5
(g6
(I0
tp1526
g8
tp1527
Rp1528
(g11
(g12
g13
Ntp1529
Rp1530
(dp1531
g17
(lp1532
I1
asg19
I1
sg20
(lp1533
g34
asbI1
(tg1261
I00
S'9\xbf\xa3\x1f$d\xc1A'
p1534
tp1535
bag5
(g6
(I0
tp1536
g8
tp1537
Rp1538
(g11
(g12
g13
Ntp1539
Rp1540
(dp1541
g17
(lp1542
I1
asg19
I1
sg20
(lp1543
g34
asbI1
(tg1261
I00
S'Z\xadH\xf5\x86y\xc3A'
p1544
tp1545
bag5
(g6
(I0
tp1546
g8
tp1547
Rp1548
(g11
(g12
g13
Ntp1549
Rp1550
(dp1551
g17
(lp1552
I1
asg19
I1
sg20
(lp1553
g34
asbI1
(tg1261
I00
S'h\x0b\xcc|(\x89\xc5A'
p1554
tp1555
bag5
(g6
(I0
tp1556
g8
tp1557
Rp1558
(g11
(g12
g13
Ntp1559
Rp1560
(dp1561
g17
(lp1562
I1
asg19
I1
sg20
(lp1563
g34
asbI1
(tg1261
I00
S'\x1d1\x91\x01\xce\x94\xc6A'
p1564
tp1565
bag5
(g6
(I0
tp1566
g8
tp1567
Rp1568
(g11
(g12
g13
Ntp1569
Rp1570
(dp1571
g17
(lp1572
I1
asg19
I1
sg20
(lp1573
g34
asbI1
(tg1261
I00
S'\xb3\xed\xc6\x0b@\xed\xc6A'
p1574
tp1575
bag5
(g6
(I0
tp1576
g8
tp1577
Rp1578
(g11
(g12
g13
Ntp1579
Rp1580
(dp1581
g17
(lp1582
I1
asg19
I1
sg20
(lp1583
g34
asbI1
(tg1261
I00
S'\xc3i\x86\xcb\xfd\x1f\xc7A'
p1584
tp1585
bag5
(g6
(I0
tp1586
g8
tp1587
Rp1588
(g11
(g12
g13
Ntp1589
Rp1590
(dp1591
g17
(lp1592
I1
asg19
I1
sg20
(lp1593
g34
asbI1
(tg1261
I00
S'\x0c\x91\xe8\x03DW\xc7A'
p1594
tp1595
bag5
(g6
(I0
tp1596
g8
tp1597
Rp1598
(g11
(g12
g13
Ntp1599
Rp1600
(dp1601
g17
(lp1602
I1
asg19
I1
sg20
(lp1603
g34
asbI1
(tg1261
I00
S'[T\x13\xe39\x94\xc7A'
p1604
tp1605
bag5
(g6
(I0
tp1606
g8
tp1607
Rp1608
(g11
(g12
g13
Ntp1609
Rp1610
(dp1611
g17
(lp1612
I1
asg19
I1
sg20
(lp1613
g34
asbI1
(tg1261
I00
S'\xb0\x95fV\x9c\xc2\xc7A'
p1614
tp1615
bag5
(g6
(I0
tp1616
g8
tp1617
Rp1618
(g11
(g12
g13
Ntp1619
Rp1620
(dp1621
g17
(lp1622
I1
asg19
I1
sg20
(lp1623
g34
asbI1
(tg1261
I00
S'[\xef\xf0\x17M\x14\xc8A'
p1624
tp1625
bag5
(g6
(I0
tp1626
g8
tp1627
Rp1628
(g11
(g12
g13
Ntp1629
Rp1630
(dp1631
g17
(lp1632
I1
asg19
I1
sg20
(lp1633
g34
asbI1
(tg1261
I00
S'\xe7\xfd{M\xd9P\xc8A'
p1634
tp1635
bag5
(g6
(I0
tp1636
g8
tp1637
Rp1638
(g11
(g12
g13
Ntp1639
Rp1640
(dp1641
g17
(lp1642
I1
asg19
I1
sg20
(lp1643
g34
asbI1
(tg1261
I00
S'\xc2\xcdH\xaf\xc7\x7f\xc8A'
p1644
tp1645
bag5
(g6
(I0
tp1646
g8
tp1647
Rp1648
(g11
(g12
g13
Ntp1649
Rp1650
(dp1651
g17
(lp1652
I1
asg19
I1
sg20
(lp1653
g34
asbI1
(tg1261
I00
S'\xa0A\x1bB\x17\xcf\xc8A'
p1654
tp1655
bag5
(g6
(I0
tp1656
g8
tp1657
Rp1658
(g11
(g12
g13
Ntp1659
Rp1660
(dp1661
g17
(lp1662
I1
asg19
I1
sg20
(lp1663
g34
asbI1
(tg1261
I00
S'\xbc>\x95:V\xff\xc8A'
p1664
tp1665
bag5
(g6
(I0
tp1666
g8
tp1667
Rp1668
(g11
(g12
g13
Ntp1669
Rp1670
(dp1671
g17
(lp1672
I1
asg19
I1
sg20
(lp1673
g34
asbI1
(tg1261
I00
S"\xafL\xcd\x8f\xeb'\xc9A"
p1674
tp1675
bag5
(g6
(I0
tp1676
g8
tp1677
Rp1678
(g11
(g12
g13
Ntp1679
Rp1680
(dp1681
g17
(lp1682
I1
asg19
I1
sg20
(lp1683
g34
asbI1
(tg1261
I00
S'\x92J<\xf8\xd2<\xc9A'
p1684
tp1685
bag5
(g6
(I0
tp1686
g8
tp1687
Rp1688
(g11
(g12
g13
Ntp1689
Rp1690
(dp1691
g17
(lp1692
I1
asg19
I1
sg20
(lp1693
g34
asbI1
(tg1261
I00
S's\x06\xf0\xb3\xc3\xe4\xc9A'
p1694
tp1695
bag5
(g6
(I0
tp1696
g8
tp1697
Rp1698
(g11
(g12
g13
Ntp1699
Rp1700
(dp1701
g17
(lp1702
I1
asg19
I1
sg20
(lp1703
g34
asbI1
(tg1261
I00
S'\x82n\x8a\xcb\xa1\x16\xcaA'
p1704
tp1705
bag5
(g6
(I0
tp1706
g8
tp1707
Rp1708
(g11
(g12
g13
Ntp1709
Rp1710
(dp1711
g17
(lp1712
I1
asg19
I1
sg20
(lp1713
g34
asbI1
(tg1261
I00
S'[\xa5\x99\xa1\xefO\xcaA'
p1714
tp1715
bag5
(g6
(I0
tp1716
g8
tp1717
Rp1718
(g11
(g12
g13
Ntp1719
Rp1720
(dp1721
g17
(lp1722
I1
asg19
I1
sg20
(lp1723
g34
asbI1
(tg1261
I00
S'QF\xd5\xe1\x0f\x84\xcaA'
p1724
tp1725
bag5
(g6
(I0
tp1726
g8
tp1727
Rp1728
(g11
(g12
g13
Ntp1729
Rp1730
(dp1731
g17
(lp1732
I1
asg19
I1
sg20
(lp1733
g34
asbI1
(tg1261
I00
S'\xf0\xa9\xf7\xee\x15\xb7\xcaA'
p1734
tp1735
bag5
(g6
(I0
tp1736
g8
tp1737
Rp1738
(g11
(g12
g13
Ntp1739
Rp1740
(dp1741
g17
(lp1742
I1
asg19
I1
sg20
(lp1743
g34
asbI1
(tg1261
I00
S'kS/\xb8\xa9\x03\xcbA'
p1744
tp1745
bag5
(g6
(I0
tp1746
g8
tp1747
Rp1748
(g11
(g12
g13
Ntp1749
Rp1750
(dp1751
g17
(lp1752
I1
asg19
I1
sg20
(lp1753
g34
asbI1
(tg1261
I00
S"\xd8\x85\xc1\xe9'L\xcbA"
p1754
tp1755
bag5
(g6
(I0
tp1756
g8
tp1757
Rp1758
(g11
(g12
g13
Ntp1759
Rp1760
(dp1761
g17
(lp1762
I1
asg19
I1
sg20
(lp1763
g34
asbI1
(tg1261
I00
S'Xof[\xcc\x96\xcbA'
p1764
tp1765
bag5
(g6
(I0
tp1766
g8
tp1767
Rp1768
(g11
(g12
g13
Ntp1769
Rp1770
(dp1771
g17
(lp1772
I1
asg19
I1
sg20
(lp1773
g34
asbI1
(tg1261
I00
S'\xab|\xdf\x16.\xff\xcbA'
p1774
tp1775
bag5
(g6
(I0
tp1776
g8
tp1777
Rp1778
(g11
(g12
g13
Ntp1779
Rp1780
(dp1781
g17
(lp1782
I1
asg19
I1
sg20
(lp1783
g34
asbI1
(tg1261
I00
S'=4f\\\xe74\xccA'
p1784
tp1785
bag5
(g6
(I0
tp1786
g8
tp1787
Rp1788
(g11
(g12
g13
Ntp1789
Rp1790
(dp1791
g17
(lp1792
I1
asg19
I1
sg20
(lp1793
g34
asbI1
(tg1261
I00
S'U\x82\xd2\xed\xf6_\xccA'
p1794
tp1795
bag5
(g6
(I0
tp1796
g8
tp1797
Rp1798
(g11
(g12
g13
Ntp1799
Rp1800
(dp1801
g17
(lp1802
I1
asg19
I1
sg20
(lp1803
g34
asbI1
(tg1261
I00
S'\x9c\xc0[p\x18\xa2\xccA'
p1804
tp1805
bag5
(g6
(I0
tp1806
g8
tp1807
Rp1808
(g11
(g12
g13
Ntp1809
Rp1810
(dp1811
g17
(lp1812
I1
asg19
I1
sg20
(lp1813
g34
asbI1
(tg1261
I00
S';\xd2\xab\xfc\xed\xd8\xccA'
p1814
tp1815
bag5
(g6
(I0
tp1816
g8
tp1817
Rp1818
(g11
(g12
g13
Ntp1819
Rp1820
(dp1821
g17
(lp1822
I1
asg19
I1
sg20
(lp1823
g34
asbI1
(tg1261
I00
S'\x8a\x14\xc8\xcb\x91\n\xcdA'
p1824
tp1825
bag5
(g6
(I0
tp1826
g8
tp1827
Rp1828
(g11
(g12
g13
Ntp1829
Rp1830
(dp1831
g17
(lp1832
I1
asg19
I1
sg20
(lp1833
g34
asbI1
(tg1261
I00
S'y\xeb\xc2\x97*;\xcdA'
p1834
tp1835
bag5
(g6
(I0
tp1836
g8
tp1837
Rp1838
(g11
(g12
g13
Ntp1839
Rp1840
(dp1841
g17
(lp1842
I1
asg19
I1
sg20
(lp1843
g34
asbI1
(tg1261
I00
S'\x96\xe17\xa4\x04t\xcdA'
p1844
tp1845
bag5
(g6
(I0
tp1846
g8
tp1847
Rp1848
(g11
(g12
g13
Ntp1849
Rp1850
(dp1851
g17
(lp1852
I1
asg19
I1
sg20
(lp1853
g34
asbI1
(tg1261
I00
S'%\x81\x88\xe4i\xc3\xcdA'
p1854
tp1855
bag5
(g6
(I0
tp1856
g8
tp1857
Rp1858
(g11
(g12
g13
Ntp1859
Rp1860
(dp1861
g17
(lp1862
I1
asg19
I1
sg20
(lp1863
g34
asbI1
(tg1261
I00
S'\xf8\x08\x16w\x85\xe5\xcdA'
p1864
tp1865
bag5
(g6
(I0
tp1866
g8
tp1867
Rp1868
(g11
(g12
g13
Ntp1869
Rp1870
(dp1871
g17
(lp1872
I1
asg19
I1
sg20
(lp1873
g34
asbI1
(tg1261
I00
S'&\x8ef \xc9\x08\xceA'
p1874
tp1875
basS'z'
p1876
(lp1877
F9.894320197673142
aF7.505628545441848
aF6.102643254843908
aF5.16283598378028
aF4.481594594061921
aF3.9609738952834475
aF3.547708985646077
aF3.2101378713117343
aF2.9281587486434693
aF2.688343845413997
aF2.4813531690588175
aF2.300472059089629
aF2.1407388896027233
aF1.998401346143806
aF1.8705647324276962
aF1.754957193574202
aF1.6497686603988262
aF1.553537709393383
aF1.465070403238245
aF1.3833809818213414
aF1.3076477965675055
aF1.23718007884781
aF1.1713925389957818
aF1.1097857117818184
aF1.0519305776284695
aF0.9974564057190631
aF0.9460410532092647
aF0.8974031568637695
aF0.8512957972583748
aF0.8075013193610738
aF0.7658270689435218
aF0.7261018600768294
aF0.6881730305643579
aF0.6519039734767658
aF0.6171720567390486
aF0.5838668609401718
aF0.5518886796063365
aF0.5211472371266319
aF0.4915605880985465
aF0.4630541686269518
aF0.4355599754863029
aF0.4090158533409203
aF0.38336487367053684
aF0.3585547918285601
aF0.33453757092128567
aF0.3112689630395158
aF0.2887081398850184
aF0.2668173660781159
aF0.2455617094612801
aF0.22490878356744437
aF0.20482851813348169
aF0.18529295413470326
aF0.1662760603161757
aF0.1477535686178788
aF0.12970282624681073
aF0.11210266245112321
aF0.0949332683082662
aF0.07817608805831644
aF0.061813720701191954
aF0.045829830737347255
aF0.03020906707006632
aF0.01493698920675568
aF-9.325873406851315e-15
asS'mstar'
p1878
(lp1879
g5
(g6
(I0
tp1880
g8
tp1881
Rp1882
(g11
(g12
g13
Ntp1883
Rp1884
(dp1885
g17
(lp1886
I1
asg19
I1
sg20
(lp1887
g34
asbI1
(tg1261
I00
S'\x00\x00\x00\x00\x00\x00\x00\x00'
p1888
tp1889
bag5
(g6
(I0
tp1890
g8
tp1891
Rp1892
(g11
(g12
g13
Ntp1893
Rp1894
(dp1895
g17
(lp1896
I1
asg19
I1
sg20
(lp1897
g34
asbI1
(tg1261
I00
S'67\xd1\x1b\xfe\xf4\xaeA'
p1898
tp1899
bag5
(g6
(I0
tp1900
g8
tp1901
Rp1902
(g11
(g12
g13
Ntp1903
Rp1904
(dp1905
g17
(lp1906
I1
asg19
I1
sg20
(lp1907
g34
asbI1
(tg1261
I00
S'V\xef\x0e8\xa5\xc7\xd3A'
p1908
tp1909
bag5
(g6
(I0
tp1910
g8
tp1911
Rp1912
(g11
(g12
g13
Ntp1913
Rp1914
(dp1915
g17
(lp1916
I1
asg19
I1
sg20
(lp1917
g34
asbI1
(tg1261
I00
S'p.\xe3fr\xac\xeeA'
p1918
tp1919
bag5
(g6
(I0
tp1920
g8
tp1921
Rp1922
(g11
(g12
g13
Ntp1923
Rp1924
(dp1925
g17
(lp1926
I1
asg19
I1
sg20
(lp1927
g34
asbI1
(tg1261
I00
S'\x96Z4\x02\x10\xa4\x01B'
p1928
tp1929
bag5
(g6
(I0
tp1930
g8
tp1931
Rp1932
(g11
(g12
g13
Ntp1933
Rp1934
(dp1935
g17
(lp1936
I1
asg19
I1
sg20
(lp1937
g34
asbI1
(tg1261
I00
S'\x14<\x02\x07\x04\xfb\x10B'
p1938
tp1939
bag5
(g6
(I0
tp1940
g8
tp1941
Rp1942
(g11
(g12
g13
Ntp1943
Rp1944
(dp1945
g17
(lp1946
I1
asg19
I1
sg20
(lp1947
g34
asbI1
(tg1261
I00
S'\xf1\x14\xe6Ka9\x1bB'
p1948
tp1949
bag5
(g6
(I0
tp1950
g8
tp1951
Rp1952
(g11
(g12
g13
Ntp1953
Rp1954
(dp1955
g17
(lp1956
I1
asg19
I1
sg20
(lp1957
g34
asbI1
(tg1261
I00
S'z\x04=\xbb\x86P"B'
p1958
tp1959
bag5
(g6
(I0
tp1960
g8
tp1961
Rp1962
(g11
(g12
g13
Ntp1963
Rp1964
(dp1965
g17
(lp1966
I1
asg19
I1
sg20
(lp1967
g34
asbI1
(tg1261
I00
S"A\xb1\x91\xef\x8d%'B"
p1968
tp1969
bag5
(g6
(I0
tp1970
g8
tp1971
Rp1972
(g11
(g12
g13
Ntp1973
Rp1974
(dp1975
g17
(lp1976
I1
asg19
I1
sg20
(lp1977
g34
asbI1
(tg1261
I00
S'j\t"Z\xdc2,B'
p1978
tp1979
bag5
(g6
(I0
tp1980
g8
tp1981
Rp1982
(g11
(g12
g13
Ntp1983
Rp1984
(dp1985
g17
(lp1986
I1
asg19
I1
sg20
(lp1987
g34
asbI1
(tg1261
I00
S'E\xefGO\xab\x850B'
p1988
tp1989
bag5
(g6
(I0
tp1990
g8
tp1991
Rp1992
(g11
(g12
g13
Ntp1993
Rp1994
(dp1995
g17
(lp1996
I1
asg19
I1
sg20
(lp1997
g34
asbI1
(tg1261
I00
S'\xc4wK\xd7\x9a\xb72B'
p1998
tp1999
bag5
(g6
(I0
tp2000
g8
tp2001
Rp2002
(g11
(g12
g13
Ntp2003
Rp2004
(dp2005
g17
(lp2006
I1
asg19
I1
sg20
(lp2007
g34
asbI1
(tg1261
I00
S'\xab\xad\x91\xe49\x9b4B'
p2008
tp2009
bag5
(g6
(I0
tp2010
g8
tp2011
Rp2012
(g11
(g12
g13
Ntp2013
Rp2014
(dp2015
g17
(lp2016
I1
asg19
I1
sg20
(lp2017
g34
asbI1
(tg1261
I00
S'\xdav%`\x15_6B'
p2018
tp2019
bag5
(g6
(I0
tp2020
g8
tp2021
Rp2022
(g11
(g12
g13
Ntp2023
Rp2024
(dp2025
g17
(lp2026
I1
asg19
I1
sg20
(lp2027
g34
asbI1
(tg1261
I00
S'\xef^\xc2\t|\xec7B'
p2028
tp2029
bag5
(g6
(I0
tp2030
g8
tp2031
Rp2032
(g11
(g12
g13
Ntp2033
Rp2034
(dp2035
g17
(lp2036
I1
asg19
I1
sg20
(lp2037
g34
asbI1
(tg1261
I00
S'\xd4|\xd3\xdb\\.9B'
p2038
tp2039
bag5
(g6
(I0
tp2040
g8
tp2041
Rp2042
(g11
(g12
g13
Ntp2043
Rp2044
(dp2045
g17
(lp2046
I1
asg19
I1
sg20
(lp2047
g34
asbI1
(tg1261
I00
S'&\x04\xa1\xcc\x87\xebEB'
p2048
tp2049
bag5
(g6
(I0
tp2050
g8
tp2051
Rp2052
(g11
(g12
g13
Ntp2053
Rp2054
(dp2055
g17
(lp2056
I1
asg19
I1
sg20
(lp2057
g34
asbI1
(tg1261
I00
S'\x95\xafc\xa9\x9a\xc2FB'
p2058
tp2059
bag5
(g6
(I0
tp2060
g8
tp2061
Rp2062
(g11
(g12
g13
Ntp2063
Rp2064
(dp2065
g17
(lp2066
I1
asg19
I1
sg20
(lp2067
g34
asbI1
(tg1261
I00
S'K\xd41{e\x96GB'
p2068
tp2069
bag5
(g6
(I0
tp2070
g8
tp2071
Rp2072
(g11
(g12
g13
Ntp2073
Rp2074
(dp2075
g17
(lp2076
I1
asg19
I1
sg20
(lp2077
g34
asbI1
(tg1261
I00
S'\x03\xaaF\xb9\xbd\xc2HB'
p2078
tp2079
bag5
(g6
(I0
tp2080
g8
tp2081
Rp2082
(g11
(g12
g13
Ntp2083
Rp2084
(dp2085
g17
(lp2086
I1
asg19
I1
sg20
(lp2087
g34
asbI1
(tg1261
I00
S'\xd1G\xab/7VJB'
p2088
tp2089
bag5
(g6
(I0
tp2090
g8
tp2091
Rp2092
(g11
(g12
g13
Ntp2093
Rp2094
(dp2095
g17
(lp2096
I1
asg19
I1
sg20
(lp2097
g34
asbI1
(tg1261
I00
S'|\xc3a\xb0\xbb\xa2JB'
p2098
tp2099
bag5
(g6
(I0
tp2100
g8
tp2101
Rp2102
(g11
(g12
g13
Ntp2103
Rp2104
(dp2105
g17
(lp2106
I1
asg19
I1
sg20
(lp2107
g34
asbI1
(tg1261
I00
S'\\\xc9\xf1\x95m\xa6JB'
p2108
tp2109
bag5
(g6
(I0
tp2110
g8
tp2111
Rp2112
(g11
(g12
g13
Ntp2113
Rp2114
(dp2115
g17
(lp2116
I1
asg19
I1
sg20
(lp2117
g34
asbI1
(tg1261
I00
S'\xceF\xa2\xa8\xbf\x92JB'
p2118
tp2119
bag5
(g6
(I0
tp2120
g8
tp2121
Rp2122
(g11
(g12
g13
Ntp2123
Rp2124
(dp2125
g17
(lp2126
I1
asg19
I1
sg20
(lp2127
g34
asbI1
(tg1261
I00
S'B\xac\xfd\xf5\xfbtJB'
p2128
tp2129
bag5
(g6
(I0
tp2130
g8
tp2131
Rp2132
(g11
(g12
g13
Ntp2133
Rp2134
(dp2135
g17
(lp2136
I1
asg19
I1
sg20
(lp2137
g34
asbI1
(tg1261
I00
S'b\xd9[\nJXJB'
p2138
tp2139
bag5
(g6
(I0
tp2140
g8
tp2141
Rp2142
(g11
(g12
g13
Ntp2143
Rp2144
(dp2145
g17
(lp2146
I1
asg19
I1
sg20
(lp2147
g34
asbI1
(tg1261
I00
S'\x94XH\xbf|?JB'
p2148
tp2149
bag5
(g6
(I0
tp2150
g8
tp2151
Rp2152
(g11
(g12
g13
Ntp2153
Rp2154
(dp2155
g17
(lp2156
I1
asg19
I1
sg20
(lp2157
g34
asbI1
(tg1261
I00
S'\x9dQ\x8aF\xac$JB'
p2158
tp2159
bag5
(g6
(I0
tp2160
g8
tp2161
Rp2162
(g11
(g12
g13
Ntp2163
Rp2164
(dp2165
g17
(lp2166
I1
asg19
I1
sg20
(lp2167
g34
asbI1
(tg1261
I00
S';}\x11\xee\x15\x12JB'
p2168
tp2169
bag5
(g6
(I0
tp2170
g8
tp2171
Rp2172
(g11
(g12
g13
Ntp2173
Rp2174
(dp2175
g17
(lp2176
I1
asg19
I1
sg20
(lp2177
g34
asbI1
(tg1261
I00
S'\x8d\xd1\x9b9\xeb\xfdIB'
p2178
tp2179
bag5
(g6
(I0
tp2180
g8
tp2181
Rp2182
(g11
(g12
g13
Ntp2183
Rp2184
(dp2185
g17
(lp2186
I1
asg19
I1
sg20
(lp2187
g34
asbI1
(tg1261
I00
S'\xb7`\xff\xbb6\xe9IB'
p2188
tp2189
bag5
(g6
(I0
tp2190
g8
tp2191
Rp2192
(g11
(g12
g13
Ntp2193
Rp2194
(dp2195
g17
(lp2196
I1
asg19
I1
sg20
(lp2197
g34
asbI1
(tg1261
I00
S'n\x94\x14\xe8\xab\xd9IB'
p2198
tp2199
bag5
(g6
(I0
tp2200
g8
tp2201
Rp2202
(g11
(g12
g13
Ntp2203
Rp2204
(dp2205
g17
(lp2206
I1
asg19
I1
sg20
(lp2207
g34
asbI1
(tg1261
I00
S':\xf6\xc5\xd9\x12\xc7IB'
p2208
tp2209
bag5
(g6
(I0
tp2210
g8
tp2211
Rp2212
(g11
(g12
g13
Ntp2213
Rp2214
(dp2215
g17
(lp2216
I1
asg19
I1
sg20
(lp2217
g34
asbI1
(tg1261
I00
S'H\x8d\xd6Fs\xb0IB'
p2218
tp2219
bag5
(g6
(I0
tp2220
g8
tp2221
Rp2222
(g11
(g12
g13
Ntp2223
Rp2224
(dp2225
g17
(lp2226
I1
asg19
I1
sg20
(lp2227
g34
asbI1
(tg1261
I00
S'"1~M\xc9\x9dIB'
p2228
tp2229
bag5
(g6
(I0
tp2230
g8
tp2231
Rp2232
(g11
(g12
g13
Ntp2233
Rp2234
(dp2235
g17
(lp2236
I1
asg19
I1
sg20
(lp2237
g34
asbI1
(tg1261
I00
S'\xc1\xfcVe,\x84IB'
p2238
tp2239
bag5
(g6
(I0
tp2240
g8
tp2241
Rp2242
(g11
(g12
g13
Ntp2243
Rp2244
(dp2245
g17
(lp2246
I1
asg19
I1
sg20
(lp2247
g34
asbI1
(tg1261
I00
S'\xd65u`\x08mIB'
p2248
tp2249
bag5
(g6
(I0
tp2250
g8
tp2251
Rp2252
(g11
(g12
g13
Ntp2253
Rp2254
(dp2255
g17
(lp2256
I1
asg19
I1
sg20
(lp2257
g34
asbI1
(tg1261
I00
S'\x8b\xcf\xebf\xdebIB'
p2258
tp2259
bag5
(g6
(I0
tp2260
g8
tp2261
Rp2262
(g11
(g12
g13
Ntp2263
Rp2264
(dp2265
g17
(lp2266
I1
asg19
I1
sg20
(lp2267
g34
asbI1
(tg1261
I00
S'Y\xa4\xd3\xca#[IB'
p2268
tp2269
bag5
(g6
(I0
tp2270
g8
tp2271
Rp2272
(g11
(g12
g13
Ntp2273
Rp2274
(dp2275
g17
(lp2276
I1
asg19
I1
sg20
(lp2277
g34
asbI1
(tg1261
I00
S'6*<-"SIB'
p2278
tp2279
bag5
(g6
(I0
tp2280
g8
tp2281
Rp2282
(g11
(g12
g13
Ntp2283
Rp2284
(dp2285
g17
(lp2286
I1
asg19
I1
sg20
(lp2287
g34
asbI1
(tg1261
I00
S'b\n\t\xd1\x11GIB'
p2288
tp2289
bag5
(g6
(I0
tp2290
g8
tp2291
Rp2292
(g11
(g12
g13
Ntp2293
Rp2294
(dp2295
g17
(lp2296
I1
asg19
I1
sg20
(lp2297
g34
asbI1
(tg1261
I00
S'r\xf0\xf5`\x949IB'
p2298
tp2299
bag5
(g6
(I0
tp2300
g8
tp2301
Rp2302
(g11
(g12
g13
Ntp2303
Rp2304
(dp2305
g17
(lp2306
I1
asg19
I1
sg20
(lp2307
g34
asbI1
(tg1261
I00
S'\xe2/\xbcb\x91UIB'
p2308
tp2309
bag5
(g6
(I0
tp2310
g8
tp2311
Rp2312
(g11
(g12
g13
Ntp2313
Rp2314
(dp2315
g17
(lp2316
I1
asg19
I1
sg20
(lp2317
g34
asbI1
(tg1261
I00
S'\xb7\x90\xed\xae\x15IIB'
p2318
tp2319
bag5
(g6
(I0
tp2320
g8
tp2321
Rp2322
(g11
(g12
g13
Ntp2323
Rp2324
(dp2325
g17
(lp2326
I1
asg19
I1
sg20
(lp2327
g34
asbI1
(tg1261
I00
S'\xb4Pm\xac\xa8BIB'
p2328
tp2329
bag5
(g6
(I0
tp2330
g8
tp2331
Rp2332
(g11
(g12
g13
Ntp2333
Rp2334
(dp2335
g17
(lp2336
I1
asg19
I1
sg20
(lp2337
g34
asbI1
(tg1261
I00
S':\xcb\xc5dO<IB'
p2338
tp2339
bag5
(g6
(I0
tp2340
g8
tp2341
Rp2342
(g11
(g12
g13
Ntp2343
Rp2344
(dp2345
g17
(lp2346
I1
asg19
I1
sg20
(lp2347
g34
asbI1
(tg1261
I00
S'\x88\xdf\xfb\xbe\x159IB'
p2348
tp2349
bag5
(g6
(I0
tp2350
g8
tp2351
Rp2352
(g11
(g12
g13
Ntp2353
Rp2354
(dp2355
g17
(lp2356
I1
asg19
I1
sg20
(lp2357
g34
asbI1
(tg1261
I00
S'W\x90\xbb\xcc\x1a/IB'
p2358
tp2359
bag5
(g6
(I0
tp2360
g8
tp2361
Rp2362
(g11
(g12
g13
Ntp2363
Rp2364
(dp2365
g17
(lp2366
I1
asg19
I1
sg20
(lp2367
g34
asbI1
(tg1261
I00
S'\x9cCe8\x80%IB'
p2368
tp2369
bag5
(g6
(I0
tp2370
g8
tp2371
Rp2372
(g11
(g12
g13
Ntp2373
Rp2374
(dp2375
g17
(lp2376
I1
asg19
I1
sg20
(lp2377
g34
asbI1
(tg1261
I00
S'\x0b@\x95\x847\x04IB'
p2378
tp2379
bag5
(g6
(I0
tp2380
g8
tp2381
Rp2382
(g11
(g12
g13
Ntp2383
Rp2384
(dp2385
g17
(lp2386
I1
asg19
I1
sg20
(lp2387
g34
asbI1
(tg1261
I00
S'\x02{\xec?\xeb\xf2HB'
p2388
tp2389
bag5
(g6
(I0
tp2390
g8
tp2391
Rp2392
(g11
(g12
g13
Ntp2393
Rp2394
(dp2395
g17
(lp2396
I1
asg19
I1
sg20
(lp2397
g34
asbI1
(tg1261
I00
S'/!:\x02\xf6\xebHB'
p2398
tp2399
bag5
(g6
(I0
tp2400
g8
tp2401
Rp2402
(g11
(g12
g13
Ntp2403
Rp2404
(dp2405
g17
(lp2406
I1
asg19
I1
sg20
(lp2407
g34
asbI1
(tg1261
I00
S'En \xee\xa0\xe5HB'
p2408
tp2409
bag5
(g6
(I0
tp2410
g8
tp2411
Rp2412
(g11
(g12
g13
Ntp2413
Rp2414
(dp2415
g17
(lp2416
I1
asg19
I1
sg20
(lp2417
g34
asbI1
(tg1261
I00
S'\xa8n\xde\xde\xcc\xdcHB'
p2418
tp2419
bag5
(g6
(I0
tp2420
g8
tp2421
Rp2422
(g11
(g12
g13
Ntp2423
Rp2424
(dp2425
g17
(lp2426
I1
asg19
I1
sg20
(lp2427
g34
asbI1
(tg1261
I00
S'\xa8$\xb7\xf44\xd3HB'
p2428
tp2429
bag5
(g6
(I0
tp2430
g8
tp2431
Rp2432
(g11
(g12
g13
Ntp2433
Rp2434
(dp2435
g17
(lp2436
I1
asg19
I1
sg20
(lp2437
g34
asbI1
(tg1261
I00
S'\x8d\xee\xa5R\x03\xc8HB'
p2438
tp2439
bag5
(g6
(I0
tp2440
g8
tp2441
Rp2442
(g11
(g12
g13
Ntp2443
Rp2444
(dp2445
g17
(lp2446
I1
asg19
I1
sg20
(lp2447
g34
asbI1
(tg1261
I00
S'\x17\xc4\xdfb=\xc4HB'
p2448
tp2449
bag5
(g6
(I0
tp2450
g8
tp2451
Rp2452
(g11
(g12
g13
Ntp2453
Rp2454
(dp2455
g17
(lp2456
I1
asg19
I1
sg20
(lp2457
g34
asbI1
(tg1261
I00
S'\xe0\xf9\x13\xaf\xdf\xd3HB'
p2458
tp2459
bag5
(g6
(I0
tp2460
g8
tp2461
Rp2462
(g11
(g12
g13
Ntp2463
Rp2464
(dp2465
g17
(lp2466
I1
asg19
I1
sg20
(lp2467
g34
asbI1
(tg1261
I00
S'\x80\x16\x91^\x02\xdfHB'
p2468
tp2469
bag5
(g6
(I0
tp2470
g8
tp2471
Rp2472
(g11
(g12
g13
Ntp2473
Rp2474
(dp2475
g17
(lp2476
I1
asg19
I1
sg20
(lp2477
g34
asbI1
(tg1261
I00
S'\xc91w.\xa4\xdcHB'
p2478
tp2479
bag5
(g6
(I0
tp2480
g8
tp2481
Rp2482
(g11
(g12
g13
Ntp2483
Rp2484
(dp2485
g17
(lp2486
I1
asg19
I1
sg20
(lp2487
g34
asbI1
(tg1261
I00
S'AK\xff\xdd\x03\xddHB'
p2488
tp2489
bag5
(g6
(I0
tp2490
g8
tp2491
Rp2492
(g11
(g12
g13
Ntp2493
Rp2494
(dp2495
g17
(lp2496
I1
asg19
I1
sg20
(lp2497
g34
asbI1
(tg1261
I00
S'\x12\xff\xedV\xc7\xdeHB'
p2498
tp2499
bag5
(g6
(I0
tp2500
g8
tp2501
Rp2502
(g11
(g12
g13
Ntp2503
Rp2504
(dp2505
g17
(lp2506
I1
asg19
I1
sg20
(lp2507
g34
asbI1
(tg1261
I00
S'n\xd7\xd2\xfai\xdcHB'
p2508
tp2509
bassS'g1.05e13'
p2510
(dp2511
S'mbh'
p2512
(lp2513
I0
aI0
ag5
(g6
(I0
tp2514
g8
tp2515
Rp2516
(g11
(g12
g13
Ntp2517
Rp2518
(dp2519
g17
(lp2520
I1
asg19
I1
sg20
(lp2521
g34
asbI1
(tg35
(S'f8'
p2522
I0
I1
tp2523
Rp2524
(I3
S'<'
p2525
NNNI-1
I-1
I0
tp2526
bI00
S'A]\xed\xc2\x92\xf6\xfa@'
p2527
tp2528
bag5
(g6
(I0
tp2529
g8
tp2530
Rp2531
(g11
(g12
g13
Ntp2532
Rp2533
(dp2534
g17
(lp2535
I1
asg19
I1
sg20
(lp2536
g34
asbI1
(tg2524
I00
S'\xc2Im\x05\x02D\xfe@'
p2537
tp2538
bag5
(g6
(I0
tp2539
g8
tp2540
Rp2541
(g11
(g12
g13
Ntp2542
Rp2543
(dp2544
g17
(lp2545
I1
asg19
I1
sg20
(lp2546
g34
asbI1
(tg2524
I00
S'\xebUo\x8cpl\x00A'
p2547
tp2548
bag5
(g6
(I0
tp2549
g8
tp2550
Rp2551
(g11
(g12
g13
Ntp2552
Rp2553
(dp2554
g17
(lp2555
I1
asg19
I1
sg20
(lp2556
g34
asbI1
(tg2524
I00
S'Mx\xde\t+\x01\x01A'
p2557
tp2558
bag5
(g6
(I0
tp2559
g8
tp2560
Rp2561
(g11
(g12
g13
Ntp2562
Rp2563
(dp2564
g17
(lp2565
I1
asg19
I1
sg20
(lp2566
g34
asbI1
(tg2524
I00
S"=p'\xd5\x89\x97\x02A"
p2567
tp2568
bag5
(g6
(I0
tp2569
g8
tp2570
Rp2571
(g11
(g12
g13
Ntp2572
Rp2573
(dp2574
g17
(lp2575
I1
asg19
I1
sg20
(lp2576
g34
asbI1
(tg2524
I00
S'\xc7\x0b\xa17(\xb5\x03A'
p2577
tp2578
bag5
(g6
(I0
tp2579
g8
tp2580
Rp2581
(g11
(g12
g13
Ntp2582
Rp2583
(dp2584
g17
(lp2585
I1
asg19
I1
sg20
(lp2586
g34
asbI1
(tg2524
I00
S'G,\xa5\xb0 \xff\x1eA'
p2587
tp2588
bag5
(g6
(I0
tp2589
g8
tp2590
Rp2591
(g11
(g12
g13
Ntp2592
Rp2593
(dp2594
g17
(lp2595
I1
asg19
I1
sg20
(lp2596
g34
asbI1
(tg2524
I00
S'\x1cE\xa4r\\\x1c@A'
p2597
tp2598
bag5
(g6
(I0
tp2599
g8
tp2600
Rp2601
(g11
(g12
g13
Ntp2602
Rp2603
(dp2604
g17
(lp2605
I1
asg19
I1
sg20
(lp2606
g34
asbI1
(tg2524
I00
S'W\x1b\x8eg\xf4\x14YA'
p2607
tp2608
bag5
(g6
(I0
tp2609
g8
tp2610
Rp2611
(g11
(g12
g13
Ntp2612
Rp2613
(dp2614
g17
(lp2615
I1
asg19
I1
sg20
(lp2616
g34
asbI1
(tg2524
I00
S'\xba\x05\xb5[\t\x10\x81A'
p2617
tp2618
bag5
(g6
(I0
tp2619
g8
tp2620
Rp2621
(g11
(g12
g13
Ntp2622
Rp2623
(dp2624
g17
(lp2625
I1
asg19
I1
sg20
(lp2626
g34
asbI1
(tg2524
I00
S'\xab\xf6\x8f\xe8<!\xa2A'
p2627
tp2628
bag5
(g6
(I0
tp2629
g8
tp2630
Rp2631
(g11
(g12
g13
Ntp2632
Rp2633
(dp2634
g17
(lp2635
I1
asg19
I1
sg20
(lp2636
g34
asbI1
(tg2524
I00
S'\xa7\x7f\xcc\x1cV\xf6\xadA'
p2637
tp2638
bag5
(g6
(I0
tp2639
g8
tp2640
Rp2641
(g11
(g12
g13
Ntp2642
Rp2643
(dp2644
g17
(lp2645
I1
asg19
I1
sg20
(lp2646
g34
asbI1
(tg2524
I00
S'\xad\xb6\xe6\xafU\xf1\xb1A'
p2647
tp2648
bag5
(g6
(I0
tp2649
g8
tp2650
Rp2651
(g11
(g12
g13
Ntp2652
Rp2653
(dp2654
g17
(lp2655
I1
asg19
I1
sg20
(lp2656
g34
asbI1
(tg2524
I00
S'\x87\xa8p\xa55\xe9\xb3A'
p2657
tp2658
bag5
(g6
(I0
tp2659
g8
tp2660
Rp2661
(g11
(g12
g13
Ntp2662
Rp2663
(dp2664
g17
(lp2665
I1
asg19
I1
sg20
(lp2666
g34
asbI1
(tg2524
I00
S'uZ\xc1\xfa\x86q\xb5A'
p2667
tp2668
bag5
(g6
(I0
tp2669
g8
tp2670
Rp2671
(g11
(g12
g13
Ntp2672
Rp2673
(dp2674
g17
(lp2675
I1
asg19
I1
sg20
(lp2676
g34
asbI1
(tg2524
I00
S'\xcf\xe1\xa4\t\xd6\x15\xb6A'
p2677
tp2678
bag5
(g6
(I0
tp2679
g8
tp2680
Rp2681
(g11
(g12
g13
Ntp2682
Rp2683
(dp2684
g17
(lp2685
I1
asg19
I1
sg20
(lp2686
g34
asbI1
(tg2524
I00
S'N*\xe5\x9b6\x8f\x98A'
p2687
tp2688
bag5
(g6
(I0
tp2689
g8
tp2690
Rp2691
(g11
(g12
g13
Ntp2692
Rp2693
(dp2694
g17
(lp2695
I1
asg19
I1
sg20
(lp2696
g34
asbI1
(tg2524
I00
S'\xba\rw\x81i\xc0\xa6A'
p2697
tp2698
bag5
(g6
(I0
tp2699
g8
tp2700
Rp2701
(g11
(g12
g13
Ntp2702
Rp2703
(dp2704
g17
(lp2705
I1
asg19
I1
sg20
(lp2706
g34
asbI1
(tg2524
I00
S'\xda\x15ID\x17T\xaaA'
p2707
tp2708
bag5
(g6
(I0
tp2709
g8
tp2710
Rp2711
(g11
(g12
g13
Ntp2712
Rp2713
(dp2714
g17
(lp2715
I1
asg19
I1
sg20
(lp2716
g34
asbI1
(tg2524
I00
S'J\xcc \x0e\x136\xafA'
p2717
tp2718
bag5
(g6
(I0
tp2719
g8
tp2720
Rp2721
(g11
(g12
g13
Ntp2722
Rp2723
(dp2724
g17
(lp2725
I1
asg19
I1
sg20
(lp2726
g34
asbI1
(tg2524
I00
S'\xab#\xe0;\xfcq\xb1A'
p2727
tp2728
bag5
(g6
(I0
tp2729
g8
tp2730
Rp2731
(g11
(g12
g13
Ntp2732
Rp2733
(dp2734
g17
(lp2735
I1
asg19
I1
sg20
(lp2736
g34
asbI1
(tg2524
I00
S'-\xaa>\xfa\xe1\x84\xb3A'
p2737
tp2738
bag5
(g6
(I0
tp2739
g8
tp2740
Rp2741
(g11
(g12
g13
Ntp2742
Rp2743
(dp2744
g17
(lp2745
I1
asg19
I1
sg20
(lp2746
g34
asbI1
(tg2524
I00
S'}\x9au\xbf\x9e\xaa\xbcA'
p2747
tp2748
bag5
(g6
(I0
tp2749
g8
tp2750
Rp2751
(g11
(g12
g13
Ntp2752
Rp2753
(dp2754
g17
(lp2755
I1
asg19
I1
sg20
(lp2756
g34
asbI1
(tg2524
I00
S'g\xc6\xc6\xbf\xc9@\xbeA'
p2757
tp2758
bag5
(g6
(I0
tp2759
g8
tp2760
Rp2761
(g11
(g12
g13
Ntp2762
Rp2763
(dp2764
g17
(lp2765
I1
asg19
I1
sg20
(lp2766
g34
asbI1
(tg2524
I00
S'\xf1?\x8bj\x1e\t\xc0A'
p2767
tp2768
bag5
(g6
(I0
tp2769
g8
tp2770
Rp2771
(g11
(g12
g13
Ntp2772
Rp2773
(dp2774
g17
(lp2775
I1
asg19
I1
sg20
(lp2776
g34
asbI1
(tg2524
I00
S'\xa8\x06\xf0\xc5Z\x8f\xc0A'
p2777
tp2778
bag5
(g6
(I0
tp2779
g8
tp2780
Rp2781
(g11
(g12
g13
Ntp2782
Rp2783
(dp2784
g17
(lp2785
I1
asg19
I1
sg20
(lp2786
g34
asbI1
(tg2524
I00
S'\xde\xb7\x02^o\xa9\xc1A'
p2787
tp2788
bag5
(g6
(I0
tp2789
g8
tp2790
Rp2791
(g11
(g12
g13
Ntp2792
Rp2793
(dp2794
g17
(lp2795
I1
asg19
I1
sg20
(lp2796
g34
asbI1
(tg2524
I00
S']\xab\xf1U5\xaf\xc2A'
p2797
tp2798
bag5
(g6
(I0
tp2799
g8
tp2800
Rp2801
(g11
(g12
g13
Ntp2802
Rp2803
(dp2804
g17
(lp2805
I1
asg19
I1
sg20
(lp2806
g34
asbI1
(tg2524
I00
S'\xf6*?\xc1E\x13\xc4A'
p2807
tp2808
bag5
(g6
(I0
tp2809
g8
tp2810
Rp2811
(g11
(g12
g13
Ntp2812
Rp2813
(dp2814
g17
(lp2815
I1
asg19
I1
sg20
(lp2816
g34
asbI1
(tg2524
I00
S'X\xcag`\x99\x8b\xc5A'
p2817
tp2818
bag5
(g6
(I0
tp2819
g8
tp2820
Rp2821
(g11
(g12
g13
Ntp2822
Rp2823
(dp2824
g17
(lp2825
I1
asg19
I1
sg20
(lp2826
g34
asbI1
(tg2524
I00
S'R\xf3\x92U\x88\xf1\xccA'
p2827
tp2828
bag5
(g6
(I0
tp2829
g8
tp2830
Rp2831
(g11
(g12
g13
Ntp2832
Rp2833
(dp2834
g17
(lp2835
I1
asg19
I1
sg20
(lp2836
g34
asbI1
(tg2524
I00
S'h\x81\x8a\xe8?\xde\xcdA'
p2837
tp2838
bag5
(g6
(I0
tp2839
g8
tp2840
Rp2841
(g11
(g12
g13
Ntp2842
Rp2843
(dp2844
g17
(lp2845
I1
asg19
I1
sg20
(lp2846
g34
asbI1
(tg2524
I00
S'\x00\xa8\x89\x81\xe9\xc8\xceA'
p2847
tp2848
bag5
(g6
(I0
tp2849
g8
tp2850
Rp2851
(g11
(g12
g13
Ntp2852
Rp2853
(dp2854
g17
(lp2855
I1
asg19
I1
sg20
(lp2856
g34
asbI1
(tg2524
I00
S'V9\xc0z\xd9y\xd0A'
p2857
tp2858
bag5
(g6
(I0
tp2859
g8
tp2860
Rp2861
(g11
(g12
g13
Ntp2862
Rp2863
(dp2864
g17
(lp2865
I1
asg19
I1
sg20
(lp2866
g34
asbI1
(tg2524
I00
S'?!\x9dw\xe4\xd2\xd3A'
p2867
tp2868
bag5
(g6
(I0
tp2869
g8
tp2870
Rp2871
(g11
(g12
g13
Ntp2872
Rp2873
(dp2874
g17
(lp2875
I1
asg19
I1
sg20
(lp2876
g34
asbI1
(tg2524
I00
S'#\xa6K\xf6\x04c\xd4A'
p2877
tp2878
bag5
(g6
(I0
tp2879
g8
tp2880
Rp2881
(g11
(g12
g13
Ntp2882
Rp2883
(dp2884
g17
(lp2885
I1
asg19
I1
sg20
(lp2886
g34
asbI1
(tg2524
I00
S'OO\xf6R\xa1\x84\xd4A'
p2887
tp2888
bag5
(g6
(I0
tp2889
g8
tp2890
Rp2891
(g11
(g12
g13
Ntp2892
Rp2893
(dp2894
g17
(lp2895
I1
asg19
I1
sg20
(lp2896
g34
asbI1
(tg2524
I00
S'\xe0\x01cp\xb2\x8b\xd4A'
p2897
tp2898
bag5
(g6
(I0
tp2899
g8
tp2900
Rp2901
(g11
(g12
g13
Ntp2902
Rp2903
(dp2904
g17
(lp2905
I1
asg19
I1
sg20
(lp2906
g34
asbI1
(tg2524
I00
S'{_\x8bm\xb0\x8e\xd4A'
p2907
tp2908
bag5
(g6
(I0
tp2909
g8
tp2910
Rp2911
(g11
(g12
g13
Ntp2912
Rp2913
(dp2914
g17
(lp2915
I1
asg19
I1
sg20
(lp2916
g34
asbI1
(tg2524
I00
S'\x90\x94\xaa\x1b-\x92\xd4A'
p2917
tp2918
bag5
(g6
(I0
tp2919
g8
tp2920
Rp2921
(g11
(g12
g13
Ntp2922
Rp2923
(dp2924
g17
(lp2925
I1
asg19
I1
sg20
(lp2926
g34
asbI1
(tg2524
I00
S'\xd3\xc5GO\xe4\x96\xd4A'
p2927
tp2928
bag5
(g6
(I0
tp2929
g8
tp2930
Rp2931
(g11
(g12
g13
Ntp2932
Rp2933
(dp2934
g17
(lp2935
I1
asg19
I1
sg20
(lp2936
g34
asbI1
(tg2524
I00
S'Hc\xf1\xc1_\x9d\xd4A'
p2937
tp2938
bag5
(g6
(I0
tp2939
g8
tp2940
Rp2941
(g11
(g12
g13
Ntp2942
Rp2943
(dp2944
g17
(lp2945
I1
asg19
I1
sg20
(lp2946
g34
asbI1
(tg2524
I00
S'3\xe5/\xb2\xc6\xa3\xd4A'
p2947
tp2948
bag5
(g6
(I0
tp2949
g8
tp2950
Rp2951
(g11
(g12
g13
Ntp2952
Rp2953
(dp2954
g17
(lp2955
I1
asg19
I1
sg20
(lp2956
g34
asbI1
(tg2524
I00
S'rE\x0e\x0f\x97\xa9\xd4A'
p2957
tp2958
bag5
(g6
(I0
tp2959
g8
tp2960
Rp2961
(g11
(g12
g13
Ntp2962
Rp2963
(dp2964
g17
(lp2965
I1
asg19
I1
sg20
(lp2966
g34
asbI1
(tg2524
I00
S'V.\r\x84O\xb0\xd4A'
p2967
tp2968
bag5
(g6
(I0
tp2969
g8
tp2970
Rp2971
(g11
(g12
g13
Ntp2972
Rp2973
(dp2974
g17
(lp2975
I1
asg19
I1
sg20
(lp2976
g34
asbI1
(tg2524
I00
S'\x8c\xa8\x19g\xee\xbc\xd4A'
p2977
tp2978
bag5
(g6
(I0
tp2979
g8
tp2980
Rp2981
(g11
(g12
g13
Ntp2982
Rp2983
(dp2984
g17
(lp2985
I1
asg19
I1
sg20
(lp2986
g34
asbI1
(tg2524
I00
S'\x0f P\xe5\x88\xc2\xd4A'
p2987
tp2988
bag5
(g6
(I0
tp2989
g8
tp2990
Rp2991
(g11
(g12
g13
Ntp2992
Rp2993
(dp2994
g17
(lp2995
I1
asg19
I1
sg20
(lp2996
g34
asbI1
(tg2524
I00
S'\xbd\xea\x16\xec;\xc8\xd4A'
p2997
tp2998
bag5
(g6
(I0
tp2999
g8
tp3000
Rp3001
(g11
(g12
g13
Ntp3002
Rp3003
(dp3004
g17
(lp3005
I1
asg19
I1
sg20
(lp3006
g34
asbI1
(tg2524
I00
S'!\xa5\xf5 y\xd1\xd4A'
p3007
tp3008
bag5
(g6
(I0
tp3009
g8
tp3010
Rp3011
(g11
(g12
g13
Ntp3012
Rp3013
(dp3014
g17
(lp3015
I1
asg19
I1
sg20
(lp3016
g34
asbI1
(tg2524
I00
S'\x1c\xe6\x96\x88\xba\xde\xd4A'
p3017
tp3018
bag5
(g6
(I0
tp3019
g8
tp3020
Rp3021
(g11
(g12
g13
Ntp3022
Rp3023
(dp3024
g17
(lp3025
I1
asg19
I1
sg20
(lp3026
g34
asbI1
(tg2524
I00
S'\xde\xba\x9b\xae\x1e\xe8\xd4A'
p3027
tp3028
bag5
(g6
(I0
tp3029
g8
tp3030
Rp3031
(g11
(g12
g13
Ntp3032
Rp3033
(dp3034
g17
(lp3035
I1
asg19
I1
sg20
(lp3036
g34
asbI1
(tg2524
I00
S'\xc9\x15b#\x1b\xf6\xd4A'
p3037
tp3038
bag5
(g6
(I0
tp3039
g8
tp3040
Rp3041
(g11
(g12
g13
Ntp3042
Rp3043
(dp3044
g17
(lp3045
I1
asg19
I1
sg20
(lp3046
g34
asbI1
(tg2524
I00
S'\x1b\xc4\xc4X\xf5\x02\xd5A'
p3047
tp3048
bag5
(g6
(I0
tp3049
g8
tp3050
Rp3051
(g11
(g12
g13
Ntp3052
Rp3053
(dp3054
g17
(lp3055
I1
asg19
I1
sg20
(lp3056
g34
asbI1
(tg2524
I00
S'\n\xd0\xc3g\xd0$\xd5A'
p3057
tp3058
bag5
(g6
(I0
tp3059
g8
tp3060
Rp3061
(g11
(g12
g13
Ntp3062
Rp3063
(dp3064
g17
(lp3065
I1
asg19
I1
sg20
(lp3066
g34
asbI1
(tg2524
I00
S'\xc4\xff:+`.\xd5A'
p3067
tp3068
bag5
(g6
(I0
tp3069
g8
tp3070
Rp3071
(g11
(g12
g13
Ntp3072
Rp3073
(dp3074
g17
(lp3075
I1
asg19
I1
sg20
(lp3076
g34
asbI1
(tg2524
I00
S'X\t\xc3\xc4b:\xd5A'
p3077
tp3078
bag5
(g6
(I0
tp3079
g8
tp3080
Rp3081
(g11
(g12
g13
Ntp3082
Rp3083
(dp3084
g17
(lp3085
I1
asg19
I1
sg20
(lp3086
g34
asbI1
(tg2524
I00
S"\xc1\xa0'.\xa7F\xd5A"
p3087
tp3088
bag5
(g6
(I0
tp3089
g8
tp3090
Rp3091
(g11
(g12
g13
Ntp3092
Rp3093
(dp3094
g17
(lp3095
I1
asg19
I1
sg20
(lp3096
g34
asbI1
(tg2524
I00
S'+|Y\xdaIR\xd5A'
p3097
tp3098
bag5
(g6
(I0
tp3099
g8
tp3100
Rp3101
(g11
(g12
g13
Ntp3102
Rp3103
(dp3104
g17
(lp3105
I1
asg19
I1
sg20
(lp3106
g34
asbI1
(tg2524
I00
S'q\xbd\xad\x08\x88^\xd5A'
p3107
tp3108
bag5
(g6
(I0
tp3109
g8
tp3110
Rp3111
(g11
(g12
g13
Ntp3112
Rp3113
(dp3114
g17
(lp3115
I1
asg19
I1
sg20
(lp3116
g34
asbI1
(tg2524
I00
S'<\xba\x13\x0b\xcag\xd5A'
p3117
tp3118
bag5
(g6
(I0
tp3119
g8
tp3120
Rp3121
(g11
(g12
g13
Ntp3122
Rp3123
(dp3124
g17
(lp3125
I1
asg19
I1
sg20
(lp3126
g34
asbI1
(tg2524
I00
S'\x14\x80\xf1%Rq\xd5A'
p3127
tp3128
bag5
(g6
(I0
tp3129
g8
tp3130
Rp3131
(g11
(g12
g13
Ntp3132
Rp3133
(dp3134
g17
(lp3135
I1
asg19
I1
sg20
(lp3136
g34
asbI1
(tg2524
I00
S'v\xfb\xbb\x10\xd9\x81\xd5A'
p3137
tp3138
basS'z'
p3139
(lp3140
F15.21405320322921
aF9.894320197673142
aF7.505628545441848
aF6.102643254843908
aF5.16283598378028
aF4.481594594061921
aF3.9609738952834475
aF3.547708985646077
aF3.2101378713117343
aF2.9281587486434693
aF2.688343845413997
aF2.4813531690588175
aF2.300472059089629
aF2.1407388896027233
aF1.998401346143806
aF1.8705647324276962
aF1.754957193574202
aF1.6497686603988262
aF1.553537709393383
aF1.465070403238245
aF1.3833809818213414
aF1.3076477965675055
aF1.23718007884781
aF1.1713925389957818
aF1.1097857117818184
aF1.0519305776284695
aF0.9974564057190631
aF0.9460410532092647
aF0.8974031568637695
aF0.8512957972583748
aF0.8075013193610738
aF0.7658270689435218
aF0.7261018600768294
aF0.6881730305643579
aF0.6519039734767658
aF0.6171720567390486
aF0.5838668609401718
aF0.5518886796063365
aF0.5211472371266319
aF0.4915605880985465
aF0.4630541686269518
aF0.4355599754863029
aF0.4090158533409203
aF0.38336487367053684
aF0.3585547918285601
aF0.33453757092128567
aF0.3112689630395158
aF0.2887081398850184
aF0.2668173660781159
aF0.2455617094612801
aF0.22490878356744437
aF0.20482851813348169
aF0.18529295413470326
aF0.1662760603161757
aF0.1477535686178788
aF0.12970282624681073
aF0.11210266245112321
aF0.0949332683082662
aF0.07817608805831644
aF0.061813720701191954
aF0.045829830737347255
aF0.03020906707006632
aF0.01493698920675568
aF-9.325873406851315e-15
asS'mstar'
p3141
(lp3142
g5
(g6
(I0
tp3143
g8
tp3144
Rp3145
(g11
(g12
g13
Ntp3146
Rp3147
(dp3148
g17
(lp3149
I1
asg19
I1
sg20
(lp3150
g34
asbI1
(tg2524
I00
S'\x00\x00\x00\x00\x00\x00\x00\x00'
p3151
tp3152
bag5
(g6
(I0
tp3153
g8
tp3154
Rp3155
(g11
(g12
g13
Ntp3156
Rp3157
(dp3158
g17
(lp3159
I1
asg19
I1
sg20
(lp3160
g34
asbI1
(tg2524
I00
S'\xe2\\\xa9\xeed\xb2\xa0A'
p3161
tp3162
bag5
(g6
(I0
tp3163
g8
tp3164
Rp3165
(g11
(g12
g13
Ntp3166
Rp3167
(dp3168
g17
(lp3169
I1
asg19
I1
sg20
(lp3170
g34
asbI1
(tg2524
I00
S"\xf8\x1f\x89y'M\xccA"
p3171
tp3172
bag5
(g6
(I0
tp3173
g8
tp3174
Rp3175
(g11
(g12
g13
Ntp3176
Rp3177
(dp3178
g17
(lp3179
I1
asg19
I1
sg20
(lp3180
g34
asbI1
(tg2524
I00
S"*\x10'F\x8d\x96\xe4A"
p3181
tp3182
bag5
(g6
(I0
tp3183
g8
tp3184
Rp3185
(g11
(g12
g13
Ntp3186
Rp3187
(dp3188
g17
(lp3189
I1
asg19
I1
sg20
(lp3190
g34
asbI1
(tg2524
I00
S'\x8d\xfd\xa4\xe2\x8f\xe2\xf7A'
p3191
tp3192
bag5
(g6
(I0
tp3193
g8
tp3194
Rp3195
(g11
(g12
g13
Ntp3196
Rp3197
(dp3198
g17
(lp3199
I1
asg19
I1
sg20
(lp3200
g34
asbI1
(tg2524
I00
S'0o\xfcc\x11\xbd\x04B'
p3201
tp3202
bag5
(g6
(I0
tp3203
g8
tp3204
Rp3205
(g11
(g12
g13
Ntp3206
Rp3207
(dp3208
g17
(lp3209
I1
asg19
I1
sg20
(lp3210
g34
asbI1
(tg2524
I00
S'\x1a\xc2\xe7\xc5M&\x12B'
p3211
tp3212
bag5
(g6
(I0
tp3213
g8
tp3214
Rp3215
(g11
(g12
g13
Ntp3216
Rp3217
(dp3218
g17
(lp3219
I1
asg19
I1
sg20
(lp3220
g34
asbI1
(tg2524
I00
S'/\xe6\xdf\xa7v\xeb\x1aB'
p3221
tp3222
bag5
(g6
(I0
tp3223
g8
tp3224
Rp3225
(g11
(g12
g13
Ntp3226
Rp3227
(dp3228
g17
(lp3229
I1
asg19
I1
sg20
(lp3230
g34
asbI1
(tg2524
I00
S'\xd1\xad\x8ag0P%B'
p3231
tp3232
bag5
(g6
(I0
tp3233
g8
tp3234
Rp3235
(g11
(g12
g13
Ntp3236
Rp3237
(dp3238
g17
(lp3239
I1
asg19
I1
sg20
(lp3240
g34
asbI1
(tg2524
I00
S'V\x8e\x1b\x85\x04d.B'
p3241
tp3242
bag5
(g6
(I0
tp3243
g8
tp3244
Rp3245
(g11
(g12
g13
Ntp3246
Rp3247
(dp3248
g17
(lp3249
I1
asg19
I1
sg20
(lp3250
g34
asbI1
(tg2524
I00
S'K\xfb\xe1\t\xd0w4B'
p3251
tp3252
bag5
(g6
(I0
tp3253
g8
tp3254
Rp3255
(g11
(g12
g13
Ntp3256
Rp3257
(dp3258
g17
(lp3259
I1
asg19
I1
sg20
(lp3260
g34
asbI1
(tg2524
I00
S'.1\x8fX\xce\x958B'
p3261
tp3262
bag5
(g6
(I0
tp3263
g8
tp3264
Rp3265
(g11
(g12
g13
Ntp3266
Rp3267
(dp3268
g17
(lp3269
I1
asg19
I1
sg20
(lp3270
g34
asbI1
(tg2524
I00
S'\xc9\xd7`\x96uc:B'
p3271
tp3272
bag5
(g6
(I0
tp3273
g8
tp3274
Rp3275
(g11
(g12
g13
Ntp3276
Rp3277
(dp3278
g17
(lp3279
I1
asg19
I1
sg20
(lp3280
g34
asbI1
(tg2524
I00
S'ks7&\x02\x13:B'
p3281
tp3282
bag5
(g6
(I0
tp3283
g8
tp3284
Rp3285
(g11
(g12
g13
Ntp3286
Rp3287
(dp3288
g17
(lp3289
I1
asg19
I1
sg20
(lp3290
g34
asbI1
(tg2524
I00
S'\x80\xd4\x80\x93 \xd59B'
p3291
tp3292
bag5
(g6
(I0
tp3293
g8
tp3294
Rp3295
(g11
(g12
g13
Ntp3296
Rp3297
(dp3298
g17
(lp3299
I1
asg19
I1
sg20
(lp3300
g34
asbI1
(tg2524
I00
S'@\xd2\xa2\xbd\xfe\xaa9B'
p3301
tp3302
bag5
(g6
(I0
tp3303
g8
tp3304
Rp3305
(g11
(g12
g13
Ntp3306
Rp3307
(dp3308
g17
(lp3309
I1
asg19
I1
sg20
(lp3310
g34
asbI1
(tg2524
I00
S'\xac\x99\x80\x006y9B'
p3311
tp3312
bag5
(g6
(I0
tp3313
g8
tp3314
Rp3315
(g11
(g12
g13
Ntp3316
Rp3317
(dp3318
g17
(lp3319
I1
asg19
I1
sg20
(lp3320
g34
asbI1
(tg2524
I00
S'\x10:\xef\x9d\xd1N9B'
p3321
tp3322
bag5
(g6
(I0
tp3323
g8
tp3324
Rp3325
(g11
(g12
g13
Ntp3326
Rp3327
(dp3328
g17
(lp3329
I1
asg19
I1
sg20
(lp3330
g34
asbI1
(tg2524
I00
S'H3\xfc@\xad\x82/B'
p3331
tp3332
bag5
(g6
(I0
tp3333
g8
tp3334
Rp3335
(g11
(g12
g13
Ntp3336
Rp3337
(dp3338
g17
(lp3339
I1
asg19
I1
sg20
(lp3340
g34
asbI1
(tg2524
I00
S'\xc7\xa4\xc20\xf5\xf1/B'
p3341
tp3342
bag5
(g6
(I0
tp3343
g8
tp3344
Rp3345
(g11
(g12
g13
Ntp3346
Rp3347
(dp3348
g17
(lp3349
I1
asg19
I1
sg20
(lp3350
g34
asbI1
(tg2524
I00
S"F\x8a\xdf'B\x1f0B"
p3351
tp3352
bag5
(g6
(I0
tp3353
g8
tp3354
Rp3355
(g11
(g12
g13
Ntp3356
Rp3357
(dp3358
g17
(lp3359
I1
asg19
I1
sg20
(lp3360
g34
asbI1
(tg2524
I00
S'\xc7\xe1\t+\x14?0B'
p3361
tp3362
bag5
(g6
(I0
tp3363
g8
tp3364
Rp3365
(g11
(g12
g13
Ntp3366
Rp3367
(dp3368
g17
(lp3369
I1
asg19
I1
sg20
(lp3370
g34
asbI1
(tg2524
I00
S'\xbc\x1f\xe7\xbf\xa5F0B'
p3371
tp3372
bag5
(g6
(I0
tp3373
g8
tp3374
Rp3375
(g11
(g12
g13
Ntp3376
Rp3377
(dp3378
g17
(lp3379
I1
asg19
I1
sg20
(lp3380
g34
asbI1
(tg2524
I00
S'\xf1)\xa3\xbe\xc5<0B'
p3381
tp3382
bag5
(g6
(I0
tp3383
g8
tp3384
Rp3385
(g11
(g12
g13
Ntp3386
Rp3387
(dp3388
g17
(lp3389
I1
asg19
I1
sg20
(lp3390
g34
asbI1
(tg2524
I00
S'\xbc8\xd8 F\xe4EB'
p3391
tp3392
bag5
(g6
(I0
tp3393
g8
tp3394
Rp3395
(g11
(g12
g13
Ntp3396
Rp3397
(dp3398
g17
(lp3399
I1
asg19
I1
sg20
(lp3400
g34
asbI1
(tg2524
I00
S'd\xd5\xe1X\x11\xd7EB'
p3401
tp3402
bag5
(g6
(I0
tp3403
g8
tp3404
Rp3405
(g11
(g12
g13
Ntp3406
Rp3407
(dp3408
g17
(lp3409
I1
asg19
I1
sg20
(lp3410
g34
asbI1
(tg2524
I00
S'r\x85m+\xbf\xc8EB'
p3411
tp3412
bag5
(g6
(I0
tp3413
g8
tp3414
Rp3415
(g11
(g12
g13
Ntp3416
Rp3417
(dp3418
g17
(lp3419
I1
asg19
I1
sg20
(lp3420
g34
asbI1
(tg2524
I00
S'\x08q\xb2\xa5\xc9\xb5EB'
p3421
tp3422
bag5
(g6
(I0
tp3423
g8
tp3424
Rp3425
(g11
(g12
g13
Ntp3426
Rp3427
(dp3428
g17
(lp3429
I1
asg19
I1
sg20
(lp3430
g34
asbI1
(tg2524
I00
S'-\xb8ti\x95\xa8EB'
p3431
tp3432
bag5
(g6
(I0
tp3433
g8
tp3434
Rp3435
(g11
(g12
g13
Ntp3436
Rp3437
(dp3438
g17
(lp3439
I1
asg19
I1
sg20
(lp3440
g34
asbI1
(tg2524
I00
S'\xf9\x1d\xd4\xeaH\x9aEB'
p3441
tp3442
bag5
(g6
(I0
tp3443
g8
tp3444
Rp3445
(g11
(g12
g13
Ntp3446
Rp3447
(dp3448
g17
(lp3449
I1
asg19
I1
sg20
(lp3450
g34
asbI1
(tg2524
I00
S'b1\xfdM\x90\xa2EB'
p3451
tp3452
bag5
(g6
(I0
tp3453
g8
tp3454
Rp3455
(g11
(g12
g13
Ntp3456
Rp3457
(dp3458
g17
(lp3459
I1
asg19
I1
sg20
(lp3460
g34
asbI1
(tg2524
I00
S'\x14\xb8\xe46\xba\x9aEB'
p3461
tp3462
bag5
(g6
(I0
tp3463
g8
tp3464
Rp3465
(g11
(g12
g13
Ntp3466
Rp3467
(dp3468
g17
(lp3469
I1
asg19
I1
sg20
(lp3470
g34
asbI1
(tg2524
I00
S'\xdd\xae_-5\x87EB'
p3471
tp3472
bag5
(g6
(I0
tp3473
g8
tp3474
Rp3475
(g11
(g12
g13
Ntp3476
Rp3477
(dp3478
g17
(lp3479
I1
asg19
I1
sg20
(lp3480
g34
asbI1
(tg2524
I00
S'\x07\xa7UO\x07vEB'
p3481
tp3482
bag5
(g6
(I0
tp3483
g8
tp3484
Rp3485
(g11
(g12
g13
Ntp3486
Rp3487
(dp3488
g17
(lp3489
I1
asg19
I1
sg20
(lp3490
g34
asbI1
(tg2524
I00
S'\xd2\x80A\xd1\xc5gEB'
p3491
tp3492
bag5
(g6
(I0
tp3493
g8
tp3494
Rp3495
(g11
(g12
g13
Ntp3496
Rp3497
(dp3498
g17
(lp3499
I1
asg19
I1
sg20
(lp3500
g34
asbI1
(tg2524
I00
S'\xd8\x97\xf9k\x16TEB'
p3501
tp3502
bag5
(g6
(I0
tp3503
g8
tp3504
Rp3505
(g11
(g12
g13
Ntp3506
Rp3507
(dp3508
g17
(lp3509
I1
asg19
I1
sg20
(lp3510
g34
asbI1
(tg2524
I00
S'\x9e\xe6\xbdt5MEB'
p3511
tp3512
bag5
(g6
(I0
tp3513
g8
tp3514
Rp3515
(g11
(g12
g13
Ntp3516
Rp3517
(dp3518
g17
(lp3519
I1
asg19
I1
sg20
(lp3520
g34
asbI1
(tg2524
I00
S'd\x1c7|OCEB'
p3521
tp3522
bag5
(g6
(I0
tp3523
g8
tp3524
Rp3525
(g11
(g12
g13
Ntp3526
Rp3527
(dp3528
g17
(lp3529
I1
asg19
I1
sg20
(lp3530
g34
asbI1
(tg2524
I00
S',!\x99\xe2U7EB'
p3531
tp3532
bag5
(g6
(I0
tp3533
g8
tp3534
Rp3535
(g11
(g12
g13
Ntp3536
Rp3537
(dp3538
g17
(lp3539
I1
asg19
I1
sg20
(lp3540
g34
asbI1
(tg2524
I00
S'\xd9\x12\xcd#\x80-EB'
p3541
tp3542
bag5
(g6
(I0
tp3543
g8
tp3544
Rp3545
(g11
(g12
g13
Ntp3546
Rp3547
(dp3548
g17
(lp3549
I1
asg19
I1
sg20
(lp3550
g34
asbI1
(tg2524
I00
S'\xb5\xb7B&b#EB'
p3551
tp3552
bag5
(g6
(I0
tp3553
g8
tp3554
Rp3555
(g11
(g12
g13
Ntp3556
Rp3557
(dp3558
g17
(lp3559
I1
asg19
I1
sg20
(lp3560
g34
asbI1
(tg2524
I00
S'\n(\xbf\x7f\xae\x1cEB'
p3561
tp3562
bag5
(g6
(I0
tp3563
g8
tp3564
Rp3565
(g11
(g12
g13
Ntp3566
Rp3567
(dp3568
g17
(lp3569
I1
asg19
I1
sg20
(lp3570
g34
asbI1
(tg2524
I00
S'9~O/\xd8\x13EB'
p3571
tp3572
bag5
(g6
(I0
tp3573
g8
tp3574
Rp3575
(g11
(g12
g13
Ntp3576
Rp3577
(dp3578
g17
(lp3579
I1
asg19
I1
sg20
(lp3580
g34
asbI1
(tg2524
I00
S'\xa67\xa7\xd4\x1e\x0bEB'
p3581
tp3582
bag5
(g6
(I0
tp3583
g8
tp3584
Rp3585
(g11
(g12
g13
Ntp3586
Rp3587
(dp3588
g17
(lp3589
I1
asg19
I1
sg20
(lp3590
g34
asbI1
(tg2524
I00
S'\xb1\nw2\x93\x02EB'
p3591
tp3592
bag5
(g6
(I0
tp3593
g8
tp3594
Rp3595
(g11
(g12
g13
Ntp3596
Rp3597
(dp3598
g17
(lp3599
I1
asg19
I1
sg20
(lp3600
g34
asbI1
(tg2524
I00
S'Y^\xbd\x0f~\xfbDB'
p3601
tp3602
bag5
(g6
(I0
tp3603
g8
tp3604
Rp3605
(g11
(g12
g13
Ntp3606
Rp3607
(dp3608
g17
(lp3609
I1
asg19
I1
sg20
(lp3610
g34
asbI1
(tg2524
I00
S'\xc4K.\x1dm\xf4DB'
p3611
tp3612
bag5
(g6
(I0
tp3613
g8
tp3614
Rp3615
(g11
(g12
g13
Ntp3616
Rp3617
(dp3618
g17
(lp3619
I1
asg19
I1
sg20
(lp3620
g34
asbI1
(tg2524
I00
S'\xbf\x9a\xf8\x94\xa7\xedDB'
p3621
tp3622
bag5
(g6
(I0
tp3623
g8
tp3624
Rp3625
(g11
(g12
g13
Ntp3626
Rp3627
(dp3628
g17
(lp3629
I1
asg19
I1
sg20
(lp3630
g34
asbI1
(tg2524
I00
S'\x8e\xf1\xf3\x84$\xe8DB'
p3631
tp3632
bag5
(g6
(I0
tp3633
g8
tp3634
Rp3635
(g11
(g12
g13
Ntp3636
Rp3637
(dp3638
g17
(lp3639
I1
asg19
I1
sg20
(lp3640
g34
asbI1
(tg2524
I00
S'O\xa5m\x83\x94\xf3DB'
p3641
tp3642
bag5
(g6
(I0
tp3643
g8
tp3644
Rp3645
(g11
(g12
g13
Ntp3646
Rp3647
(dp3648
g17
(lp3649
I1
asg19
I1
sg20
(lp3650
g34
asbI1
(tg2524
I00
S'\x88w\xdf\xeb\xdc\x9aFB'
p3651
tp3652
bag5
(g6
(I0
tp3653
g8
tp3654
Rp3655
(g11
(g12
g13
Ntp3656
Rp3657
(dp3658
g17
(lp3659
I1
asg19
I1
sg20
(lp3660
g34
asbI1
(tg2524
I00
S'i\xedUx\x1d\xbcGB'
p3661
tp3662
bag5
(g6
(I0
tp3663
g8
tp3664
Rp3665
(g11
(g12
g13
Ntp3666
Rp3667
(dp3668
g17
(lp3669
I1
asg19
I1
sg20
(lp3670
g34
asbI1
(tg2524
I00
S'\xbc\xa5L\t0\xddGB'
p3671
tp3672
bag5
(g6
(I0
tp3673
g8
tp3674
Rp3675
(g11
(g12
g13
Ntp3676
Rp3677
(dp3678
g17
(lp3679
I1
asg19
I1
sg20
(lp3680
g34
asbI1
(tg2524
I00
S'\x11\xb6\x89\xf3\xe7\xe2GB'
p3681
tp3682
bag5
(g6
(I0
tp3683
g8
tp3684
Rp3685
(g11
(g12
g13
Ntp3686
Rp3687
(dp3688
g17
(lp3689
I1
asg19
I1
sg20
(lp3690
g34
asbI1
(tg2524
I00
S'b\xd4\xa3\x07,\xd3GB'
p3691
tp3692
bag5
(g6
(I0
tp3693
g8
tp3694
Rp3695
(g11
(g12
g13
Ntp3696
Rp3697
(dp3698
g17
(lp3699
I1
asg19
I1
sg20
(lp3700
g34
asbI1
(tg2524
I00
S'[\\\xa2\x8c{\xf4FB'
p3701
tp3702
bag5
(g6
(I0
tp3703
g8
tp3704
Rp3705
(g11
(g12
g13
Ntp3706
Rp3707
(dp3708
g17
(lp3709
I1
asg19
I1
sg20
(lp3710
g34
asbI1
(tg2524
I00
S'B\xae\xf9$\xa6yFB'
p3711
tp3712
bag5
(g6
(I0
tp3713
g8
tp3714
Rp3715
(g11
(g12
g13
Ntp3716
Rp3717
(dp3718
g17
(lp3719
I1
asg19
I1
sg20
(lp3720
g34
asbI1
(tg2524
I00
S'\xca\x14\x88\x83\xe9tFB'
p3721
tp3722
bag5
(g6
(I0
tp3723
g8
tp3724
Rp3725
(g11
(g12
g13
Ntp3726
Rp3727
(dp3728
g17
(lp3729
I1
asg19
I1
sg20
(lp3730
g34
asbI1
(tg2524
I00
S'=}S\xac\xa0sFB'
p3731
tp3732
bag5
(g6
(I0
tp3733
g8
tp3734
Rp3735
(g11
(g12
g13
Ntp3736
Rp3737
(dp3738
g17
(lp3739
I1
asg19
I1
sg20
(lp3740
g34
asbI1
(tg2524
I00
S'-\xcfb\x12?kFB'
p3741
tp3742
bag5
(g6
(I0
tp3743
g8
tp3744
Rp3745
(g11
(g12
g13
Ntp3746
Rp3747
(dp3748
g17
(lp3749
I1
asg19
I1
sg20
(lp3750
g34
asbI1
(tg2524
I00
S'\x10o\x9d:\x1dgFB'
p3751
tp3752
bag5
(g6
(I0
tp3753
g8
tp3754
Rp3755
(g11
(g12
g13
Ntp3756
Rp3757
(dp3758
g17
(lp3759
I1
asg19
I1
sg20
(lp3760
g34
asbI1
(tg2524
I00
S'InC%\xaahFB'
p3761
tp3762
bag5
(g6
(I0
tp3763
g8
tp3764
Rp3765
(g11
(g12
g13
Ntp3766
Rp3767
(dp3768
g17
(lp3769
I1
asg19
I1
sg20
(lp3770
g34
asbI1
(tg2524
I00
S'\xdc!\x9eUggFB'
p3771
tp3772
bag5
(g6
(I0
tp3773
g8
tp3774
Rp3775
(g11
(g12
g13
Ntp3776
Rp3777
(dp3778
g17
(lp3779
I1
asg19
I1
sg20
(lp3780
g34
asbI1
(tg2524
I00
S'\xd5\xbe\x8dZ&eFB'
p3781
tp3782
bassS'g1.12e12'
p3783
(dp3784
S'mbh'
p3785
(lp3786
I0
aI0
aI0
aI0
ag5
(g6
(I0
tp3787
g8
tp3788
Rp3789
(g11
(g12
g13
Ntp3790
Rp3791
(dp3792
g17
(lp3793
I1
asg19
I1
sg20
(lp3794
g34
asbI1
(tg35
(S'f8'
p3795
I0
I1
tp3796
Rp3797
(I3
S'<'
p3798
NNNI-1
I-1
I0
tp3799
bI00
S'\xcc\x06\xe47\x99J\xf9@'
p3800
tp3801
bag5
(g6
(I0
tp3802
g8
tp3803
Rp3804
(g11
(g12
g13
Ntp3805
Rp3806
(dp3807
g17
(lp3808
I1
asg19
I1
sg20
(lp3809
g34
asbI1
(tg3797
I00
S'\xb5l\xc4\xaf,\xdd\xfb@'
p3810
tp3811
bag5
(g6
(I0
tp3812
g8
tp3813
Rp3814
(g11
(g12
g13
Ntp3815
Rp3816
(dp3817
g17
(lp3818
I1
asg19
I1
sg20
(lp3819
g34
asbI1
(tg3797
I00
S'w\x82_\xcd2\xa5\xfe@'
p3820
tp3821
bag5
(g6
(I0
tp3822
g8
tp3823
Rp3824
(g11
(g12
g13
Ntp3825
Rp3826
(dp3827
g17
(lp3828
I1
asg19
I1
sg20
(lp3829
g34
asbI1
(tg3797
I00
S'\x96+\x18&}\x14\x01A'
p3830
tp3831
bag5
(g6
(I0
tp3832
g8
tp3833
Rp3834
(g11
(g12
g13
Ntp3835
Rp3836
(dp3837
g17
(lp3838
I1
asg19
I1
sg20
(lp3839
g34
asbI1
(tg3797
I00
S'-e\xb7\x1a\x00e\x03A'
p3840
tp3841
bag5
(g6
(I0
tp3842
g8
tp3843
Rp3844
(g11
(g12
g13
Ntp3845
Rp3846
(dp3847
g17
(lp3848
I1
asg19
I1
sg20
(lp3849
g34
asbI1
(tg3797
I00
S'\x0f6\nj\xc1\xec\x04A'
p3850
tp3851
bag5
(g6
(I0
tp3852
g8
tp3853
Rp3854
(g11
(g12
g13
Ntp3855
Rp3856
(dp3857
g17
(lp3858
I1
asg19
I1
sg20
(lp3859
g34
asbI1
(tg3797
I00
S'\xc7\x15]\x04\xb1\xa6\x08A'
p3860
tp3861
bag5
(g6
(I0
tp3862
g8
tp3863
Rp3864
(g11
(g12
g13
Ntp3865
Rp3866
(dp3867
g17
(lp3868
I1
asg19
I1
sg20
(lp3869
g34
asbI1
(tg3797
I00
S'\x9f\x8f\xa7\xa3\xa4\xfc\x18A'
p3870
tp3871
bag5
(g6
(I0
tp3872
g8
tp3873
Rp3874
(g11
(g12
g13
Ntp3875
Rp3876
(dp3877
g17
(lp3878
I1
asg19
I1
sg20
(lp3879
g34
asbI1
(tg3797
I00
S'\x8e\xa5\x8dV\xf7W\x1dA'
p3880
tp3881
bag5
(g6
(I0
tp3882
g8
tp3883
Rp3884
(g11
(g12
g13
Ntp3885
Rp3886
(dp3887
g17
(lp3888
I1
asg19
I1
sg20
(lp3889
g34
asbI1
(tg3797
I00
S'\xfe,8*\xb1:!A'
p3890
tp3891
bag5
(g6
(I0
tp3892
g8
tp3893
Rp3894
(g11
(g12
g13
Ntp3895
Rp3896
(dp3897
g17
(lp3898
I1
asg19
I1
sg20
(lp3899
g34
asbI1
(tg3797
I00
S'\xc20s\xa5FS%A'
p3900
tp3901
bag5
(g6
(I0
tp3902
g8
tp3903
Rp3904
(g11
(g12
g13
Ntp3905
Rp3906
(dp3907
g17
(lp3908
I1
asg19
I1
sg20
(lp3909
g34
asbI1
(tg3797
I00
S'\xc8\x85\xf1&\x8a\xd6+A'
p3910
tp3911
bag5
(g6
(I0
tp3912
g8
tp3913
Rp3914
(g11
(g12
g13
Ntp3915
Rp3916
(dp3917
g17
(lp3918
I1
asg19
I1
sg20
(lp3919
g34
asbI1
(tg3797
I00
S'\xb8\xba\x8fn\xa464A'
p3920
tp3921
bag5
(g6
(I0
tp3922
g8
tp3923
Rp3924
(g11
(g12
g13
Ntp3925
Rp3926
(dp3927
g17
(lp3928
I1
asg19
I1
sg20
(lp3929
g34
asbI1
(tg3797
I00
S'\xc4<\x85\x10s_<A'
p3930
tp3931
bag5
(g6
(I0
tp3932
g8
tp3933
Rp3934
(g11
(g12
g13
Ntp3935
Rp3936
(dp3937
g17
(lp3938
I1
asg19
I1
sg20
(lp3939
g34
asbI1
(tg3797
I00
S'\xb0\xa3\xdb\xed\xe1-HA'
p3940
tp3941
bag5
(g6
(I0
tp3942
g8
tp3943
Rp3944
(g11
(g12
g13
Ntp3945
Rp3946
(dp3947
g17
(lp3948
I1
asg19
I1
sg20
(lp3949
g34
asbI1
(tg3797
I00
S'\x85^\xbdt\xdaGTA'
p3950
tp3951
bag5
(g6
(I0
tp3952
g8
tp3953
Rp3954
(g11
(g12
g13
Ntp3955
Rp3956
(dp3957
g17
(lp3958
I1
asg19
I1
sg20
(lp3959
g34
asbI1
(tg3797
I00
S';\x19\xd4\x98\x91)bA'
p3960
tp3961
bag5
(g6
(I0
tp3962
g8
tp3963
Rp3964
(g11
(g12
g13
Ntp3965
Rp3966
(dp3967
g17
(lp3968
I1
asg19
I1
sg20
(lp3969
g34
asbI1
(tg3797
I00
S'6\x80AG\r\x9aqA'
p3970
tp3971
bag5
(g6
(I0
tp3972
g8
tp3973
Rp3974
(g11
(g12
g13
Ntp3975
Rp3976
(dp3977
g17
(lp3978
I1
asg19
I1
sg20
(lp3979
g34
asbI1
(tg3797
I00
S'Z@m\xec\xd9\xbayA'
p3980
tp3981
bag5
(g6
(I0
tp3982
g8
tp3983
Rp3984
(g11
(g12
g13
Ntp3985
Rp3986
(dp3987
g17
(lp3988
I1
asg19
I1
sg20
(lp3989
g34
asbI1
(tg3797
I00
S'\xbe<1\x9b\xa2\xfd\x7fA'
p3990
tp3991
bag5
(g6
(I0
tp3992
g8
tp3993
Rp3994
(g11
(g12
g13
Ntp3995
Rp3996
(dp3997
g17
(lp3998
I1
asg19
I1
sg20
(lp3999
g34
asbI1
(tg3797
I00
S'\xc5\xaf\xe3\xc1.j\x81A'
p4000
tp4001
bag5
(g6
(I0
tp4002
g8
tp4003
Rp4004
(g11
(g12
g13
Ntp4005
Rp4006
(dp4007
g17
(lp4008
I1
asg19
I1
sg20
(lp4009
g34
asbI1
(tg3797
I00
S'p\x9f\xdd\xba(\xbd\x82A'
p4010
tp4011
bag5
(g6
(I0
tp4012
g8
tp4013
Rp4014
(g11
(g12
g13
Ntp4015
Rp4016
(dp4017
g17
(lp4018
I1
asg19
I1
sg20
(lp4019
g34
asbI1
(tg3797
I00
S'|\x01\xa468\xa2\x84A'
p4020
tp4021
bag5
(g6
(I0
tp4022
g8
tp4023
Rp4024
(g11
(g12
g13
Ntp4025
Rp4026
(dp4027
g17
(lp4028
I1
asg19
I1
sg20
(lp4029
g34
asbI1
(tg3797
I00
S'\xcd\x8c}\x8a\x18\x99\x85A'
p4030
tp4031
bag5
(g6
(I0
tp4032
g8
tp4033
Rp4034
(g11
(g12
g13
Ntp4035
Rp4036
(dp4037
g17
(lp4038
I1
asg19
I1
sg20
(lp4039
g34
asbI1
(tg3797
I00
S'\x95\x84\xf9\x11P\xe5\x85A'
p4040
tp4041
bag5
(g6
(I0
tp4042
g8
tp4043
Rp4044
(g11
(g12
g13
Ntp4045
Rp4046
(dp4047
g17
(lp4048
I1
asg19
I1
sg20
(lp4049
g34
asbI1
(tg3797
I00
S'\x1f\x10^R\xa0t\x86A'
p4050
tp4051
bag5
(g6
(I0
tp4052
g8
tp4053
Rp4054
(g11
(g12
g13
Ntp4055
Rp4056
(dp4057
g17
(lp4058
I1
asg19
I1
sg20
(lp4059
g34
asbI1
(tg3797
I00
S'_\x03\x92\r\x05\xa1\x86A'
p4060
tp4061
bag5
(g6
(I0
tp4062
g8
tp4063
Rp4064
(g11
(g12
g13
Ntp4065
Rp4066
(dp4067
g17
(lp4068
I1
asg19
I1
sg20
(lp4069
g34
asbI1
(tg3797
I00
S'jpzFv\xdf\x86A'
p4070
tp4071
bag5
(g6
(I0
tp4072
g8
tp4073
Rp4074
(g11
(g12
g13
Ntp4075
Rp4076
(dp4077
g17
(lp4078
I1
asg19
I1
sg20
(lp4079
g34
asbI1
(tg3797
I00
S'\xdb\xdc\x08R\xc8\xf8\x86A'
p4080
tp4081
bag5
(g6
(I0
tp4082
g8
tp4083
Rp4084
(g11
(g12
g13
Ntp4085
Rp4086
(dp4087
g17
(lp4088
I1
asg19
I1
sg20
(lp4089
g34
asbI1
(tg3797
I00
S'\x8f\x92\xca\x15g\x0e\x87A'
p4090
tp4091
bag5
(g6
(I0
tp4092
g8
tp4093
Rp4094
(g11
(g12
g13
Ntp4095
Rp4096
(dp4097
g17
(lp4098
I1
asg19
I1
sg20
(lp4099
g34
asbI1
(tg3797
I00
S'\x17\x03=\x12hY\x87A'
p4100
tp4101
bag5
(g6
(I0
tp4102
g8
tp4103
Rp4104
(g11
(g12
g13
Ntp4105
Rp4106
(dp4107
g17
(lp4108
I1
asg19
I1
sg20
(lp4109
g34
asbI1
(tg3797
I00
S'\x1f0\xd2\xe9Ni\x87A'
p4110
tp4111
bag5
(g6
(I0
tp4112
g8
tp4113
Rp4114
(g11
(g12
g13
Ntp4115
Rp4116
(dp4117
g17
(lp4118
I1
asg19
I1
sg20
(lp4119
g34
asbI1
(tg3797
I00
S'\xd2\xf7Z\xe5\xd9\xca\x87A'
p4120
tp4121
bag5
(g6
(I0
tp4122
g8
tp4123
Rp4124
(g11
(g12
g13
Ntp4125
Rp4126
(dp4127
g17
(lp4128
I1
asg19
I1
sg20
(lp4129
g34
asbI1
(tg3797
I00
S'.\xe1\x1d\xcd\x1dK\x88A'
p4130
tp4131
bag5
(g6
(I0
tp4132
g8
tp4133
Rp4134
(g11
(g12
g13
Ntp4135
Rp4136
(dp4137
g17
(lp4138
I1
asg19
I1
sg20
(lp4139
g34
asbI1
(tg3797
I00
S'\xa6\x82:<\xaf\x8f\x88A'
p4140
tp4141
bag5
(g6
(I0
tp4142
g8
tp4143
Rp4144
(g11
(g12
g13
Ntp4145
Rp4146
(dp4147
g17
(lp4148
I1
asg19
I1
sg20
(lp4149
g34
asbI1
(tg3797
I00
S'\xd0\r6E\xad\xdc\x88A'
p4150
tp4151
bag5
(g6
(I0
tp4152
g8
tp4153
Rp4154
(g11
(g12
g13
Ntp4155
Rp4156
(dp4157
g17
(lp4158
I1
asg19
I1
sg20
(lp4159
g34
asbI1
(tg3797
I00
S'\x03\xf8\xa1\x9b\x12\r\x89A'
p4160
tp4161
bag5
(g6
(I0
tp4162
g8
tp4163
Rp4164
(g11
(g12
g13
Ntp4165
Rp4166
(dp4167
g17
(lp4168
I1
asg19
I1
sg20
(lp4169
g34
asbI1
(tg3797
I00
S'\x0b>p}:*\x89A'
p4170
tp4171
bag5
(g6
(I0
tp4172
g8
tp4173
Rp4174
(g11
(g12
g13
Ntp4175
Rp4176
(dp4177
g17
(lp4178
I1
asg19
I1
sg20
(lp4179
g34
asbI1
(tg3797
I00
S'\xf3uj"XJ\x89A'
p4180
tp4181
bag5
(g6
(I0
tp4182
g8
tp4183
Rp4184
(g11
(g12
g13
Ntp4185
Rp4186
(dp4187
g17
(lp4188
I1
asg19
I1
sg20
(lp4189
g34
asbI1
(tg3797
I00
S'\xd3\xe6\xc0\x04(a\x89A'
p4190
tp4191
bag5
(g6
(I0
tp4192
g8
tp4193
Rp4194
(g11
(g12
g13
Ntp4195
Rp4196
(dp4197
g17
(lp4198
I1
asg19
I1
sg20
(lp4199
g34
asbI1
(tg3797
I00
S'\xbc\xfc\x1a\xe83n\x89A'
p4200
tp4201
bag5
(g6
(I0
tp4202
g8
tp4203
Rp4204
(g11
(g12
g13
Ntp4205
Rp4206
(dp4207
g17
(lp4208
I1
asg19
I1
sg20
(lp4209
g34
asbI1
(tg3797
I00
S'\xd2Az!\xc9\x9d\x89A'
p4210
tp4211
bag5
(g6
(I0
tp4212
g8
tp4213
Rp4214
(g11
(g12
g13
Ntp4215
Rp4216
(dp4217
g17
(lp4218
I1
asg19
I1
sg20
(lp4219
g34
asbI1
(tg3797
I00
S'\tH&"\xb5\xcd\x89A'
p4220
tp4221
bag5
(g6
(I0
tp4222
g8
tp4223
Rp4224
(g11
(g12
g13
Ntp4225
Rp4226
(dp4227
g17
(lp4228
I1
asg19
I1
sg20
(lp4229
g34
asbI1
(tg3797
I00
S'\xb3\tW\xba\x84\xde\x89A'
p4230
tp4231
bag5
(g6
(I0
tp4232
g8
tp4233
Rp4234
(g11
(g12
g13
Ntp4235
Rp4236
(dp4237
g17
(lp4238
I1
asg19
I1
sg20
(lp4239
g34
asbI1
(tg3797
I00
S'\x1a\x1f\xa6\xd0!\xec\x89A'
p4240
tp4241
bag5
(g6
(I0
tp4242
g8
tp4243
Rp4244
(g11
(g12
g13
Ntp4245
Rp4246
(dp4247
g17
(lp4248
I1
asg19
I1
sg20
(lp4249
g34
asbI1
(tg3797
I00
S'\xa8\x1a|\xcfZ\xf5\x89A'
p4250
tp4251
bag5
(g6
(I0
tp4252
g8
tp4253
Rp4254
(g11
(g12
g13
Ntp4255
Rp4256
(dp4257
g17
(lp4258
I1
asg19
I1
sg20
(lp4259
g34
asbI1
(tg3797
I00
S'\xf7\x1f\x8eL\xaa\xf7\x89A'
p4260
tp4261
bag5
(g6
(I0
tp4262
g8
tp4263
Rp4264
(g11
(g12
g13
Ntp4265
Rp4266
(dp4267
g17
(lp4268
I1
asg19
I1
sg20
(lp4269
g34
asbI1
(tg3797
I00
S"Fj\x12\xcd'\xfd\x89A"
p4270
tp4271
bag5
(g6
(I0
tp4272
g8
tp4273
Rp4274
(g11
(g12
g13
Ntp4275
Rp4276
(dp4277
g17
(lp4278
I1
asg19
I1
sg20
(lp4279
g34
asbI1
(tg3797
I00
S'\xf4\xabno7\x02\x8aA'
p4280
tp4281
bag5
(g6
(I0
tp4282
g8
tp4283
Rp4284
(g11
(g12
g13
Ntp4285
Rp4286
(dp4287
g17
(lp4288
I1
asg19
I1
sg20
(lp4289
g34
asbI1
(tg3797
I00
S'\xeb\xe2\xa8\x11\xdd\x08\x8aA'
p4290
tp4291
bag5
(g6
(I0
tp4292
g8
tp4293
Rp4294
(g11
(g12
g13
Ntp4295
Rp4296
(dp4297
g17
(lp4298
I1
asg19
I1
sg20
(lp4299
g34
asbI1
(tg3797
I00
S'\x1b\xba\x1b\xb0K\x10\x8aA'
p4300
tp4301
bag5
(g6
(I0
tp4302
g8
tp4303
Rp4304
(g11
(g12
g13
Ntp4305
Rp4306
(dp4307
g17
(lp4308
I1
asg19
I1
sg20
(lp4309
g34
asbI1
(tg3797
I00
S'\xce\xa6n*\x10\x15\x8aA'
p4310
tp4311
bag5
(g6
(I0
tp4312
g8
tp4313
Rp4314
(g11
(g12
g13
Ntp4315
Rp4316
(dp4317
g17
(lp4318
I1
asg19
I1
sg20
(lp4319
g34
asbI1
(tg3797
I00
S'\xb80\xb7U\xea\x1a\x8aA'
p4320
tp4321
bag5
(g6
(I0
tp4322
g8
tp4323
Rp4324
(g11
(g12
g13
Ntp4325
Rp4326
(dp4327
g17
(lp4328
I1
asg19
I1
sg20
(lp4329
g34
asbI1
(tg3797
I00
S'\xcdW\xc5\x19P(\x8aA'
p4330
tp4331
bag5
(g6
(I0
tp4332
g8
tp4333
Rp4334
(g11
(g12
g13
Ntp4335
Rp4336
(dp4337
g17
(lp4338
I1
asg19
I1
sg20
(lp4339
g34
asbI1
(tg3797
I00
S'\xdaetT\x99<\x8aA'
p4340
tp4341
bag5
(g6
(I0
tp4342
g8
tp4343
Rp4344
(g11
(g12
g13
Ntp4345
Rp4346
(dp4347
g17
(lp4348
I1
asg19
I1
sg20
(lp4349
g34
asbI1
(tg3797
I00
S'*q\xf0\x81"`\x8aA'
p4350
tp4351
bag5
(g6
(I0
tp4352
g8
tp4353
Rp4354
(g11
(g12
g13
Ntp4355
Rp4356
(dp4357
g17
(lp4358
I1
asg19
I1
sg20
(lp4359
g34
asbI1
(tg3797
I00
S'\x8c\xb7j}\xbf\x8c\x8aA'
p4360
tp4361
bag5
(g6
(I0
tp4362
g8
tp4363
Rp4364
(g11
(g12
g13
Ntp4365
Rp4366
(dp4367
g17
(lp4368
I1
asg19
I1
sg20
(lp4369
g34
asbI1
(tg3797
I00
S'\xa6\xd3.\xfc\xae\xff\x8aA'
p4370
tp4371
bag5
(g6
(I0
tp4372
g8
tp4373
Rp4374
(g11
(g12
g13
Ntp4375
Rp4376
(dp4377
g17
(lp4378
I1
asg19
I1
sg20
(lp4379
g34
asbI1
(tg3797
I00
S'~[&\xfbd\xfe\x8bA'
p4380
tp4381
bag5
(g6
(I0
tp4382
g8
tp4383
Rp4384
(g11
(g12
g13
Ntp4385
Rp4386
(dp4387
g17
(lp4388
I1
asg19
I1
sg20
(lp4389
g34
asbI1
(tg3797
I00
S'l\t*L\xa8G\x8cA'
p4390
tp4391
basS'z'
p4392
(lp4393
F16.623558052686253
aF10.383342051876113
aF7.760385909303658
aF6.261032218898561
aF5.271612154445051
aF4.561225338906955
aF4.021919719675131
aF3.595906673044489
aF3.249222482242713
aF2.9604880271712473
aF2.71551790099832
aF2.504498364677121
aF2.3204055341209258
aF2.158068630365731
aF2.013589558582861
aF1.8839693699809175
aF1.7668599804832716
aF1.6603944899299399
aF1.5630683748162806
aF1.4736545109946966
aF1.3911412352835417
aF1.3146864327771066
aF1.2435829846263102
aF1.1772324075636686
aF1.1151244920657106
aF1.056821395202224
aF1.001945084270368
aF0.9501673303644187
aF0.9012016643906815
aF0.8547968568831767
aF0.810731593960949
aF0.7688100988343307
aF0.7288585074728573
aF0.6907218501021457
aF0.6542615228075603
aF0.619353158234319
aF0.5858848232818783
aF0.5537554862750533
aF0.5228737074298768
aF0.4931565153057902
aF0.46452843892788787
aF0.4369206708132438
aF0.41027034055606837
aF0.38451988218441935
aF0.3596164813648439
aF0.33551159085792337
aF0.3121605045233309
aF0.2895219817258434
aF0.26755791527134787
aF0.24623303705755828
aF0.22551465650016955
aF0.20537242752475993
aF0.1857781405249741
aF0.16670553619946937
aF0.14813013861132895
aF0.13002910517796407
aF0.11238109160837317
aF0.09516613006722774
aF0.07836551906918454
aF0.0619617237984591
aF0.04593828571287295
aF0.030279740432948676
aF0.01497154303845405
aF1.5765166949677223e-14
asS'mstar'
p4394
(lp4395
g5
(g6
(I0
tp4396
g8
tp4397
Rp4398
(g11
(g12
g13
Ntp4399
Rp4400
(dp4401
g17
(lp4402
I1
asg19
I1
sg20
(lp4403
g34
asbI1
(tg3797
I00
S'\x00\x00\x00\x00\x00\x00\x00\x00'
p4404
tp4405
bag5
(g6
(I0
tp4406
g8
tp4407
Rp4408
(g11
(g12
g13
Ntp4409
Rp4410
(dp4411
g17
(lp4412
I1
asg19
I1
sg20
(lp4413
g34
asbI1
(tg3797
I00
S'k\x93\x1f\x7f\xbb\xb0ZA'
p4414
tp4415
bag5
(g6
(I0
tp4416
g8
tp4417
Rp4418
(g11
(g12
g13
Ntp4419
Rp4420
(dp4421
g17
(lp4422
I1
asg19
I1
sg20
(lp4423
g34
asbI1
(tg3797
I00
S'\x08EP\x91\x95\x15\x83A'
p4424
tp4425
bag5
(g6
(I0
tp4426
g8
tp4427
Rp4428
(g11
(g12
g13
Ntp4429
Rp4430
(dp4431
g17
(lp4432
I1
asg19
I1
sg20
(lp4433
g34
asbI1
(tg3797
I00
S'J~\xb3\xea\xf9,\xa1A'
p4434
tp4435
bag5
(g6
(I0
tp4436
g8
tp4437
Rp4438
(g11
(g12
g13
Ntp4439
Rp4440
(dp4441
g17
(lp4442
I1
asg19
I1
sg20
(lp4443
g34
asbI1
(tg3797
I00
S"\xe78R\x07'\xf3\xb0A"
p4444
tp4445
bag5
(g6
(I0
tp4446
g8
tp4447
Rp4448
(g11
(g12
g13
Ntp4449
Rp4450
(dp4451
g17
(lp4452
I1
asg19
I1
sg20
(lp4453
g34
asbI1
(tg3797
I00
S'\x0e$\xb1L\x1f`\xb7A'
p4454
tp4455
bag5
(g6
(I0
tp4456
g8
tp4457
Rp4458
(g11
(g12
g13
Ntp4459
Rp4460
(dp4461
g17
(lp4462
I1
asg19
I1
sg20
(lp4463
g34
asbI1
(tg3797
I00
S'E\x00Y6\x00\xf8\xc2A'
p4464
tp4465
bag5
(g6
(I0
tp4466
g8
tp4467
Rp4468
(g11
(g12
g13
Ntp4469
Rp4470
(dp4471
g17
(lp4472
I1
asg19
I1
sg20
(lp4473
g34
asbI1
(tg3797
I00
S'8\x01\x14\xeb\xc9\xf5\xcfA'
p4474
tp4475
bag5
(g6
(I0
tp4476
g8
tp4477
Rp4478
(g11
(g12
g13
Ntp4479
Rp4480
(dp4481
g17
(lp4482
I1
asg19
I1
sg20
(lp4483
g34
asbI1
(tg3797
I00
S'G\xea\x7f\xd0\xd7+\xd7A'
p4484
tp4485
bag5
(g6
(I0
tp4486
g8
tp4487
Rp4488
(g11
(g12
g13
Ntp4489
Rp4490
(dp4491
g17
(lp4492
I1
asg19
I1
sg20
(lp4493
g34
asbI1
(tg3797
I00
S'\x80\x18\x92\xb9\x0c\xb9\xe0A'
p4494
tp4495
bag5
(g6
(I0
tp4496
g8
tp4497
Rp4498
(g11
(g12
g13
Ntp4499
Rp4500
(dp4501
g17
(lp4502
I1
asg19
I1
sg20
(lp4503
g34
asbI1
(tg3797
I00
S'B\xd1O\xe4\x88{\xe8A'
p4504
tp4505
bag5
(g6
(I0
tp4506
g8
tp4507
Rp4508
(g11
(g12
g13
Ntp4509
Rp4510
(dp4511
g17
(lp4512
I1
asg19
I1
sg20
(lp4513
g34
asbI1
(tg3797
I00
S'(\xb9\xf9yEu\xedA'
p4514
tp4515
bag5
(g6
(I0
tp4516
g8
tp4517
Rp4518
(g11
(g12
g13
Ntp4519
Rp4520
(dp4521
g17
(lp4522
I1
asg19
I1
sg20
(lp4523
g34
asbI1
(tg3797
I00
S'\xd4\x81\xe4!\xd5&\xf2A'
p4524
tp4525
bag5
(g6
(I0
tp4526
g8
tp4527
Rp4528
(g11
(g12
g13
Ntp4529
Rp4530
(dp4531
g17
(lp4532
I1
asg19
I1
sg20
(lp4533
g34
asbI1
(tg3797
I00
S'\x88\x11< \x8e\xb1\xf5A'
p4534
tp4535
bag5
(g6
(I0
tp4536
g8
tp4537
Rp4538
(g11
(g12
g13
Ntp4539
Rp4540
(dp4541
g17
(lp4542
I1
asg19
I1
sg20
(lp4543
g34
asbI1
(tg3797
I00
S'\xf8\xb2Ec\xb2F\xfcA'
p4544
tp4545
bag5
(g6
(I0
tp4546
g8
tp4547
Rp4548
(g11
(g12
g13
Ntp4549
Rp4550
(dp4551
g17
(lp4552
I1
asg19
I1
sg20
(lp4553
g34
asbI1
(tg3797
I00
S'\xc4]\x8f\xca\x03\x97\x02B'
p4554
tp4555
bag5
(g6
(I0
tp4556
g8
tp4557
Rp4558
(g11
(g12
g13
Ntp4559
Rp4560
(dp4561
g17
(lp4562
I1
asg19
I1
sg20
(lp4563
g34
asbI1
(tg3797
I00
S'\xb5\x1a?\xadj\xe5\x08B'
p4564
tp4565
bag5
(g6
(I0
tp4566
g8
tp4567
Rp4568
(g11
(g12
g13
Ntp4569
Rp4570
(dp4571
g17
(lp4572
I1
asg19
I1
sg20
(lp4573
g34
asbI1
(tg3797
I00
S'\xfc\x0e\xb4\x9e@@\x0eB'
p4574
tp4575
bag5
(g6
(I0
tp4576
g8
tp4577
Rp4578
(g11
(g12
g13
Ntp4579
Rp4580
(dp4581
g17
(lp4582
I1
asg19
I1
sg20
(lp4583
g34
asbI1
(tg3797
I00
S'3\xa5E\x89\x10\x84\x11B'
p4584
tp4585
bag5
(g6
(I0
tp4586
g8
tp4587
Rp4588
(g11
(g12
g13
Ntp4589
Rp4590
(dp4591
g17
(lp4592
I1
asg19
I1
sg20
(lp4593
g34
asbI1
(tg3797
I00
S'\xd0\xfaf_\xc4\x99\x13B'
p4594
tp4595
bag5
(g6
(I0
tp4596
g8
tp4597
Rp4598
(g11
(g12
g13
Ntp4599
Rp4600
(dp4601
g17
(lp4602
I1
asg19
I1
sg20
(lp4603
g34
asbI1
(tg3797
I00
S'\xfdC\xa7\xf4\x8al\x15B'
p4604
tp4605
bag5
(g6
(I0
tp4606
g8
tp4607
Rp4608
(g11
(g12
g13
Ntp4609
Rp4610
(dp4611
g17
(lp4612
I1
asg19
I1
sg20
(lp4613
g34
asbI1
(tg3797
I00
S'5\xe5-\x9d\xbf\xd8\x15B'
p4614
tp4615
bag5
(g6
(I0
tp4616
g8
tp4617
Rp4618
(g11
(g12
g13
Ntp4619
Rp4620
(dp4621
g17
(lp4622
I1
asg19
I1
sg20
(lp4623
g34
asbI1
(tg3797
I00
S'\x18%A\xcd\xe6\xe4\x15B'
p4624
tp4625
bag5
(g6
(I0
tp4626
g8
tp4627
Rp4628
(g11
(g12
g13
Ntp4629
Rp4630
(dp4631
g17
(lp4632
I1
asg19
I1
sg20
(lp4633
g34
asbI1
(tg3797
I00
S'\xe0 Y\xdc\x17\xe9\x15B'
p4634
tp4635
bag5
(g6
(I0
tp4636
g8
tp4637
Rp4638
(g11
(g12
g13
Ntp4639
Rp4640
(dp4641
g17
(lp4642
I1
asg19
I1
sg20
(lp4643
g34
asbI1
(tg3797
I00
S'\x19\x01\x93\xa9\xb9\\\x16B'
p4644
tp4645
bag5
(g6
(I0
tp4646
g8
tp4647
Rp4648
(g11
(g12
g13
Ntp4649
Rp4650
(dp4651
g17
(lp4652
I1
asg19
I1
sg20
(lp4653
g34
asbI1
(tg3797
I00
S'\x9a\xf1\xa5c0L\x16B'
p4654
tp4655
bag5
(g6
(I0
tp4656
g8
tp4657
Rp4658
(g11
(g12
g13
Ntp4659
Rp4660
(dp4661
g17
(lp4662
I1
asg19
I1
sg20
(lp4663
g34
asbI1
(tg3797
I00
S'_U\xb7u\xb2*\x16B'
p4664
tp4665
bag5
(g6
(I0
tp4666
g8
tp4667
Rp4668
(g11
(g12
g13
Ntp4669
Rp4670
(dp4671
g17
(lp4672
I1
asg19
I1
sg20
(lp4673
g34
asbI1
(tg3797
I00
S';ip\x84\xba\x16\x16B'
p4674
tp4675
bag5
(g6
(I0
tp4676
g8
tp4677
Rp4678
(g11
(g12
g13
Ntp4679
Rp4680
(dp4681
g17
(lp4682
I1
asg19
I1
sg20
(lp4683
g34
asbI1
(tg3797
I00
S'\xfa3\xeb\xcbE\xf3\x15B'
p4684
tp4685
bag5
(g6
(I0
tp4686
g8
tp4687
Rp4688
(g11
(g12
g13
Ntp4689
Rp4690
(dp4691
g17
(lp4692
I1
asg19
I1
sg20
(lp4693
g34
asbI1
(tg3797
I00
S'\xcb\xb2f\xe5\xbf\xd9\x15B'
p4694
tp4695
bag5
(g6
(I0
tp4696
g8
tp4697
Rp4698
(g11
(g12
g13
Ntp4699
Rp4700
(dp4701
g17
(lp4702
I1
asg19
I1
sg20
(lp4703
g34
asbI1
(tg3797
I00
S'\xd2T\xa9\x949\xbf\x15B'
p4704
tp4705
bag5
(g6
(I0
tp4706
g8
tp4707
Rp4708
(g11
(g12
g13
Ntp4709
Rp4710
(dp4711
g17
(lp4712
I1
asg19
I1
sg20
(lp4713
g34
asbI1
(tg3797
I00
S"o:8\xf8'\xa3\x15B"
p4714
tp4715
bag5
(g6
(I0
tp4716
g8
tp4717
Rp4718
(g11
(g12
g13
Ntp4719
Rp4720
(dp4721
g17
(lp4722
I1
asg19
I1
sg20
(lp4723
g34
asbI1
(tg3797
I00
S'Rm\xac4\x01\x8f\x15B'
p4724
tp4725
bag5
(g6
(I0
tp4726
g8
tp4727
Rp4728
(g11
(g12
g13
Ntp4729
Rp4730
(dp4731
g17
(lp4732
I1
asg19
I1
sg20
(lp4733
g34
asbI1
(tg3797
I00
S'\x92\x0c\xcd\xa8B}\x15B'
p4734
tp4735
bag5
(g6
(I0
tp4736
g8
tp4737
Rp4738
(g11
(g12
g13
Ntp4739
Rp4740
(dp4741
g17
(lp4742
I1
asg19
I1
sg20
(lp4743
g34
asbI1
(tg3797
I00
S'5H\xc9\xf1\xdel\x15B'
p4744
tp4745
bag5
(g6
(I0
tp4746
g8
tp4747
Rp4748
(g11
(g12
g13
Ntp4749
Rp4750
(dp4751
g17
(lp4752
I1
asg19
I1
sg20
(lp4753
g34
asbI1
(tg3797
I00
S'\x92\xd6\x1b\xf4\x94Z\x15B'
p4754
tp4755
bag5
(g6
(I0
tp4756
g8
tp4757
Rp4758
(g11
(g12
g13
Ntp4759
Rp4760
(dp4761
g17
(lp4762
I1
asg19
I1
sg20
(lp4763
g34
asbI1
(tg3797
I00
S'\x80\xe4@\x0e\xfbN\x15B'
p4764
tp4765
bag5
(g6
(I0
tp4766
g8
tp4767
Rp4768
(g11
(g12
g13
Ntp4769
Rp4770
(dp4771
g17
(lp4772
I1
asg19
I1
sg20
(lp4773
g34
asbI1
(tg3797
I00
S'\x0e\xda\xc9\x98\xa5>\x15B'
p4774
tp4775
bag5
(g6
(I0
tp4776
g8
tp4777
Rp4778
(g11
(g12
g13
Ntp4779
Rp4780
(dp4781
g17
(lp4782
I1
asg19
I1
sg20
(lp4783
g34
asbI1
(tg3797
I00
S'\x1f\x98UM\xaf-\x15B'
p4784
tp4785
bag5
(g6
(I0
tp4786
g8
tp4787
Rp4788
(g11
(g12
g13
Ntp4789
Rp4790
(dp4791
g17
(lp4792
I1
asg19
I1
sg20
(lp4793
g34
asbI1
(tg3797
I00
S'\x17\x9f\xb0R\x96 \x15B'
p4794
tp4795
bag5
(g6
(I0
tp4796
g8
tp4797
Rp4798
(g11
(g12
g13
Ntp4799
Rp4800
(dp4801
g17
(lp4802
I1
asg19
I1
sg20
(lp4803
g34
asbI1
(tg3797
I00
S'\xeb\xf9\xf1\xa6\xe3\x15\x15B'
p4804
tp4805
bag5
(g6
(I0
tp4806
g8
tp4807
Rp4808
(g11
(g12
g13
Ntp4809
Rp4810
(dp4811
g17
(lp4812
I1
asg19
I1
sg20
(lp4813
g34
asbI1
(tg3797
I00
S'\xae\xe1\xc8\xde\t(\x15B'
p4814
tp4815
bag5
(g6
(I0
tp4816
g8
tp4817
Rp4818
(g11
(g12
g13
Ntp4819
Rp4820
(dp4821
g17
(lp4822
I1
asg19
I1
sg20
(lp4823
g34
asbI1
(tg3797
I00
S'\rL\xe8\xc5\xa4\x1f\x15B'
p4824
tp4825
bag5
(g6
(I0
tp4826
g8
tp4827
Rp4828
(g11
(g12
g13
Ntp4829
Rp4830
(dp4831
g17
(lp4832
I1
asg19
I1
sg20
(lp4833
g34
asbI1
(tg3797
I00
S'\xbb\x91\xb9\x8d<:\x15B'
p4834
tp4835
bag5
(g6
(I0
tp4836
g8
tp4837
Rp4838
(g11
(g12
g13
Ntp4839
Rp4840
(dp4841
g17
(lp4842
I1
asg19
I1
sg20
(lp4843
g34
asbI1
(tg3797
I00
S'r\xc3A\x04\xb61\x15B'
p4844
tp4845
bag5
(g6
(I0
tp4846
g8
tp4847
Rp4848
(g11
(g12
g13
Ntp4849
Rp4850
(dp4851
g17
(lp4852
I1
asg19
I1
sg20
(lp4853
g34
asbI1
(tg3797
I00
S'\xec\x96\x1cA\xb7%\x15B'
p4854
tp4855
bag5
(g6
(I0
tp4856
g8
tp4857
Rp4858
(g11
(g12
g13
Ntp4859
Rp4860
(dp4861
g17
(lp4862
I1
asg19
I1
sg20
(lp4863
g34
asbI1
(tg3797
I00
S'\xd2\xd1x\xc5&\x1c\x15B'
p4864
tp4865
bag5
(g6
(I0
tp4866
g8
tp4867
Rp4868
(g11
(g12
g13
Ntp4869
Rp4870
(dp4871
g17
(lp4872
I1
asg19
I1
sg20
(lp4873
g34
asbI1
(tg3797
I00
S'\x06\xae~\x943\x0b\x15B'
p4874
tp4875
bag5
(g6
(I0
tp4876
g8
tp4877
Rp4878
(g11
(g12
g13
Ntp4879
Rp4880
(dp4881
g17
(lp4882
I1
asg19
I1
sg20
(lp4883
g34
asbI1
(tg3797
I00
S'9\xde\x0c\xf6\xcd\xe9\x14B'
p4884
tp4885
bag5
(g6
(I0
tp4886
g8
tp4887
Rp4888
(g11
(g12
g13
Ntp4889
Rp4890
(dp4891
g17
(lp4892
I1
asg19
I1
sg20
(lp4893
g34
asbI1
(tg3797
I00
S'<n\xc6\xb1`\xde\x14B'
p4894
tp4895
bag5
(g6
(I0
tp4896
g8
tp4897
Rp4898
(g11
(g12
g13
Ntp4899
Rp4900
(dp4901
g17
(lp4902
I1
asg19
I1
sg20
(lp4903
g34
asbI1
(tg3797
I00
S'\xcbW\xf3\x9e\xb9\xc2\x14B'
p4904
tp4905
bag5
(g6
(I0
tp4906
g8
tp4907
Rp4908
(g11
(g12
g13
Ntp4909
Rp4910
(dp4911
g17
(lp4912
I1
asg19
I1
sg20
(lp4913
g34
asbI1
(tg3797
I00
S'\xfcm=\x93\xac\xb0\x14B'
p4914
tp4915
bag5
(g6
(I0
tp4916
g8
tp4917
Rp4918
(g11
(g12
g13
Ntp4919
Rp4920
(dp4921
g17
(lp4922
I1
asg19
I1
sg20
(lp4923
g34
asbI1
(tg3797
I00
S'\xc4\x0c\x8b\xa2/\xa7\x14B'
p4924
tp4925
bag5
(g6
(I0
tp4926
g8
tp4927
Rp4928
(g11
(g12
g13
Ntp4929
Rp4930
(dp4931
g17
(lp4932
I1
asg19
I1
sg20
(lp4933
g34
asbI1
(tg3797
I00
S'{ \x8f\xbc\xe2\x9d\x14B'
p4934
tp4935
bag5
(g6
(I0
tp4936
g8
tp4937
Rp4938
(g11
(g12
g13
Ntp4939
Rp4940
(dp4941
g17
(lp4942
I1
asg19
I1
sg20
(lp4943
g34
asbI1
(tg3797
I00
S'@{\x93u-\x99\x14B'
p4944
tp4945
bag5
(g6
(I0
tp4946
g8
tp4947
Rp4948
(g11
(g12
g13
Ntp4949
Rp4950
(dp4951
g17
(lp4952
I1
asg19
I1
sg20
(lp4953
g34
asbI1
(tg3797
I00
S'1\\\x81(\xdf\x94\x14B'
p4954
tp4955
bag5
(g6
(I0
tp4956
g8
tp4957
Rp4958
(g11
(g12
g13
Ntp4959
Rp4960
(dp4961
g17
(lp4962
I1
asg19
I1
sg20
(lp4963
g34
asbI1
(tg3797
I00
S'\xf8\x0e\xa6/\xa3\x91\x14B'
p4964
tp4965
bag5
(g6
(I0
tp4966
g8
tp4967
Rp4968
(g11
(g12
g13
Ntp4969
Rp4970
(dp4971
g17
(lp4972
I1
asg19
I1
sg20
(lp4973
g34
asbI1
(tg3797
I00
S'\xe6\x80\xb1\x1f\xf3\x8d\x14B'
p4974
tp4975
bag5
(g6
(I0
tp4976
g8
tp4977
Rp4978
(g11
(g12
g13
Ntp4979
Rp4980
(dp4981
g17
(lp4982
I1
asg19
I1
sg20
(lp4983
g34
asbI1
(tg3797
I00
S"'\x84UFu\x8a\x14B"
p4984
tp4985
bag5
(g6
(I0
tp4986
g8
tp4987
Rp4988
(g11
(g12
g13
Ntp4989
Rp4990
(dp4991
g17
(lp4992
I1
asg19
I1
sg20
(lp4993
g34
asbI1
(tg3797
I00
S']@\xddA\x0c\x87\x14B'
p4994
tp4995
bag5
(g6
(I0
tp4996
g8
tp4997
Rp4998
(g11
(g12
g13
Ntp4999
Rp5000
(dp5001
g17
(lp5002
I1
asg19
I1
sg20
(lp5003
g34
asbI1
(tg3797
I00
S'\xa0\xb0N\x1d\xa7\x84\x14B'
p5004
tp5005
bag5
(g6
(I0
tp5006
g8
tp5007
Rp5008
(g11
(g12
g13
Ntp5009
Rp5010
(dp5011
g17
(lp5012
I1
asg19
I1
sg20
(lp5013
g34
asbI1
(tg3797
I00
S'\xbc\r\xab\xaa\xc6\x86\x14B'
p5014
tp5015
bag5
(g6
(I0
tp5016
g8
tp5017
Rp5018
(g11
(g12
g13
Ntp5019
Rp5020
(dp5021
g17
(lp5022
I1
asg19
I1
sg20
(lp5023
g34
asbI1
(tg3797
I00
S'\x95\xc5V\xb8N\x9a\x14B'
p5024
tp5025
bag5
(g6
(I0
tp5026
g8
tp5027
Rp5028
(g11
(g12
g13
Ntp5029
Rp5030
(dp5031
g17
(lp5032
I1
asg19
I1
sg20
(lp5033
g34
asbI1
(tg3797
I00
S'ug2\xd2H\x99\x14B'
p5034
tp5035
bassS'g2.79e12'
p5036
(dp5037
S'mbh'
p5038
(lp5039
I0
aI0
aI0
ag5
(g6
(I0
tp5040
g8
tp5041
Rp5042
(g11
(g12
g13
Ntp5043
Rp5044
(dp5045
g17
(lp5046
I1
asg19
I1
sg20
(lp5047
g34
asbI1
(tg35
(S'f8'
p5048
I0
I1
tp5049
Rp5050
(I3
S'<'
p5051
NNNI-1
I-1
I0
tp5052
bI00
S'\xa1\xcc\xba\x11\x1d\x9a\xf8@'
p5053
tp5054
bag5
(g6
(I0
tp5055
g8
tp5056
Rp5057
(g11
(g12
g13
Ntp5058
Rp5059
(dp5060
g17
(lp5061
I1
asg19
I1
sg20
(lp5062
g34
asbI1
(tg5050
I00
S'\x94C\x7f\x97\xea\xe1\xfa@'
p5063
tp5064
bag5
(g6
(I0
tp5065
g8
tp5066
Rp5067
(g11
(g12
g13
Ntp5068
Rp5069
(dp5070
g17
(lp5071
I1
asg19
I1
sg20
(lp5072
g34
asbI1
(tg5050
I00
S'\x92\xa6\\%FY\xfc@'
p5073
tp5074
bag5
(g6
(I0
tp5075
g8
tp5076
Rp5077
(g11
(g12
g13
Ntp5078
Rp5079
(dp5080
g17
(lp5081
I1
asg19
I1
sg20
(lp5082
g34
asbI1
(tg5050
I00
S'\xb7,\x07\xad?+\xff@'
p5083
tp5084
bag5
(g6
(I0
tp5085
g8
tp5086
Rp5087
(g11
(g12
g13
Ntp5088
Rp5089
(dp5090
g17
(lp5091
I1
asg19
I1
sg20
(lp5092
g34
asbI1
(tg5050
I00
S'\xad\xc6^U\xe1\x86\x01A'
p5093
tp5094
bag5
(g6
(I0
tp5095
g8
tp5096
Rp5097
(g11
(g12
g13
Ntp5098
Rp5099
(dp5100
g17
(lp5101
I1
asg19
I1
sg20
(lp5102
g34
asbI1
(tg5050
I00
S'`\x00\x11\xff\xa6\xef\x03A'
p5103
tp5104
bag5
(g6
(I0
tp5105
g8
tp5106
Rp5107
(g11
(g12
g13
Ntp5108
Rp5109
(dp5110
g17
(lp5111
I1
asg19
I1
sg20
(lp5112
g34
asbI1
(tg5050
I00
S'C\xa3\xee\xeb~W\x18A'
p5113
tp5114
bag5
(g6
(I0
tp5115
g8
tp5116
Rp5117
(g11
(g12
g13
Ntp5118
Rp5119
(dp5120
g17
(lp5121
I1
asg19
I1
sg20
(lp5122
g34
asbI1
(tg5050
I00
S'\xc9\xca\xb4\xb4\x1e- A'
p5123
tp5124
bag5
(g6
(I0
tp5125
g8
tp5126
Rp5127
(g11
(g12
g13
Ntp5128
Rp5129
(dp5130
g17
(lp5131
I1
asg19
I1
sg20
(lp5132
g34
asbI1
(tg5050
I00
S'\xa1 d\x86\xb2\x0e)A'
p5133
tp5134
bag5
(g6
(I0
tp5135
g8
tp5136
Rp5137
(g11
(g12
g13
Ntp5138
Rp5139
(dp5140
g17
(lp5141
I1
asg19
I1
sg20
(lp5142
g34
asbI1
(tg5050
I00
S'\xfe\x0c\xa7\xae\xd3E7A'
p5143
tp5144
bag5
(g6
(I0
tp5145
g8
tp5146
Rp5147
(g11
(g12
g13
Ntp5148
Rp5149
(dp5150
g17
(lp5151
I1
asg19
I1
sg20
(lp5152
g34
asbI1
(tg5050
I00
S'\x98B\xb0D\xd7\x8fDA'
p5153
tp5154
bag5
(g6
(I0
tp5155
g8
tp5156
Rp5157
(g11
(g12
g13
Ntp5158
Rp5159
(dp5160
g17
(lp5161
I1
asg19
I1
sg20
(lp5162
g34
asbI1
(tg5050
I00
S'\xa6\xe6\xaf\xc5U\xfeQA'
p5163
tp5164
bag5
(g6
(I0
tp5165
g8
tp5166
Rp5167
(g11
(g12
g13
Ntp5168
Rp5169
(dp5170
g17
(lp5171
I1
asg19
I1
sg20
(lp5172
g34
asbI1
(tg5050
I00
S'\xf2\xd4\x0b\xb4\xfd2dA'
p5173
tp5174
bag5
(g6
(I0
tp5175
g8
tp5176
Rp5177
(g11
(g12
g13
Ntp5178
Rp5179
(dp5180
g17
(lp5181
I1
asg19
I1
sg20
(lp5182
g34
asbI1
(tg5050
I00
S'kR\xa8&\xcd\xcesA'
p5183
tp5184
bag5
(g6
(I0
tp5185
g8
tp5186
Rp5187
(g11
(g12
g13
Ntp5188
Rp5189
(dp5190
g17
(lp5191
I1
asg19
I1
sg20
(lp5192
g34
asbI1
(tg5050
I00
S'm\xec\x1c\xd9.j\x80A'
p5193
tp5194
bag5
(g6
(I0
tp5195
g8
tp5196
Rp5197
(g11
(g12
g13
Ntp5198
Rp5199
(dp5200
g17
(lp5201
I1
asg19
I1
sg20
(lp5202
g34
asbI1
(tg5050
I00
S'\xab\xf5\xf7M/U\x86A'
p5203
tp5204
bag5
(g6
(I0
tp5205
g8
tp5206
Rp5207
(g11
(g12
g13
Ntp5208
Rp5209
(dp5210
g17
(lp5211
I1
asg19
I1
sg20
(lp5212
g34
asbI1
(tg5050
I00
S'\x9e\xa8\x87\xd2\x8et\x8bA'
p5213
tp5214
bag5
(g6
(I0
tp5215
g8
tp5216
Rp5217
(g11
(g12
g13
Ntp5218
Rp5219
(dp5220
g17
(lp5221
I1
asg19
I1
sg20
(lp5222
g34
asbI1
(tg5050
I00
S'%\x93\xa0\xf4\xb0N\x90A'
p5223
tp5224
bag5
(g6
(I0
tp5225
g8
tp5226
Rp5227
(g11
(g12
g13
Ntp5228
Rp5229
(dp5230
g17
(lp5231
I1
asg19
I1
sg20
(lp5232
g34
asbI1
(tg5050
I00
S'\xfc}(\x06\xf1\xe9\x92A'
p5233
tp5234
bag5
(g6
(I0
tp5235
g8
tp5236
Rp5237
(g11
(g12
g13
Ntp5238
Rp5239
(dp5240
g17
(lp5241
I1
asg19
I1
sg20
(lp5242
g34
asbI1
(tg5050
I00
S'\x7f\xf4M\x8c\x9f\x18\x96A'
p5243
tp5244
bag5
(g6
(I0
tp5245
g8
tp5246
Rp5247
(g11
(g12
g13
Ntp5248
Rp5249
(dp5250
g17
(lp5251
I1
asg19
I1
sg20
(lp5252
g34
asbI1
(tg5050
I00
S'w\xc3\x86\xd5u\xd8\x96A'
p5253
tp5254
bag5
(g6
(I0
tp5255
g8
tp5256
Rp5257
(g11
(g12
g13
Ntp5258
Rp5259
(dp5260
g17
(lp5261
I1
asg19
I1
sg20
(lp5262
g34
asbI1
(tg5050
I00
S'm\xc4f\xa7\x86\x00\x98A'
p5263
tp5264
bag5
(g6
(I0
tp5265
g8
tp5266
Rp5267
(g11
(g12
g13
Ntp5268
Rp5269
(dp5270
g17
(lp5271
I1
asg19
I1
sg20
(lp5272
g34
asbI1
(tg5050
I00
S'z\xc2\x9f\tf)\x99A'
p5273
tp5274
bag5
(g6
(I0
tp5275
g8
tp5276
Rp5277
(g11
(g12
g13
Ntp5278
Rp5279
(dp5280
g17
(lp5281
I1
asg19
I1
sg20
(lp5282
g34
asbI1
(tg5050
I00
S'\xb9\xea\xbd\x98\xb8\xbd\x99A'
p5283
tp5284
bag5
(g6
(I0
tp5285
g8
tp5286
Rp5287
(g11
(g12
g13
Ntp5288
Rp5289
(dp5290
g17
(lp5291
I1
asg19
I1
sg20
(lp5292
g34
asbI1
(tg5050
I00
S'\xb8h{\x13\x8d\xc9\x9aA'
p5293
tp5294
bag5
(g6
(I0
tp5295
g8
tp5296
Rp5297
(g11
(g12
g13
Ntp5298
Rp5299
(dp5300
g17
(lp5301
I1
asg19
I1
sg20
(lp5302
g34
asbI1
(tg5050
I00
S'N\xf2\xd5\xc9A\xd5\x9bA'
p5303
tp5304
bag5
(g6
(I0
tp5305
g8
tp5306
Rp5307
(g11
(g12
g13
Ntp5308
Rp5309
(dp5310
g17
(lp5311
I1
asg19
I1
sg20
(lp5312
g34
asbI1
(tg5050
I00
S'\xb2\xd3\x8d\xd8\xaei\x9cA'
p5313
tp5314
bag5
(g6
(I0
tp5315
g8
tp5316
Rp5317
(g11
(g12
g13
Ntp5318
Rp5319
(dp5320
g17
(lp5321
I1
asg19
I1
sg20
(lp5322
g34
asbI1
(tg5050
I00
S'{\x95\xab\xb0=\x86\x9dA'
p5323
tp5324
bag5
(g6
(I0
tp5325
g8
tp5326
Rp5327
(g11
(g12
g13
Ntp5328
Rp5329
(dp5330
g17
(lp5331
I1
asg19
I1
sg20
(lp5332
g34
asbI1
(tg5050
I00
S'*\xd5\xc2\x9a^\xfd\x9dA'
p5333
tp5334
bag5
(g6
(I0
tp5335
g8
tp5336
Rp5337
(g11
(g12
g13
Ntp5338
Rp5339
(dp5340
g17
(lp5341
I1
asg19
I1
sg20
(lp5342
g34
asbI1
(tg5050
I00
S'\x9a\xdd\x84\xaf\x9a&\xa1A'
p5343
tp5344
bag5
(g6
(I0
tp5345
g8
tp5346
Rp5347
(g11
(g12
g13
Ntp5348
Rp5349
(dp5350
g17
(lp5351
I1
asg19
I1
sg20
(lp5352
g34
asbI1
(tg5050
I00
S'(\xb9k\xa5^\xea\xa3A'
p5353
tp5354
bag5
(g6
(I0
tp5355
g8
tp5356
Rp5357
(g11
(g12
g13
Ntp5358
Rp5359
(dp5360
g17
(lp5361
I1
asg19
I1
sg20
(lp5362
g34
asbI1
(tg5050
I00
S'KR&[\x9d\xb0\xa4A'
p5363
tp5364
bag5
(g6
(I0
tp5365
g8
tp5366
Rp5367
(g11
(g12
g13
Ntp5368
Rp5369
(dp5370
g17
(lp5371
I1
asg19
I1
sg20
(lp5372
g34
asbI1
(tg5050
I00
S'\xe9C\xbd\x98t\r\xa5A'
p5373
tp5374
bag5
(g6
(I0
tp5375
g8
tp5376
Rp5377
(g11
(g12
g13
Ntp5378
Rp5379
(dp5380
g17
(lp5381
I1
asg19
I1
sg20
(lp5382
g34
asbI1
(tg5050
I00
S'r0\xca\xed\xca\x91\xa5A'
p5383
tp5384
bag5
(g6
(I0
tp5385
g8
tp5386
Rp5387
(g11
(g12
g13
Ntp5388
Rp5389
(dp5390
g17
(lp5391
I1
asg19
I1
sg20
(lp5392
g34
asbI1
(tg5050
I00
S'\x902\xc4\x19\x1fo\xa6A'
p5393
tp5394
bag5
(g6
(I0
tp5395
g8
tp5396
Rp5397
(g11
(g12
g13
Ntp5398
Rp5399
(dp5400
g17
(lp5401
I1
asg19
I1
sg20
(lp5402
g34
asbI1
(tg5050
I00
S'Jj\xb4D<\x1c\xa7A'
p5403
tp5404
bag5
(g6
(I0
tp5405
g8
tp5406
Rp5407
(g11
(g12
g13
Ntp5408
Rp5409
(dp5410
g17
(lp5411
I1
asg19
I1
sg20
(lp5412
g34
asbI1
(tg5050
I00
S's\xcdq\xee\xa8\xc9\xa7A'
p5413
tp5414
bag5
(g6
(I0
tp5415
g8
tp5416
Rp5417
(g11
(g12
g13
Ntp5418
Rp5419
(dp5420
g17
(lp5421
I1
asg19
I1
sg20
(lp5422
g34
asbI1
(tg5050
I00
S'\x8f\t\xc5c\x01-\xa8A'
p5423
tp5424
bag5
(g6
(I0
tp5425
g8
tp5426
Rp5427
(g11
(g12
g13
Ntp5428
Rp5429
(dp5430
g17
(lp5431
I1
asg19
I1
sg20
(lp5432
g34
asbI1
(tg5050
I00
S'\x0e[\xa3\x9ad\xab\xa8A'
p5433
tp5434
bag5
(g6
(I0
tp5435
g8
tp5436
Rp5437
(g11
(g12
g13
Ntp5438
Rp5439
(dp5440
g17
(lp5441
I1
asg19
I1
sg20
(lp5442
g34
asbI1
(tg5050
I00
S'\xd7\x9c\xc5v\xe5\xed\xa8A'
p5443
tp5444
bag5
(g6
(I0
tp5445
g8
tp5446
Rp5447
(g11
(g12
g13
Ntp5448
Rp5449
(dp5450
g17
(lp5451
I1
asg19
I1
sg20
(lp5452
g34
asbI1
(tg5050
I00
S'\xb9*e\xac\xc9\x86\xa9A'
p5453
tp5454
bag5
(g6
(I0
tp5455
g8
tp5456
Rp5457
(g11
(g12
g13
Ntp5458
Rp5459
(dp5460
g17
(lp5461
I1
asg19
I1
sg20
(lp5462
g34
asbI1
(tg5050
I00
S'SC\xa3F=>\xaaA'
p5463
tp5464
bag5
(g6
(I0
tp5465
g8
tp5466
Rp5467
(g11
(g12
g13
Ntp5468
Rp5469
(dp5470
g17
(lp5471
I1
asg19
I1
sg20
(lp5472
g34
asbI1
(tg5050
I00
S'w\x06@\xe6\xa3\xbc\xaaA'
p5473
tp5474
bag5
(g6
(I0
tp5475
g8
tp5476
Rp5477
(g11
(g12
g13
Ntp5478
Rp5479
(dp5480
g17
(lp5481
I1
asg19
I1
sg20
(lp5482
g34
asbI1
(tg5050
I00
S'\x8bO\x1f\x01\xc0\xd9\xaaA'
p5483
tp5484
bag5
(g6
(I0
tp5485
g8
tp5486
Rp5487
(g11
(g12
g13
Ntp5488
Rp5489
(dp5490
g17
(lp5491
I1
asg19
I1
sg20
(lp5492
g34
asbI1
(tg5050
I00
S'\xe1\x88Q\xb6\xd6\x1c\xabA'
p5493
tp5494
bag5
(g6
(I0
tp5495
g8
tp5496
Rp5497
(g11
(g12
g13
Ntp5498
Rp5499
(dp5500
g17
(lp5501
I1
asg19
I1
sg20
(lp5502
g34
asbI1
(tg5050
I00
S'\x10zh2]\xad\xabA'
p5503
tp5504
bag5
(g6
(I0
tp5505
g8
tp5506
Rp5507
(g11
(g12
g13
Ntp5508
Rp5509
(dp5510
g17
(lp5511
I1
asg19
I1
sg20
(lp5512
g34
asbI1
(tg5050
I00
S'\xc96\xaa@\x13\xe3\xabA'
p5513
tp5514
bag5
(g6
(I0
tp5515
g8
tp5516
Rp5517
(g11
(g12
g13
Ntp5518
Rp5519
(dp5520
g17
(lp5521
I1
asg19
I1
sg20
(lp5522
g34
asbI1
(tg5050
I00
S'\x07\x0e1\x11\xdf\x05\xacA'
p5523
tp5524
bag5
(g6
(I0
tp5525
g8
tp5526
Rp5527
(g11
(g12
g13
Ntp5528
Rp5529
(dp5530
g17
(lp5531
I1
asg19
I1
sg20
(lp5532
g34
asbI1
(tg5050
I00
S'p\xd0\x87\xca\xd95\xacA'
p5533
tp5534
bag5
(g6
(I0
tp5535
g8
tp5536
Rp5537
(g11
(g12
g13
Ntp5538
Rp5539
(dp5540
g17
(lp5541
I1
asg19
I1
sg20
(lp5542
g34
asbI1
(tg5050
I00
S'\xac\x00@\x13\xddZ\xacA'
p5543
tp5544
bag5
(g6
(I0
tp5545
g8
tp5546
Rp5547
(g11
(g12
g13
Ntp5548
Rp5549
(dp5550
g17
(lp5551
I1
asg19
I1
sg20
(lp5552
g34
asbI1
(tg5050
I00
S'\x13\xa6\x97\x9c\xf3t\xacA'
p5553
tp5554
bag5
(g6
(I0
tp5555
g8
tp5556
Rp5557
(g11
(g12
g13
Ntp5558
Rp5559
(dp5560
g17
(lp5561
I1
asg19
I1
sg20
(lp5562
g34
asbI1
(tg5050
I00
S'\xf61->\xe4\xaa\xacA'
p5563
tp5564
bag5
(g6
(I0
tp5565
g8
tp5566
Rp5567
(g11
(g12
g13
Ntp5568
Rp5569
(dp5570
g17
(lp5571
I1
asg19
I1
sg20
(lp5572
g34
asbI1
(tg5050
I00
S'\xb7\x80\x8eDW\xcc\xacA'
p5573
tp5574
bag5
(g6
(I0
tp5575
g8
tp5576
Rp5577
(g11
(g12
g13
Ntp5578
Rp5579
(dp5580
g17
(lp5581
I1
asg19
I1
sg20
(lp5582
g34
asbI1
(tg5050
I00
S'\xbc\xe0\xa11\xef\xe7\xacA'
p5583
tp5584
bag5
(g6
(I0
tp5585
g8
tp5586
Rp5587
(g11
(g12
g13
Ntp5588
Rp5589
(dp5590
g17
(lp5591
I1
asg19
I1
sg20
(lp5592
g34
asbI1
(tg5050
I00
S'\\\xf0?\xc1\xc5\xfa\xacA'
p5593
tp5594
bag5
(g6
(I0
tp5595
g8
tp5596
Rp5597
(g11
(g12
g13
Ntp5598
Rp5599
(dp5600
g17
(lp5601
I1
asg19
I1
sg20
(lp5602
g34
asbI1
(tg5050
I00
S'lM\xad\xbbF\x1a\xadA'
p5603
tp5604
bag5
(g6
(I0
tp5605
g8
tp5606
Rp5607
(g11
(g12
g13
Ntp5608
Rp5609
(dp5610
g17
(lp5611
I1
asg19
I1
sg20
(lp5612
g34
asbI1
(tg5050
I00
S'7E\xbc\x02l\\\xadA'
p5613
tp5614
bag5
(g6
(I0
tp5615
g8
tp5616
Rp5617
(g11
(g12
g13
Ntp5618
Rp5619
(dp5620
g17
(lp5621
I1
asg19
I1
sg20
(lp5622
g34
asbI1
(tg5050
I00
S'\xac\xc1~\x8bwv\xadA'
p5623
tp5624
bag5
(g6
(I0
tp5625
g8
tp5626
Rp5627
(g11
(g12
g13
Ntp5628
Rp5629
(dp5630
g17
(lp5631
I1
asg19
I1
sg20
(lp5632
g34
asbI1
(tg5050
I00
S'\xf4\xedo1\xbd\x8f\xadA'
p5633
tp5634
bag5
(g6
(I0
tp5635
g8
tp5636
Rp5637
(g11
(g12
g13
Ntp5638
Rp5639
(dp5640
g17
(lp5641
I1
asg19
I1
sg20
(lp5642
g34
asbI1
(tg5050
I00
S'\x12n0\xe0\xc9\xc4\xadA'
p5643
tp5644
bag5
(g6
(I0
tp5645
g8
tp5646
Rp5647
(g11
(g12
g13
Ntp5648
Rp5649
(dp5650
g17
(lp5651
I1
asg19
I1
sg20
(lp5652
g34
asbI1
(tg5050
I00
S'w\x0cNc\xe5\xd9\xadA'
p5653
tp5654
basS'z'
p5655
(lp5656
F16.623558052686253
aF10.383342051876113
aF7.760385909303658
aF6.261032218898561
aF5.271612154445051
aF4.561225338906955
aF4.021919719675131
aF3.595906673044489
aF3.249222482242713
aF2.9604880271712473
aF2.71551790099832
aF2.504498364677121
aF2.3204055341209258
aF2.158068630365731
aF2.013589558582861
aF1.8839693699809175
aF1.7668599804832716
aF1.6603944899299399
aF1.5630683748162788
aF1.4736545109946961
aF1.39114123528354
aF1.3146864327771053
aF1.2435829846263093
aF1.1772324075636669
aF1.1151244920657093
aF1.0568213952022227
aF1.0019450842703668
aF0.9501673303644178
aF0.9012016643906815
aF0.8547968568831756
aF0.8107315939609481
aF0.7688100988343307
aF0.7288585074728566
aF0.690721850102145
aF0.654261522807559
aF0.619353158234319
aF0.5858848232818779
aF0.5537554862750527
aF0.5228737074298759
aF0.49315651530578974
aF0.4645284389278872
aF0.4369206708132434
aF0.41027034055606815
aF0.3845198821844187
aF0.3596164813648435
aF0.3355115908579227
aF0.3121605045233302
aF0.2895219817258434
aF0.2675579152713472
aF0.24623303705755828
aF0.2255146565001691
aF0.20537242752475926
aF0.18577814052497388
aF0.16670553619946915
aF0.14813013861132807
aF0.13002910517796362
aF0.11238109160837317
aF0.09516613006722707
aF0.07836551906918388
aF0.0619617237984591
aF0.045938285712872506
aF0.030279740432948232
aF0.014971543038453827
aF1.509903313490213e-14
asS'mstar'
p5657
(lp5658
g5
(g6
(I0
tp5659
g8
tp5660
Rp5661
(g11
(g12
g13
Ntp5662
Rp5663
(dp5664
g17
(lp5665
I1
asg19
I1
sg20
(lp5666
g34
asbI1
(tg5050
I00
S'\x00\x00\x00\x00\x00\x00\x00\x00'
p5667
tp5668
bag5
(g6
(I0
tp5669
g8
tp5670
Rp5671
(g11
(g12
g13
Ntp5672
Rp5673
(dp5674
g17
(lp5675
I1
asg19
I1
sg20
(lp5676
g34
asbI1
(tg5050
I00
S'{r\xba\xee\x03\xe26A'
p5677
tp5678
bag5
(g6
(I0
tp5679
g8
tp5680
Rp5681
(g11
(g12
g13
Ntp5682
Rp5683
(dp5684
g17
(lp5685
I1
asg19
I1
sg20
(lp5686
g34
asbI1
(tg5050
I00
S'\x8a\x8d\x1c%VI\x8bA'
p5687
tp5688
bag5
(g6
(I0
tp5689
g8
tp5690
Rp5691
(g11
(g12
g13
Ntp5692
Rp5693
(dp5694
g17
(lp5695
I1
asg19
I1
sg20
(lp5696
g34
asbI1
(tg5050
I00
S'U\x9f\xbbJ\xcd}\xa4A'
p5697
tp5698
bag5
(g6
(I0
tp5699
g8
tp5700
Rp5701
(g11
(g12
g13
Ntp5702
Rp5703
(dp5704
g17
(lp5705
I1
asg19
I1
sg20
(lp5706
g34
asbI1
(tg5050
I00
S"\\\x1f=x '\xc3A"
p5707
tp5708
bag5
(g6
(I0
tp5709
g8
tp5710
Rp5711
(g11
(g12
g13
Ntp5712
Rp5713
(dp5714
g17
(lp5715
I1
asg19
I1
sg20
(lp5716
g34
asbI1
(tg5050
I00
S'\t\xad`\x0c\xceh\xd5A'
p5717
tp5718
bag5
(g6
(I0
tp5719
g8
tp5720
Rp5721
(g11
(g12
g13
Ntp5722
Rp5723
(dp5724
g17
(lp5725
I1
asg19
I1
sg20
(lp5726
g34
asbI1
(tg5050
I00
S'\x80)\x12\x9b)\x1e\xe3A'
p5727
tp5728
bag5
(g6
(I0
tp5729
g8
tp5730
Rp5731
(g11
(g12
g13
Ntp5732
Rp5733
(dp5734
g17
(lp5735
I1
asg19
I1
sg20
(lp5736
g34
asbI1
(tg5050
I00
S'\xa9\xe4\xca\xd6T\x9d\xefA'
p5737
tp5738
bag5
(g6
(I0
tp5739
g8
tp5740
Rp5741
(g11
(g12
g13
Ntp5742
Rp5743
(dp5744
g17
(lp5745
I1
asg19
I1
sg20
(lp5746
g34
asbI1
(tg5050
I00
S'C\r\x1c\\K\xf5\xf8A'
p5747
tp5748
bag5
(g6
(I0
tp5749
g8
tp5750
Rp5751
(g11
(g12
g13
Ntp5752
Rp5753
(dp5754
g17
(lp5755
I1
asg19
I1
sg20
(lp5756
g34
asbI1
(tg5050
I00
S'\xd4}\xbfi\x8f\x11\x04B'
p5757
tp5758
bag5
(g6
(I0
tp5759
g8
tp5760
Rp5761
(g11
(g12
g13
Ntp5762
Rp5763
(dp5764
g17
(lp5765
I1
asg19
I1
sg20
(lp5766
g34
asbI1
(tg5050
I00
S'\\\xd4\x8c\x9c\xb2\r\x0bB'
p5767
tp5768
bag5
(g6
(I0
tp5769
g8
tp5770
Rp5771
(g11
(g12
g13
Ntp5772
Rp5773
(dp5774
g17
(lp5775
I1
asg19
I1
sg20
(lp5776
g34
asbI1
(tg5050
I00
S'\xc0\x9a\x9fia\x18\x13B'
p5777
tp5778
bag5
(g6
(I0
tp5779
g8
tp5780
Rp5781
(g11
(g12
g13
Ntp5782
Rp5783
(dp5784
g17
(lp5785
I1
asg19
I1
sg20
(lp5786
g34
asbI1
(tg5050
I00
S'\xd7\xb8&\xf2\xa4\x8a\x18B'
p5787
tp5788
bag5
(g6
(I0
tp5789
g8
tp5790
Rp5791
(g11
(g12
g13
Ntp5792
Rp5793
(dp5794
g17
(lp5795
I1
asg19
I1
sg20
(lp5796
g34
asbI1
(tg5050
I00
S'\x19\x88\x0b\x93\xb9u\x1dB'
p5797
tp5798
bag5
(g6
(I0
tp5799
g8
tp5800
Rp5801
(g11
(g12
g13
Ntp5802
Rp5803
(dp5804
g17
(lp5805
I1
asg19
I1
sg20
(lp5806
g34
asbI1
(tg5050
I00
S'\\\x00\xef\xac.\x8f!B'
p5807
tp5808
bag5
(g6
(I0
tp5809
g8
tp5810
Rp5811
(g11
(g12
g13
Ntp5812
Rp5813
(dp5814
g17
(lp5815
I1
asg19
I1
sg20
(lp5816
g34
asbI1
(tg5050
I00
S'L\x83\xbc\x0f\xfa\x13$B'
p5817
tp5818
bag5
(g6
(I0
tp5819
g8
tp5820
Rp5821
(g11
(g12
g13
Ntp5822
Rp5823
(dp5824
g17
(lp5825
I1
asg19
I1
sg20
(lp5826
g34
asbI1
(tg5050
I00
S'\xb59\x15^\xf8\xbe&B'
p5827
tp5828
bag5
(g6
(I0
tp5829
g8
tp5830
Rp5831
(g11
(g12
g13
Ntp5832
Rp5833
(dp5834
g17
(lp5835
I1
asg19
I1
sg20
(lp5836
g34
asbI1
(tg5050
I00
S'R\xdc*n\xe5\x83(B'
p5837
tp5838
bag5
(g6
(I0
tp5839
g8
tp5840
Rp5841
(g11
(g12
g13
Ntp5842
Rp5843
(dp5844
g17
(lp5845
I1
asg19
I1
sg20
(lp5846
g34
asbI1
(tg5050
I00
S'O\xb6\xd0Z\x8c\x80)B'
p5847
tp5848
bag5
(g6
(I0
tp5849
g8
tp5850
Rp5851
(g11
(g12
g13
Ntp5852
Rp5853
(dp5854
g17
(lp5855
I1
asg19
I1
sg20
(lp5856
g34
asbI1
(tg5050
I00
S'\xc0\t\x8e\xb2\x12\xf5*B'
p5857
tp5858
bag5
(g6
(I0
tp5859
g8
tp5860
Rp5861
(g11
(g12
g13
Ntp5862
Rp5863
(dp5864
g17
(lp5865
I1
asg19
I1
sg20
(lp5866
g34
asbI1
(tg5050
I00
S'\x93\xb8\x98\x0e6\xdd+B'
p5867
tp5868
bag5
(g6
(I0
tp5869
g8
tp5870
Rp5871
(g11
(g12
g13
Ntp5872
Rp5873
(dp5874
g17
(lp5875
I1
asg19
I1
sg20
(lp5876
g34
asbI1
(tg5050
I00
S'Uu\xb9\x85\xbdO,B'
p5877
tp5878
bag5
(g6
(I0
tp5879
g8
tp5880
Rp5881
(g11
(g12
g13
Ntp5882
Rp5883
(dp5884
g17
(lp5885
I1
asg19
I1
sg20
(lp5886
g34
asbI1
(tg5050
I00
S'B6\xea\xc9\xb1\x94,B'
p5887
tp5888
bag5
(g6
(I0
tp5889
g8
tp5890
Rp5891
(g11
(g12
g13
Ntp5892
Rp5893
(dp5894
g17
(lp5895
I1
asg19
I1
sg20
(lp5896
g34
asbI1
(tg5050
I00
S'\x11\xd3\xdek\x8b\xbd,B'
p5897
tp5898
bag5
(g6
(I0
tp5899
g8
tp5900
Rp5901
(g11
(g12
g13
Ntp5902
Rp5903
(dp5904
g17
(lp5905
I1
asg19
I1
sg20
(lp5906
g34
asbI1
(tg5050
I00
S'\x97\x86\xcf\x9d\xc4\xe8,B'
p5907
tp5908
bag5
(g6
(I0
tp5909
g8
tp5910
Rp5911
(g11
(g12
g13
Ntp5912
Rp5913
(dp5914
g17
(lp5915
I1
asg19
I1
sg20
(lp5916
g34
asbI1
(tg5050
I00
S'\xc2\x15\n=8\x07-B'
p5917
tp5918
bag5
(g6
(I0
tp5919
g8
tp5920
Rp5921
(g11
(g12
g13
Ntp5922
Rp5923
(dp5924
g17
(lp5925
I1
asg19
I1
sg20
(lp5926
g34
asbI1
(tg5050
I00
S'\x9fb[\x9d\xcc&-B'
p5927
tp5928
bag5
(g6
(I0
tp5929
g8
tp5930
Rp5931
(g11
(g12
g13
Ntp5932
Rp5933
(dp5934
g17
(lp5935
I1
asg19
I1
sg20
(lp5936
g34
asbI1
(tg5050
I00
S'\x1d |\x16\xa4I-B'
p5937
tp5938
bag5
(g6
(I0
tp5939
g8
tp5940
Rp5941
(g11
(g12
g13
Ntp5942
Rp5943
(dp5944
g17
(lp5945
I1
asg19
I1
sg20
(lp5946
g34
asbI1
(tg5050
I00
S'\xd8\xb8\x18e\x0b}-B'
p5947
tp5948
bag5
(g6
(I0
tp5949
g8
tp5950
Rp5951
(g11
(g12
g13
Ntp5952
Rp5953
(dp5954
g17
(lp5955
I1
asg19
I1
sg20
(lp5956
g34
asbI1
(tg5050
I00
S'\x1bP\x99\xee+\xb7-B'
p5957
tp5958
bag5
(g6
(I0
tp5959
g8
tp5960
Rp5961
(g11
(g12
g13
Ntp5962
Rp5963
(dp5964
g17
(lp5965
I1
asg19
I1
sg20
(lp5966
g34
asbI1
(tg5050
I00
S'\xb9\x81\x12\xf6~\xdc/B'
p5967
tp5968
bag5
(g6
(I0
tp5969
g8
tp5970
Rp5971
(g11
(g12
g13
Ntp5972
Rp5973
(dp5974
g17
(lp5975
I1
asg19
I1
sg20
(lp5976
g34
asbI1
(tg5050
I00
S'\x00\x00\x00\x00\x00\x00\x00\x00'
p5977
tp5978
bag5
(g6
(I0
tp5979
g8
tp5980
Rp5981
(g11
(g12
g13
Ntp5982
Rp5983
(dp5984
g17
(lp5985
I1
asg19
I1
sg20
(lp5986
g34
asbI1
(tg5050
I00
S'O\xa0\xe6\xfe\xf6)0B'
p5987
tp5988
bag5
(g6
(I0
tp5989
g8
tp5990
Rp5991
(g11
(g12
g13
Ntp5992
Rp5993
(dp5994
g17
(lp5995
I1
asg19
I1
sg20
(lp5996
g34
asbI1
(tg5050
I00
S'#\xd9\x1dFZ40B'
p5997
tp5998
bag5
(g6
(I0
tp5999
g8
tp6000
Rp6001
(g11
(g12
g13
Ntp6002
Rp6003
(dp6004
g17
(lp6005
I1
asg19
I1
sg20
(lp6006
g34
asbI1
(tg5050
I00
S'\xad~\xf1\xa3990B'
p6007
tp6008
bag5
(g6
(I0
tp6009
g8
tp6010
Rp6011
(g11
(g12
g13
Ntp6012
Rp6013
(dp6014
g17
(lp6015
I1
asg19
I1
sg20
(lp6016
g34
asbI1
(tg5050
I00
S'`\xc5@<\x15G0B'
p6017
tp6018
bag5
(g6
(I0
tp6019
g8
tp6020
Rp6021
(g11
(g12
g13
Ntp6022
Rp6023
(dp6024
g17
(lp6025
I1
asg19
I1
sg20
(lp6026
g34
asbI1
(tg5050
I00
S'#\xe5\xe7t\x0eX0B'
p6027
tp6028
bag5
(g6
(I0
tp6029
g8
tp6030
Rp6031
(g11
(g12
g13
Ntp6032
Rp6033
(dp6034
g17
(lp6035
I1
asg19
I1
sg20
(lp6036
g34
asbI1
(tg5050
I00
S"a\x1d;{'m0B"
p6037
tp6038
bag5
(g6
(I0
tp6039
g8
tp6040
Rp6041
(g11
(g12
g13
Ntp6042
Rp6043
(dp6044
g17
(lp6045
I1
asg19
I1
sg20
(lp6046
g34
asbI1
(tg5050
I00
S"\x01\x1a'x\x1fn0B"
p6047
tp6048
bag5
(g6
(I0
tp6049
g8
tp6050
Rp6051
(g11
(g12
g13
Ntp6052
Rp6053
(dp6054
g17
(lp6055
I1
asg19
I1
sg20
(lp6056
g34
asbI1
(tg5050
I00
S'\x06\xca\xf7I\xcfq0B'
p6057
tp6058
bag5
(g6
(I0
tp6059
g8
tp6060
Rp6061
(g11
(g12
g13
Ntp6062
Rp6063
(dp6064
g17
(lp6065
I1
asg19
I1
sg20
(lp6066
g34
asbI1
(tg5050
I00
S'c\xe0!\xd5\xc6w0B'
p6067
tp6068
bag5
(g6
(I0
tp6069
g8
tp6070
Rp6071
(g11
(g12
g13
Ntp6072
Rp6073
(dp6074
g17
(lp6075
I1
asg19
I1
sg20
(lp6076
g34
asbI1
(tg5050
I00
S'h\xf1N\xcaG\x880B'
p6077
tp6078
bag5
(g6
(I0
tp6079
g8
tp6080
Rp6081
(g11
(g12
g13
Ntp6082
Rp6083
(dp6084
g17
(lp6085
I1
asg19
I1
sg20
(lp6086
g34
asbI1
(tg5050
I00
S'\xce\xe8\xb3J\x0e\x920B'
p6087
tp6088
bag5
(g6
(I0
tp6089
g8
tp6090
Rp6091
(g11
(g12
g13
Ntp6092
Rp6093
(dp6094
g17
(lp6095
I1
asg19
I1
sg20
(lp6096
g34
asbI1
(tg5050
I00
S'\xdeN\xda\xff~\x9d0B'
p6097
tp6098
bag5
(g6
(I0
tp6099
g8
tp6100
Rp6101
(g11
(g12
g13
Ntp6102
Rp6103
(dp6104
g17
(lp6105
I1
asg19
I1
sg20
(lp6106
g34
asbI1
(tg5050
I00
S'\xddk\xf3\xb2;\xa10B'
p6107
tp6108
bag5
(g6
(I0
tp6109
g8
tp6110
Rp6111
(g11
(g12
g13
Ntp6112
Rp6113
(dp6114
g17
(lp6115
I1
asg19
I1
sg20
(lp6116
g34
asbI1
(tg5050
I00
S'\xec\x8a7\x0f>\xac0B'
p6117
tp6118
bag5
(g6
(I0
tp6119
g8
tp6120
Rp6121
(g11
(g12
g13
Ntp6122
Rp6123
(dp6124
g17
(lp6125
I1
asg19
I1
sg20
(lp6126
g34
asbI1
(tg5050
I00
S'\xed\x9b\xdb\xe4\xf8\xad0B'
p6127
tp6128
bag5
(g6
(I0
tp6129
g8
tp6130
Rp6131
(g11
(g12
g13
Ntp6132
Rp6133
(dp6134
g17
(lp6135
I1
asg19
I1
sg20
(lp6136
g34
asbI1
(tg5050
I00
S'\x96\xaf,\xee\xcf\xb00B'
p6137
tp6138
bag5
(g6
(I0
tp6139
g8
tp6140
Rp6141
(g11
(g12
g13
Ntp6142
Rp6143
(dp6144
g17
(lp6145
I1
asg19
I1
sg20
(lp6146
g34
asbI1
(tg5050
I00
S'U7o\x8a\xad\xac0B'
p6147
tp6148
bag5
(g6
(I0
tp6149
g8
tp6150
Rp6151
(g11
(g12
g13
Ntp6152
Rp6153
(dp6154
g17
(lp6155
I1
asg19
I1
sg20
(lp6156
g34
asbI1
(tg5050
I00
S'\x01\x9c\x81\xca=\xaf0B'
p6157
tp6158
bag5
(g6
(I0
tp6159
g8
tp6160
Rp6161
(g11
(g12
g13
Ntp6162
Rp6163
(dp6164
g17
(lp6165
I1
asg19
I1
sg20
(lp6166
g34
asbI1
(tg5050
I00
S'\xde\xa1\xb3\xceu\xae0B'
p6167
tp6168
bag5
(g6
(I0
tp6169
g8
tp6170
Rp6171
(g11
(g12
g13
Ntp6172
Rp6173
(dp6174
g17
(lp6175
I1
asg19
I1
sg20
(lp6176
g34
asbI1
(tg5050
I00
S'\xfc\xee\xe1\x18e\xa10B'
p6177
tp6178
bag5
(g6
(I0
tp6179
g8
tp6180
Rp6181
(g11
(g12
g13
Ntp6182
Rp6183
(dp6184
g17
(lp6185
I1
asg19
I1
sg20
(lp6186
g34
asbI1
(tg5050
I00
S'\xc3\xef\x8a\x81*\x9d0B'
p6187
tp6188
bag5
(g6
(I0
tp6189
g8
tp6190
Rp6191
(g11
(g12
g13
Ntp6192
Rp6193
(dp6194
g17
(lp6195
I1
asg19
I1
sg20
(lp6196
g34
asbI1
(tg5050
I00
S'<\xcc\xd0\xa9\x18\x9e0B'
p6197
tp6198
bag5
(g6
(I0
tp6199
g8
tp6200
Rp6201
(g11
(g12
g13
Ntp6202
Rp6203
(dp6204
g17
(lp6205
I1
asg19
I1
sg20
(lp6206
g34
asbI1
(tg5050
I00
S'\xf7i\xcdVX\x9b0B'
p6207
tp6208
bag5
(g6
(I0
tp6209
g8
tp6210
Rp6211
(g11
(g12
g13
Ntp6212
Rp6213
(dp6214
g17
(lp6215
I1
asg19
I1
sg20
(lp6216
g34
asbI1
(tg5050
I00
S'\xdb\x820\x84\x89\x980B'
p6217
tp6218
bag5
(g6
(I0
tp6219
g8
tp6220
Rp6221
(g11
(g12
g13
Ntp6222
Rp6223
(dp6224
g17
(lp6225
I1
asg19
I1
sg20
(lp6226
g34
asbI1
(tg5050
I00
S'\xe0\xd9\xf9T.\x980B'
p6227
tp6228
bag5
(g6
(I0
tp6229
g8
tp6230
Rp6231
(g11
(g12
g13
Ntp6232
Rp6233
(dp6234
g17
(lp6235
I1
asg19
I1
sg20
(lp6236
g34
asbI1
(tg5050
I00
S'\xca?\xc5wK\x990B'
p6237
tp6238
bag5
(g6
(I0
tp6239
g8
tp6240
Rp6241
(g11
(g12
g13
Ntp6242
Rp6243
(dp6244
g17
(lp6245
I1
asg19
I1
sg20
(lp6246
g34
asbI1
(tg5050
I00
S'Q\x16\xf3\xb0\x96\x970B'
p6247
tp6248
bag5
(g6
(I0
tp6249
g8
tp6250
Rp6251
(g11
(g12
g13
Ntp6252
Rp6253
(dp6254
g17
(lp6255
I1
asg19
I1
sg20
(lp6256
g34
asbI1
(tg5050
I00
S'\xe2\xfe\x1d\x13s\x960B'
p6257
tp6258
bag5
(g6
(I0
tp6259
g8
tp6260
Rp6261
(g11
(g12
g13
Ntp6262
Rp6263
(dp6264
g17
(lp6265
I1
asg19
I1
sg20
(lp6266
g34
asbI1
(tg5050
I00
S'~.\xb6\xfb\xd3\x930B'
p6267
tp6268
bag5
(g6
(I0
tp6269
g8
tp6270
Rp6271
(g11
(g12
g13
Ntp6272
Rp6273
(dp6274
g17
(lp6275
I1
asg19
I1
sg20
(lp6276
g34
asbI1
(tg5050
I00
S'\x15\x04\xbfH\x9f\x900B'
p6277
tp6278
bag5
(g6
(I0
tp6279
g8
tp6280
Rp6281
(g11
(g12
g13
Ntp6282
Rp6283
(dp6284
g17
(lp6285
I1
asg19
I1
sg20
(lp6286
g34
asbI1
(tg5050
I00
S'\xcd\xaa\xdb\xa2\x87\x930B'
p6287
tp6288
bag5
(g6
(I0
tp6289
g8
tp6290
Rp6291
(g11
(g12
g13
Ntp6292
Rp6293
(dp6294
g17
(lp6295
I1
asg19
I1
sg20
(lp6296
g34
asbI1
(tg5050
I00
S'\xdb@s\xa0\xda\x920B'
p6297
tp6298
bassS'g2.19e11'
p6299
(dp6300
S'mbh'
p6301
(lp6302
I0
aI0
aI0
aI0
aI0
aI0
aI0
aI0
aI0
aI0
aI0
aI0
aI0
aI0
aI0
ag5
(g6
(I0
tp6303
g8
tp6304
Rp6305
(g11
(g12
g13
Ntp6306
Rp6307
(dp6308
g17
(lp6309
I1
asg19
I1
sg20
(lp6310
g34
asbI1
(tg35
(S'f8'
p6311
I0
I1
tp6312
Rp6313
(I3
S'<'
p6314
NNNI-1
I-1
I0
tp6315
bI00
S'\xb7\xbe\x0fP+$\xe4@'
p6316
tp6317
bag5
(g6
(I0
tp6318
g8
tp6319
Rp6320
(g11
(g12
g13
Ntp6321
Rp6322
(dp6323
g17
(lp6324
I1
asg19
I1
sg20
(lp6325
g34
asbI1
(tg6313
I00
S'a\xf6\x04\xd7v%\xe5@'
p6326
tp6327
bag5
(g6
(I0
tp6328
g8
tp6329
Rp6330
(g11
(g12
g13
Ntp6331
Rp6332
(dp6333
g17
(lp6334
I1
asg19
I1
sg20
(lp6335
g34
asbI1
(tg6313
I00
S';e\xbc\x946W\xe6@'
p6336
tp6337
bag5
(g6
(I0
tp6338
g8
tp6339
Rp6340
(g11
(g12
g13
Ntp6341
Rp6342
(dp6343
g17
(lp6344
I1
asg19
I1
sg20
(lp6345
g34
asbI1
(tg6313
I00
S'\xd9"\x87V%\xed\xe6@'
p6346
tp6347
bag5
(g6
(I0
tp6348
g8
tp6349
Rp6350
(g11
(g12
g13
Ntp6351
Rp6352
(dp6353
g17
(lp6354
I1
asg19
I1
sg20
(lp6355
g34
asbI1
(tg6313
I00
S'\nf\x05\xe7\xf3\xd2\xe7@'
p6356
tp6357
bag5
(g6
(I0
tp6358
g8
tp6359
Rp6360
(g11
(g12
g13
Ntp6361
Rp6362
(dp6363
g17
(lp6364
I1
asg19
I1
sg20
(lp6365
g34
asbI1
(tg6313
I00
S'\xa3j\xc0\xb7\xcb\x98\xe8@'
p6366
tp6367
bag5
(g6
(I0
tp6368
g8
tp6369
Rp6370
(g11
(g12
g13
Ntp6371
Rp6372
(dp6373
g17
(lp6374
I1
asg19
I1
sg20
(lp6375
g34
asbI1
(tg6313
I00
S'\x9c\xb2\x18B\xea\xd5\xe9@'
p6376
tp6377
bag5
(g6
(I0
tp6378
g8
tp6379
Rp6380
(g11
(g12
g13
Ntp6381
Rp6382
(dp6383
g17
(lp6384
I1
asg19
I1
sg20
(lp6385
g34
asbI1
(tg6313
I00
S'\n|3\xb9\xe9\xb4\xeb@'
p6386
tp6387
bag5
(g6
(I0
tp6388
g8
tp6389
Rp6390
(g11
(g12
g13
Ntp6391
Rp6392
(dp6393
g17
(lp6394
I1
asg19
I1
sg20
(lp6395
g34
asbI1
(tg6313
I00
S'y\xdbv0lU\xed@'
p6396
tp6397
bag5
(g6
(I0
tp6398
g8
tp6399
Rp6400
(g11
(g12
g13
Ntp6401
Rp6402
(dp6403
g17
(lp6404
I1
asg19
I1
sg20
(lp6405
g34
asbI1
(tg6313
I00
S'6e\x99\xfb\x18\n\xee@'
p6406
tp6407
bag5
(g6
(I0
tp6408
g8
tp6409
Rp6410
(g11
(g12
g13
Ntp6411
Rp6412
(dp6413
g17
(lp6414
I1
asg19
I1
sg20
(lp6415
g34
asbI1
(tg6313
I00
S"\x81x\xdbN'\xc0\xef@"
p6416
tp6417
bag5
(g6
(I0
tp6418
g8
tp6419
Rp6420
(g11
(g12
g13
Ntp6421
Rp6422
(dp6423
g17
(lp6424
I1
asg19
I1
sg20
(lp6425
g34
asbI1
(tg6313
I00
S'Zc\x14\xbbw[\xf0@'
p6426
tp6427
bag5
(g6
(I0
tp6428
g8
tp6429
Rp6430
(g11
(g12
g13
Ntp6431
Rp6432
(dp6433
g17
(lp6434
I1
asg19
I1
sg20
(lp6435
g34
asbI1
(tg6313
I00
S'9\x89}\x1e(\xf0\xf0@'
p6436
tp6437
bag5
(g6
(I0
tp6438
g8
tp6439
Rp6440
(g11
(g12
g13
Ntp6441
Rp6442
(dp6443
g17
(lp6444
I1
asg19
I1
sg20
(lp6445
g34
asbI1
(tg6313
I00
S'\xc1]\xbf\x94\xb5Q\xf1@'
p6446
tp6447
bag5
(g6
(I0
tp6448
g8
tp6449
Rp6450
(g11
(g12
g13
Ntp6451
Rp6452
(dp6453
g17
(lp6454
I1
asg19
I1
sg20
(lp6455
g34
asbI1
(tg6313
I00
S' \xa6\xefl\x13\xd7\xf1@'
p6456
tp6457
bag5
(g6
(I0
tp6458
g8
tp6459
Rp6460
(g11
(g12
g13
Ntp6461
Rp6462
(dp6463
g17
(lp6464
I1
asg19
I1
sg20
(lp6465
g34
asbI1
(tg6313
I00
S'\xc8x\xfb\x00\xe1q\xf2@'
p6466
tp6467
bag5
(g6
(I0
tp6468
g8
tp6469
Rp6470
(g11
(g12
g13
Ntp6471
Rp6472
(dp6473
g17
(lp6474
I1
asg19
I1
sg20
(lp6475
g34
asbI1
(tg6313
I00
S'mC\xa2J\nZ\xf3@'
p6476
tp6477
bag5
(g6
(I0
tp6478
g8
tp6479
Rp6480
(g11
(g12
g13
Ntp6481
Rp6482
(dp6483
g17
(lp6484
I1
asg19
I1
sg20
(lp6485
g34
asbI1
(tg6313
I00
S'eoB\xcf\x1a\r\xf4@'
p6486
tp6487
bag5
(g6
(I0
tp6488
g8
tp6489
Rp6490
(g11
(g12
g13
Ntp6491
Rp6492
(dp6493
g17
(lp6494
I1
asg19
I1
sg20
(lp6495
g34
asbI1
(tg6313
I00
S'\xc6\x06\xf2^\xf5\xb1\xf4@'
p6496
tp6497
bag5
(g6
(I0
tp6498
g8
tp6499
Rp6500
(g11
(g12
g13
Ntp6501
Rp6502
(dp6503
g17
(lp6504
I1
asg19
I1
sg20
(lp6505
g34
asbI1
(tg6313
I00
S'\xf7\xf3\xd5t\xc6/\xf5@'
p6506
tp6507
bag5
(g6
(I0
tp6508
g8
tp6509
Rp6510
(g11
(g12
g13
Ntp6511
Rp6512
(dp6513
g17
(lp6514
I1
asg19
I1
sg20
(lp6515
g34
asbI1
(tg6313
I00
S'6\xfb\x0b\x91\xaf\x07\xf6@'
p6516
tp6517
bag5
(g6
(I0
tp6518
g8
tp6519
Rp6520
(g11
(g12
g13
Ntp6521
Rp6522
(dp6523
g17
(lp6524
I1
asg19
I1
sg20
(lp6525
g34
asbI1
(tg6313
I00
S't \x00c\xda\x0b\xf7@'
p6526
tp6527
bag5
(g6
(I0
tp6528
g8
tp6529
Rp6530
(g11
(g12
g13
Ntp6531
Rp6532
(dp6533
g17
(lp6534
I1
asg19
I1
sg20
(lp6535
g34
asbI1
(tg6313
I00
S'f~\xfa\xef\xa7\xdc\xf7@'
p6536
tp6537
bag5
(g6
(I0
tp6538
g8
tp6539
Rp6540
(g11
(g12
g13
Ntp6541
Rp6542
(dp6543
g17
(lp6544
I1
asg19
I1
sg20
(lp6545
g34
asbI1
(tg6313
I00
S'\xa7k\x89\xd6\xd7\xbc\xf8@'
p6546
tp6547
bag5
(g6
(I0
tp6548
g8
tp6549
Rp6550
(g11
(g12
g13
Ntp6551
Rp6552
(dp6553
g17
(lp6554
I1
asg19
I1
sg20
(lp6555
g34
asbI1
(tg6313
I00
S'l\x99yC\xa29\xf9@'
p6556
tp6557
bag5
(g6
(I0
tp6558
g8
tp6559
Rp6560
(g11
(g12
g13
Ntp6561
Rp6562
(dp6563
g17
(lp6564
I1
asg19
I1
sg20
(lp6565
g34
asbI1
(tg6313
I00
S'\x91<KA2\xba\xf9@'
p6566
tp6567
bag5
(g6
(I0
tp6568
g8
tp6569
Rp6570
(g11
(g12
g13
Ntp6571
Rp6572
(dp6573
g17
(lp6574
I1
asg19
I1
sg20
(lp6575
g34
asbI1
(tg6313
I00
S'w*\x02C\xc2\xbf\xfa@'
p6576
tp6577
bag5
(g6
(I0
tp6578
g8
tp6579
Rp6580
(g11
(g12
g13
Ntp6581
Rp6582
(dp6583
g17
(lp6584
I1
asg19
I1
sg20
(lp6585
g34
asbI1
(tg6313
I00
S':Z\xcb\xae\xdb\xa2\xfb@'
p6586
tp6587
bag5
(g6
(I0
tp6588
g8
tp6589
Rp6590
(g11
(g12
g13
Ntp6591
Rp6592
(dp6593
g17
(lp6594
I1
asg19
I1
sg20
(lp6595
g34
asbI1
(tg6313
I00
S'\xa5\xba6\r\xba\x12\xfd@'
p6596
tp6597
bag5
(g6
(I0
tp6598
g8
tp6599
Rp6600
(g11
(g12
g13
Ntp6601
Rp6602
(dp6603
g17
(lp6604
I1
asg19
I1
sg20
(lp6605
g34
asbI1
(tg6313
I00
S')\xccb\x1aC\xb7\xfd@'
p6606
tp6607
bag5
(g6
(I0
tp6608
g8
tp6609
Rp6610
(g11
(g12
g13
Ntp6611
Rp6612
(dp6613
g17
(lp6614
I1
asg19
I1
sg20
(lp6615
g34
asbI1
(tg6313
I00
S'[\xcd\xc6\xa1\x0e\xb8\xfe@'
p6616
tp6617
bag5
(g6
(I0
tp6618
g8
tp6619
Rp6620
(g11
(g12
g13
Ntp6621
Rp6622
(dp6623
g17
(lp6624
I1
asg19
I1
sg20
(lp6625
g34
asbI1
(tg6313
I00
S'\xdcE%9\x18\xa2\xff@'
p6626
tp6627
bag5
(g6
(I0
tp6628
g8
tp6629
Rp6630
(g11
(g12
g13
Ntp6631
Rp6632
(dp6633
g17
(lp6634
I1
asg19
I1
sg20
(lp6635
g34
asbI1
(tg6313
I00
S'\x1c$&\x88\x7f\xa7\x00A'
p6636
tp6637
bag5
(g6
(I0
tp6638
g8
tp6639
Rp6640
(g11
(g12
g13
Ntp6641
Rp6642
(dp6643
g17
(lp6644
I1
asg19
I1
sg20
(lp6645
g34
asbI1
(tg6313
I00
S'\xdae\xf5.\x94R\x01A'
p6646
tp6647
bag5
(g6
(I0
tp6648
g8
tp6649
Rp6650
(g11
(g12
g13
Ntp6651
Rp6652
(dp6653
g17
(lp6654
I1
asg19
I1
sg20
(lp6655
g34
asbI1
(tg6313
I00
S'\x1fcnoM\xc7\x01A'
p6656
tp6657
bag5
(g6
(I0
tp6658
g8
tp6659
Rp6660
(g11
(g12
g13
Ntp6661
Rp6662
(dp6663
g17
(lp6664
I1
asg19
I1
sg20
(lp6665
g34
asbI1
(tg6313
I00
S'u\x9b\xe5}\x1aE\x02A'
p6666
tp6667
bag5
(g6
(I0
tp6668
g8
tp6669
Rp6670
(g11
(g12
g13
Ntp6671
Rp6672
(dp6673
g17
(lp6674
I1
asg19
I1
sg20
(lp6675
g34
asbI1
(tg6313
I00
S'\x1e#\xc1\xab\xf9 \x03A'
p6676
tp6677
bag5
(g6
(I0
tp6678
g8
tp6679
Rp6680
(g11
(g12
g13
Ntp6681
Rp6682
(dp6683
g17
(lp6684
I1
asg19
I1
sg20
(lp6685
g34
asbI1
(tg6313
I00
S'3\x99(\xad\xac\xd1\x03A'
p6686
tp6687
bag5
(g6
(I0
tp6688
g8
tp6689
Rp6690
(g11
(g12
g13
Ntp6691
Rp6692
(dp6693
g17
(lp6694
I1
asg19
I1
sg20
(lp6695
g34
asbI1
(tg6313
I00
S'\x0c\x939\xd4\xf5\xb3\x04A'
p6696
tp6697
bag5
(g6
(I0
tp6698
g8
tp6699
Rp6700
(g11
(g12
g13
Ntp6701
Rp6702
(dp6703
g17
(lp6704
I1
asg19
I1
sg20
(lp6705
g34
asbI1
(tg6313
I00
S'\x99\x98\x12\xf3z;\x05A'
p6706
tp6707
bag5
(g6
(I0
tp6708
g8
tp6709
Rp6710
(g11
(g12
g13
Ntp6711
Rp6712
(dp6713
g17
(lp6714
I1
asg19
I1
sg20
(lp6715
g34
asbI1
(tg6313
I00
S'\x11\xac\x11E\xb8\x89\x06A'
p6716
tp6717
bag5
(g6
(I0
tp6718
g8
tp6719
Rp6720
(g11
(g12
g13
Ntp6721
Rp6722
(dp6723
g17
(lp6724
I1
asg19
I1
sg20
(lp6725
g34
asbI1
(tg6313
I00
S'IO=\xb9\xc1@\x07A'
p6726
tp6727
bag5
(g6
(I0
tp6728
g8
tp6729
Rp6730
(g11
(g12
g13
Ntp6731
Rp6732
(dp6733
g17
(lp6734
I1
asg19
I1
sg20
(lp6735
g34
asbI1
(tg6313
I00
S'ng\xa0\x9eP\xf2\x07A'
p6736
tp6737
bag5
(g6
(I0
tp6738
g8
tp6739
Rp6740
(g11
(g12
g13
Ntp6741
Rp6742
(dp6743
g17
(lp6744
I1
asg19
I1
sg20
(lp6745
g34
asbI1
(tg6313
I00
S'\xf28%\x98\xc8\xcd\x08A'
p6746
tp6747
bag5
(g6
(I0
tp6748
g8
tp6749
Rp6750
(g11
(g12
g13
Ntp6751
Rp6752
(dp6753
g17
(lp6754
I1
asg19
I1
sg20
(lp6755
g34
asbI1
(tg6313
I00
S'\xa7F\xa3qq;\tA'
p6756
tp6757
bag5
(g6
(I0
tp6758
g8
tp6759
Rp6760
(g11
(g12
g13
Ntp6761
Rp6762
(dp6763
g17
(lp6764
I1
asg19
I1
sg20
(lp6765
g34
asbI1
(tg6313
I00
S'\x93p\xf8~L4\nA'
p6766
tp6767
bag5
(g6
(I0
tp6768
g8
tp6769
Rp6770
(g11
(g12
g13
Ntp6771
Rp6772
(dp6773
g17
(lp6774
I1
asg19
I1
sg20
(lp6775
g34
asbI1
(tg6313
I00
S'k\xe8\xc9x\x0b\x91\x0bA'
p6776
tp6777
bag5
(g6
(I0
tp6778
g8
tp6779
Rp6780
(g11
(g12
g13
Ntp6781
Rp6782
(dp6783
g17
(lp6784
I1
asg19
I1
sg20
(lp6785
g34
asbI1
(tg6313
I00
S'\xfb\x86< \xcag\x0cA'
p6786
tp6787
bag5
(g6
(I0
tp6788
g8
tp6789
Rp6790
(g11
(g12
g13
Ntp6791
Rp6792
(dp6793
g17
(lp6794
I1
asg19
I1
sg20
(lp6795
g34
asbI1
(tg6313
I00
S'AJ\x12\xf4N\xea\x0cA'
p6796
tp6797
basS'z'
p6798
(lp6799
F16.623558052686253
aF10.383342051876113
aF7.760385909303658
aF6.261032218898561
aF5.271612154445051
aF4.561225338906955
aF4.021919719675131
aF3.595906673044489
aF3.249222482242713
aF2.9604880271712473
aF2.71551790099832
aF2.504498364677121
aF2.3204055341209258
aF2.158068630365731
aF2.013589558582861
aF1.8839693699809175
aF1.7668599804832716
aF1.6603944899299399
aF1.5630683748162806
aF1.4736545109946966
aF1.3911412352835417
aF1.3146864327771066
aF1.2435829846263102
aF1.1772324075636686
aF1.1151244920657106
aF1.056821395202224
aF1.001945084270368
aF0.9501673303644187
aF0.9012016643906815
aF0.8547968568831767
aF0.810731593960949
aF0.7688100988343307
aF0.7288585074728573
aF0.6907218501021457
aF0.6542615228075603
aF0.619353158234319
aF0.5858848232818783
aF0.5537554862750533
aF0.5228737074298768
aF0.4931565153057902
aF0.46452843892788787
aF0.4369206708132438
aF0.41027034055606837
aF0.38451988218441935
aF0.3596164813648439
aF0.33551159085792337
aF0.3121605045233309
aF0.2895219817258434
aF0.26755791527134787
aF0.24623303705755828
aF0.22551465650016955
aF0.20537242752475993
aF0.1857781405249741
aF0.16670553619946937
aF0.14813013861132895
aF0.13002910517796407
aF0.11238109160837317
aF0.09516613006722774
aF0.07836551906918454
aF0.0619617237984591
aF0.04593828571287295
aF0.030279740432948676
aF0.01497154303845405
aF1.5765166949677223e-14
asS'mstar'
p6800
(lp6801
g5
(g6
(I0
tp6802
g8
tp6803
Rp6804
(g11
(g12
g13
Ntp6805
Rp6806
(dp6807
g17
(lp6808
I1
asg19
I1
sg20
(lp6809
g34
asbI1
(tg6313
I00
S'\x00\x00\x00\x00\x00\x00\x00\x00'
p6810
tp6811
bag5
(g6
(I0
tp6812
g8
tp6813
Rp6814
(g11
(g12
g13
Ntp6815
Rp6816
(dp6817
g17
(lp6818
I1
asg19
I1
sg20
(lp6819
g34
asbI1
(tg6313
I00
S'\xc0OI\xa5\x19U6A'
p6820
tp6821
bag5
(g6
(I0
tp6822
g8
tp6823
Rp6824
(g11
(g12
g13
Ntp6825
Rp6826
(dp6827
g17
(lp6828
I1
asg19
I1
sg20
(lp6829
g34
asbI1
(tg6313
I00
S'\xad\x82$\xd8\x91#*A'
p6830
tp6831
bag5
(g6
(I0
tp6832
g8
tp6833
Rp6834
(g11
(g12
g13
Ntp6835
Rp6836
(dp6837
g17
(lp6838
I1
asg19
I1
sg20
(lp6839
g34
asbI1
(tg6313
I00
S'\xd4S\xde\xc7Me[A'
p6840
tp6841
bag5
(g6
(I0
tp6842
g8
tp6843
Rp6844
(g11
(g12
g13
Ntp6845
Rp6846
(dp6847
g17
(lp6848
I1
asg19
I1
sg20
(lp6849
g34
asbI1
(tg6313
I00
S'\xaaw\xdc*\x08\x94cA'
p6850
tp6851
bag5
(g6
(I0
tp6852
g8
tp6853
Rp6854
(g11
(g12
g13
Ntp6855
Rp6856
(dp6857
g17
(lp6858
I1
asg19
I1
sg20
(lp6859
g34
asbI1
(tg6313
I00
S'\xe3XW\xa8\x16\x8alA'
p6860
tp6861
bag5
(g6
(I0
tp6862
g8
tp6863
Rp6864
(g11
(g12
g13
Ntp6865
Rp6866
(dp6867
g17
(lp6868
I1
asg19
I1
sg20
(lp6869
g34
asbI1
(tg6313
I00
S'\xf8\xa2\xdcsd\xe0vA'
p6870
tp6871
bag5
(g6
(I0
tp6872
g8
tp6873
Rp6874
(g11
(g12
g13
Ntp6875
Rp6876
(dp6877
g17
(lp6878
I1
asg19
I1
sg20
(lp6879
g34
asbI1
(tg6313
I00
S'\xd7pl\xd2\x82\x15{A'
p6880
tp6881
bag5
(g6
(I0
tp6882
g8
tp6883
Rp6884
(g11
(g12
g13
Ntp6885
Rp6886
(dp6887
g17
(lp6888
I1
asg19
I1
sg20
(lp6889
g34
asbI1
(tg6313
I00
S'\xc7\xad\xe9`\x1d\xa3\x81A'
p6890
tp6891
bag5
(g6
(I0
tp6892
g8
tp6893
Rp6894
(g11
(g12
g13
Ntp6895
Rp6896
(dp6897
g17
(lp6898
I1
asg19
I1
sg20
(lp6899
g34
asbI1
(tg6313
I00
S'L\xe9g5D\xe7\x84A'
p6900
tp6901
bag5
(g6
(I0
tp6902
g8
tp6903
Rp6904
(g11
(g12
g13
Ntp6905
Rp6906
(dp6907
g17
(lp6908
I1
asg19
I1
sg20
(lp6909
g34
asbI1
(tg6313
I00
S'Lja\xb6\x81j\x86A'
p6910
tp6911
bag5
(g6
(I0
tp6912
g8
tp6913
Rp6914
(g11
(g12
g13
Ntp6915
Rp6916
(dp6917
g17
(lp6918
I1
asg19
I1
sg20
(lp6919
g34
asbI1
(tg6313
I00
S'\xc2\xc1\xc6X\xfd\xa0qA'
p6920
tp6921
bag5
(g6
(I0
tp6922
g8
tp6923
Rp6924
(g11
(g12
g13
Ntp6925
Rp6926
(dp6927
g17
(lp6928
I1
asg19
I1
sg20
(lp6929
g34
asbI1
(tg6313
I00
S'\xa1\xb5\x84\x1fX\xc1uA'
p6930
tp6931
bag5
(g6
(I0
tp6932
g8
tp6933
Rp6934
(g11
(g12
g13
Ntp6935
Rp6936
(dp6937
g17
(lp6938
I1
asg19
I1
sg20
(lp6939
g34
asbI1
(tg6313
I00
S'\x1f\x9e\x88\x99\xaa\x9b|A'
p6940
tp6941
bag5
(g6
(I0
tp6942
g8
tp6943
Rp6944
(g11
(g12
g13
Ntp6945
Rp6946
(dp6947
g17
(lp6948
I1
asg19
I1
sg20
(lp6949
g34
asbI1
(tg6313
I00
S'\x0e\x8d\x82\x02\x82\xb8~A'
p6950
tp6951
bag5
(g6
(I0
tp6952
g8
tp6953
Rp6954
(g11
(g12
g13
Ntp6955
Rp6956
(dp6957
g17
(lp6958
I1
asg19
I1
sg20
(lp6959
g34
asbI1
(tg6313
I00
S'\xbd\x95`\xe4Wf\x83A'
p6960
tp6961
bag5
(g6
(I0
tp6962
g8
tp6963
Rp6964
(g11
(g12
g13
Ntp6965
Rp6966
(dp6967
g17
(lp6968
I1
asg19
I1
sg20
(lp6969
g34
asbI1
(tg6313
I00
S'o\x03\xf5\xab\x11\x8a\x89A'
p6970
tp6971
bag5
(g6
(I0
tp6972
g8
tp6973
Rp6974
(g11
(g12
g13
Ntp6975
Rp6976
(dp6977
g17
(lp6978
I1
asg19
I1
sg20
(lp6979
g34
asbI1
(tg6313
I00
S'\x96\xba\xc1\xcc\no\x8bA'
p6980
tp6981
bag5
(g6
(I0
tp6982
g8
tp6983
Rp6984
(g11
(g12
g13
Ntp6985
Rp6986
(dp6987
g17
(lp6988
I1
asg19
I1
sg20
(lp6989
g34
asbI1
(tg6313
I00
S'QU\xb0\xd8f\x15\x9aA'
p6990
tp6991
bag5
(g6
(I0
tp6992
g8
tp6993
Rp6994
(g11
(g12
g13
Ntp6995
Rp6996
(dp6997
g17
(lp6998
I1
asg19
I1
sg20
(lp6999
g34
asbI1
(tg6313
I00
S'z\xf3\xfe\xe0\xf4\x05\xa1A'
p7000
tp7001
bag5
(g6
(I0
tp7002
g8
tp7003
Rp7004
(g11
(g12
g13
Ntp7005
Rp7006
(dp7007
g17
(lp7008
I1
asg19
I1
sg20
(lp7009
g34
asbI1
(tg6313
I00
S'\x94\xfc\xbd\xcb@\x92\xa2A'
p7010
tp7011
bag5
(g6
(I0
tp7012
g8
tp7013
Rp7014
(g11
(g12
g13
Ntp7015
Rp7016
(dp7017
g17
(lp7018
I1
asg19
I1
sg20
(lp7019
g34
asbI1
(tg6313
I00
S'\xc2\xe2r\xee\x9a\xe0\xa5A'
p7020
tp7021
bag5
(g6
(I0
tp7022
g8
tp7023
Rp7024
(g11
(g12
g13
Ntp7025
Rp7026
(dp7027
g17
(lp7028
I1
asg19
I1
sg20
(lp7029
g34
asbI1
(tg6313
I00
S'\xac\xe3\xbb7\x9de\xa7A'
p7030
tp7031
bag5
(g6
(I0
tp7032
g8
tp7033
Rp7034
(g11
(g12
g13
Ntp7035
Rp7036
(dp7037
g17
(lp7038
I1
asg19
I1
sg20
(lp7039
g34
asbI1
(tg6313
I00
S'\x12\xe0\x92\xde\x842\xa8A'
p7040
tp7041
bag5
(g6
(I0
tp7042
g8
tp7043
Rp7044
(g11
(g12
g13
Ntp7045
Rp7046
(dp7047
g17
(lp7048
I1
asg19
I1
sg20
(lp7049
g34
asbI1
(tg6313
I00
S'N\x17\xd4}v%\xaaA'
p7050
tp7051
bag5
(g6
(I0
tp7052
g8
tp7053
Rp7054
(g11
(g12
g13
Ntp7055
Rp7056
(dp7057
g17
(lp7058
I1
asg19
I1
sg20
(lp7059
g34
asbI1
(tg6313
I00
S'\x9c\\ j\xe5\x13\xabA'
p7060
tp7061
bag5
(g6
(I0
tp7062
g8
tp7063
Rp7064
(g11
(g12
g13
Ntp7065
Rp7066
(dp7067
g17
(lp7068
I1
asg19
I1
sg20
(lp7069
g34
asbI1
(tg6313
I00
S'\xaf)\xc5S{c\xadA'
p7070
tp7071
bag5
(g6
(I0
tp7072
g8
tp7073
Rp7074
(g11
(g12
g13
Ntp7075
Rp7076
(dp7077
g17
(lp7078
I1
asg19
I1
sg20
(lp7079
g34
asbI1
(tg6313
I00
S'Xy1\xee~\xe2\xaeA'
p7080
tp7081
bag5
(g6
(I0
tp7082
g8
tp7083
Rp7084
(g11
(g12
g13
Ntp7085
Rp7086
(dp7087
g17
(lp7088
I1
asg19
I1
sg20
(lp7089
g34
asbI1
(tg6313
I00
S'\x80\x88\xc6\x0eGY\xb0A'
p7090
tp7091
bag5
(g6
(I0
tp7092
g8
tp7093
Rp7094
(g11
(g12
g13
Ntp7095
Rp7096
(dp7097
g17
(lp7098
I1
asg19
I1
sg20
(lp7099
g34
asbI1
(tg6313
I00
S'\x1d\xf3\x9b\x126\xcc\xb0A'
p7100
tp7101
bag5
(g6
(I0
tp7102
g8
tp7103
Rp7104
(g11
(g12
g13
Ntp7105
Rp7106
(dp7107
g17
(lp7108
I1
asg19
I1
sg20
(lp7109
g34
asbI1
(tg6313
I00
S'f\x92\xe4B\xca{\xb1A'
p7110
tp7111
bag5
(g6
(I0
tp7112
g8
tp7113
Rp7114
(g11
(g12
g13
Ntp7115
Rp7116
(dp7117
g17
(lp7118
I1
asg19
I1
sg20
(lp7119
g34
asbI1
(tg6313
I00
S'\xc5\x05|\x06\xb8G\xb4A'
p7120
tp7121
bag5
(g6
(I0
tp7122
g8
tp7123
Rp7124
(g11
(g12
g13
Ntp7125
Rp7126
(dp7127
g17
(lp7128
I1
asg19
I1
sg20
(lp7129
g34
asbI1
(tg6313
I00
S'\xf9\xa7G\xc0e\xa4\xb5A'
p7130
tp7131
bag5
(g6
(I0
tp7132
g8
tp7133
Rp7134
(g11
(g12
g13
Ntp7135
Rp7136
(dp7137
g17
(lp7138
I1
asg19
I1
sg20
(lp7139
g34
asbI1
(tg6313
I00
S'\xc8\xf34\x0f\xec\x9f\xb6A'
p7140
tp7141
bag5
(g6
(I0
tp7142
g8
tp7143
Rp7144
(g11
(g12
g13
Ntp7145
Rp7146
(dp7147
g17
(lp7148
I1
asg19
I1
sg20
(lp7149
g34
asbI1
(tg6313
I00
S'\xb5\xc4L\xbe!g\xb7A'
p7150
tp7151
bag5
(g6
(I0
tp7152
g8
tp7153
Rp7154
(g11
(g12
g13
Ntp7155
Rp7156
(dp7157
g17
(lp7158
I1
asg19
I1
sg20
(lp7159
g34
asbI1
(tg6313
I00
S'\xceP\xa5.\xb8\xb6\xb8A'
p7160
tp7161
bag5
(g6
(I0
tp7162
g8
tp7163
Rp7164
(g11
(g12
g13
Ntp7165
Rp7166
(dp7167
g17
(lp7168
I1
asg19
I1
sg20
(lp7169
g34
asbI1
(tg6313
I00
S'{G\xc1\x0b\xf5@\xb9A'
p7170
tp7171
bag5
(g6
(I0
tp7172
g8
tp7173
Rp7174
(g11
(g12
g13
Ntp7175
Rp7176
(dp7177
g17
(lp7178
I1
asg19
I1
sg20
(lp7179
g34
asbI1
(tg6313
I00
S'\xcc\x8c|\xe1\xe3\xd1\xbbA'
p7180
tp7181
bag5
(g6
(I0
tp7182
g8
tp7183
Rp7184
(g11
(g12
g13
Ntp7185
Rp7186
(dp7187
g17
(lp7188
I1
asg19
I1
sg20
(lp7189
g34
asbI1
(tg6313
I00
S'\x01C`C\x0c\x85\xbdA'
p7190
tp7191
bag5
(g6
(I0
tp7192
g8
tp7193
Rp7194
(g11
(g12
g13
Ntp7195
Rp7196
(dp7197
g17
(lp7198
I1
asg19
I1
sg20
(lp7199
g34
asbI1
(tg6313
I00
S'Mn\xcc\xe8\x93z\xbeA'
p7200
tp7201
bag5
(g6
(I0
tp7202
g8
tp7203
Rp7204
(g11
(g12
g13
Ntp7205
Rp7206
(dp7207
g17
(lp7208
I1
asg19
I1
sg20
(lp7209
g34
asbI1
(tg6313
I00
S'\x9cm\xa5U8\x96\xc0A'
p7210
tp7211
bag5
(g6
(I0
tp7212
g8
tp7213
Rp7214
(g11
(g12
g13
Ntp7215
Rp7216
(dp7217
g17
(lp7218
I1
asg19
I1
sg20
(lp7219
g34
asbI1
(tg6313
I00
S'A\xd1\x99\xb5\xc8\xfb\xc0A'
p7220
tp7221
bag5
(g6
(I0
tp7222
g8
tp7223
Rp7224
(g11
(g12
g13
Ntp7225
Rp7226
(dp7227
g17
(lp7228
I1
asg19
I1
sg20
(lp7229
g34
asbI1
(tg6313
I00
S'\x9aM\x9d^\xf3\xcf\xc1A'
p7230
tp7231
bag5
(g6
(I0
tp7232
g8
tp7233
Rp7234
(g11
(g12
g13
Ntp7235
Rp7236
(dp7237
g17
(lp7238
I1
asg19
I1
sg20
(lp7239
g34
asbI1
(tg6313
I00
S'\x15N\xa4\x01YG\xc2A'
p7240
tp7241
bag5
(g6
(I0
tp7242
g8
tp7243
Rp7244
(g11
(g12
g13
Ntp7245
Rp7246
(dp7247
g17
(lp7248
I1
asg19
I1
sg20
(lp7249
g34
asbI1
(tg6313
I00
S'J\xc8l\x1c\xff\x15\xc3A'
p7250
tp7251
bag5
(g6
(I0
tp7252
g8
tp7253
Rp7254
(g11
(g12
g13
Ntp7255
Rp7256
(dp7257
g17
(lp7258
I1
asg19
I1
sg20
(lp7259
g34
asbI1
(tg6313
I00
S'Y|3\x89q\xab\xc3A'
p7260
tp7261
bag5
(g6
(I0
tp7262
g8
tp7263
Rp7264
(g11
(g12
g13
Ntp7265
Rp7266
(dp7267
g17
(lp7268
I1
asg19
I1
sg20
(lp7269
g34
asbI1
(tg6313
I00
S'\xb6\x1a9\xc2\xf1H\xc4A'
p7270
tp7271
bag5
(g6
(I0
tp7272
g8
tp7273
Rp7274
(g11
(g12
g13
Ntp7275
Rp7276
(dp7277
g17
(lp7278
I1
asg19
I1
sg20
(lp7279
g34
asbI1
(tg6313
I00
S'd\x1dr\x9f\xf8\xcd\xc4A'
p7280
tp7281
bag5
(g6
(I0
tp7282
g8
tp7283
Rp7284
(g11
(g12
g13
Ntp7285
Rp7286
(dp7287
g17
(lp7288
I1
asg19
I1
sg20
(lp7289
g34
asbI1
(tg6313
I00
S'&\xce\xbe\xd7\xd7\xc3\xc5A'
p7290
tp7291
bag5
(g6
(I0
tp7292
g8
tp7293
Rp7294
(g11
(g12
g13
Ntp7295
Rp7296
(dp7297
g17
(lp7298
I1
asg19
I1
sg20
(lp7299
g34
asbI1
(tg6313
I00
S'S\xa6a\xbf\x9d\xd0\xc6A'
p7300
tp7301
bag5
(g6
(I0
tp7302
g8
tp7303
Rp7304
(g11
(g12
g13
Ntp7305
Rp7306
(dp7307
g17
(lp7308
I1
asg19
I1
sg20
(lp7309
g34
asbI1
(tg6313
I00
S'\xb2\xa3l\x93\x01\x1c\xc7A'
p7310
tp7311
bag5
(g6
(I0
tp7312
g8
tp7313
Rp7314
(g11
(g12
g13
Ntp7315
Rp7316
(dp7317
g17
(lp7318
I1
asg19
I1
sg20
(lp7319
g34
asbI1
(tg6313
I00
S'\xea\xf6\xa7\xe1\xcf\x95\xc7A'
p7320
tp7321
bag5
(g6
(I0
tp7322
g8
tp7323
Rp7324
(g11
(g12
g13
Ntp7325
Rp7326
(dp7327
g17
(lp7328
I1
asg19
I1
sg20
(lp7329
g34
asbI1
(tg6313
I00
S'\xbd\xaf\xf1\xa2_^\xc8A'
p7330
tp7331
bag5
(g6
(I0
tp7332
g8
tp7333
Rp7334
(g11
(g12
g13
Ntp7335
Rp7336
(dp7337
g17
(lp7338
I1
asg19
I1
sg20
(lp7339
g34
asbI1
(tg6313
I00
S'^3C^n\xbd\xc9A'
p7340
tp7341
bag5
(g6
(I0
tp7342
g8
tp7343
Rp7344
(g11
(g12
g13
Ntp7345
Rp7346
(dp7347
g17
(lp7348
I1
asg19
I1
sg20
(lp7349
g34
asbI1
(tg6313
I00
S'>\xed7Q\xc0\x13\xcaA'
p7350
tp7351
bag5
(g6
(I0
tp7352
g8
tp7353
Rp7354
(g11
(g12
g13
Ntp7355
Rp7356
(dp7357
g17
(lp7358
I1
asg19
I1
sg20
(lp7359
g34
asbI1
(tg6313
I00
S'\xd8~\xd9)"\xba\xcaA'
p7360
tp7361
bag5
(g6
(I0
tp7362
g8
tp7363
Rp7364
(g11
(g12
g13
Ntp7365
Rp7366
(dp7367
g17
(lp7368
I1
asg19
I1
sg20
(lp7369
g34
asbI1
(tg6313
I00
S'Id\xeb\x08\xf2T\xcbA'
p7370
tp7371
bag5
(g6
(I0
tp7372
g8
tp7373
Rp7374
(g11
(g12
g13
Ntp7375
Rp7376
(dp7377
g17
(lp7378
I1
asg19
I1
sg20
(lp7379
g34
asbI1
(tg6313
I00
S'\x83\xd3\xf8t\xaa\xfc\xcbA'
p7380
tp7381
bag5
(g6
(I0
tp7382
g8
tp7383
Rp7384
(g11
(g12
g13
Ntp7385
Rp7386
(dp7387
g17
(lp7388
I1
asg19
I1
sg20
(lp7389
g34
asbI1
(tg6313
I00
S'\xe6?  2\x01\xcdA'
p7390
tp7391
bag5
(g6
(I0
tp7392
g8
tp7393
Rp7394
(g11
(g12
g13
Ntp7395
Rp7396
(dp7397
g17
(lp7398
I1
asg19
I1
sg20
(lp7399
g34
asbI1
(tg6313
I00
S'C\x01\x06\t\x02\xd7\xcdA'
p7400
tp7401
bag5
(g6
(I0
tp7402
g8
tp7403
Rp7404
(g11
(g12
g13
Ntp7405
Rp7406
(dp7407
g17
(lp7408
I1
asg19
I1
sg20
(lp7409
g34
asbI1
(tg6313
I00
S'\xf7\xb4\x85g\xf0-\xceA'
p7410
tp7411
bag5
(g6
(I0
tp7412
g8
tp7413
Rp7414
(g11
(g12
g13
Ntp7415
Rp7416
(dp7417
g17
(lp7418
I1
asg19
I1
sg20
(lp7419
g34
asbI1
(tg6313
I00
S'\x00\xe4\xd9\xe4*a\xcfA'
p7420
tp7421
bag5
(g6
(I0
tp7422
g8
tp7423
Rp7424
(g11
(g12
g13
Ntp7425
Rp7426
(dp7427
g17
(lp7428
I1
asg19
I1
sg20
(lp7429
g34
asbI1
(tg6313
I00
S'6\x0b\x00\xec\x1c\x93\xcfA'
p7430
tp7431
bag5
(g6
(I0
tp7432
g8
tp7433
Rp7434
(g11
(g12
g13
Ntp7435
Rp7436
(dp7437
g17
(lp7438
I1
asg19
I1
sg20
(lp7439
g34
asbI1
(tg6313
I00
S'\xae\x85\x07\x96\x179\xd0A'
p7440
tp7441
bassS'g1.44e13'
p7442
(dp7443
S'mbh'
p7444
(lp7445
I0
aI0
ag5
(g6
(I0
tp7446
g8
tp7447
Rp7448
(g11
(g12
g13
Ntp7449
Rp7450
(dp7451
g17
(lp7452
I1
asg19
I1
sg20
(lp7453
g34
asbI1
(tg35
(S'f8'
p7454
I0
I1
tp7455
Rp7456
(I3
S'<'
p7457
NNNI-1
I-1
I0
tp7458
bI00
S'\xf6\x0bA\xd9\x82\x1f\xf9@'
p7459
tp7460
bag5
(g6
(I0
tp7461
g8
tp7462
Rp7463
(g11
(g12
g13
Ntp7464
Rp7465
(dp7466
g17
(lp7467
I1
asg19
I1
sg20
(lp7468
g34
asbI1
(tg7456
I00
S'pu\x99\rNG\xfb@'
p7469
tp7470
bag5
(g6
(I0
tp7471
g8
tp7472
Rp7473
(g11
(g12
g13
Ntp7474
Rp7475
(dp7476
g17
(lp7477
I1
asg19
I1
sg20
(lp7478
g34
asbI1
(tg7456
I00
S'\xe9\xa2\x01\xd2\x11X\xfe@'
p7479
tp7480
bag5
(g6
(I0
tp7481
g8
tp7482
Rp7483
(g11
(g12
g13
Ntp7484
Rp7485
(dp7486
g17
(lp7487
I1
asg19
I1
sg20
(lp7488
g34
asbI1
(tg7456
I00
S'\xd2\xf6W\xf5\xc5\xdd\x16A'
p7489
tp7490
bag5
(g6
(I0
tp7491
g8
tp7492
Rp7493
(g11
(g12
g13
Ntp7494
Rp7495
(dp7496
g17
(lp7497
I1
asg19
I1
sg20
(lp7498
g34
asbI1
(tg7456
I00
S'|Q\xc6\x9dV\x151A'
p7499
tp7500
bag5
(g6
(I0
tp7501
g8
tp7502
Rp7503
(g11
(g12
g13
Ntp7504
Rp7505
(dp7506
g17
(lp7507
I1
asg19
I1
sg20
(lp7508
g34
asbI1
(tg7456
I00
S'b\x1b\xd4\xc6+\xedHA'
p7509
tp7510
bag5
(g6
(I0
tp7511
g8
tp7512
Rp7513
(g11
(g12
g13
Ntp7514
Rp7515
(dp7516
g17
(lp7517
I1
asg19
I1
sg20
(lp7518
g34
asbI1
(tg7456
I00
S'#\x06\xb1\xeb!M\x8bA'
p7519
tp7520
bag5
(g6
(I0
tp7521
g8
tp7522
Rp7523
(g11
(g12
g13
Ntp7524
Rp7525
(dp7526
g17
(lp7527
I1
asg19
I1
sg20
(lp7528
g34
asbI1
(tg7456
I00
S's\x00!S\x8e\r\xb3A'
p7529
tp7530
bag5
(g6
(I0
tp7531
g8
tp7532
Rp7533
(g11
(g12
g13
Ntp7534
Rp7535
(dp7536
g17
(lp7537
I1
asg19
I1
sg20
(lp7538
g34
asbI1
(tg7456
I00
S'Y\x8d\x18\x81\x14J\xb9A'
p7539
tp7540
bag5
(g6
(I0
tp7541
g8
tp7542
Rp7543
(g11
(g12
g13
Ntp7544
Rp7545
(dp7546
g17
(lp7547
I1
asg19
I1
sg20
(lp7548
g34
asbI1
(tg7456
I00
S'\xeeI\r\xa6\xe2\xeb\xbfA'
p7549
tp7550
bag5
(g6
(I0
tp7551
g8
tp7552
Rp7553
(g11
(g12
g13
Ntp7554
Rp7555
(dp7556
g17
(lp7557
I1
asg19
I1
sg20
(lp7558
g34
asbI1
(tg7456
I00
S'\xefm\x04\xd2\xf3Q\xc2A'
p7559
tp7560
bag5
(g6
(I0
tp7561
g8
tp7562
Rp7563
(g11
(g12
g13
Ntp7564
Rp7565
(dp7566
g17
(lp7567
I1
asg19
I1
sg20
(lp7568
g34
asbI1
(tg7456
I00
S'\xe6\x14w*\x98\xdd\xc3A'
p7569
tp7570
bag5
(g6
(I0
tp7571
g8
tp7572
Rp7573
(g11
(g12
g13
Ntp7574
Rp7575
(dp7576
g17
(lp7577
I1
asg19
I1
sg20
(lp7578
g34
asbI1
(tg7456
I00
S'\xf7mJT\xfdA\xc7A'
p7579
tp7580
bag5
(g6
(I0
tp7581
g8
tp7582
Rp7583
(g11
(g12
g13
Ntp7584
Rp7585
(dp7586
g17
(lp7587
I1
asg19
I1
sg20
(lp7588
g34
asbI1
(tg7456
I00
S'\x08V%\xa8L\xdf\xc8A'
p7589
tp7590
bag5
(g6
(I0
tp7591
g8
tp7592
Rp7593
(g11
(g12
g13
Ntp7594
Rp7595
(dp7596
g17
(lp7597
I1
asg19
I1
sg20
(lp7598
g34
asbI1
(tg7456
I00
S'_(q\x1cm\xb9\xcbA'
p7599
tp7600
bag5
(g6
(I0
tp7601
g8
tp7602
Rp7603
(g11
(g12
g13
Ntp7604
Rp7605
(dp7606
g17
(lp7607
I1
asg19
I1
sg20
(lp7608
g34
asbI1
(tg7456
I00
S'\xd6\x97\x02z\xe5\xb6\xceA'
p7609
tp7610
bag5
(g6
(I0
tp7611
g8
tp7612
Rp7613
(g11
(g12
g13
Ntp7614
Rp7615
(dp7616
g17
(lp7617
I1
asg19
I1
sg20
(lp7618
g34
asbI1
(tg7456
I00
S'\xeb\xf3\x80\xbffD\xd1A'
p7619
tp7620
bag5
(g6
(I0
tp7621
g8
tp7622
Rp7623
(g11
(g12
g13
Ntp7624
Rp7625
(dp7626
g17
(lp7627
I1
asg19
I1
sg20
(lp7628
g34
asbI1
(tg7456
I00
S'\x83\xb3\xb6Z\xab(\xd2A'
p7629
tp7630
bag5
(g6
(I0
tp7631
g8
tp7632
Rp7633
(g11
(g12
g13
Ntp7634
Rp7635
(dp7636
g17
(lp7637
I1
asg19
I1
sg20
(lp7638
g34
asbI1
(tg7456
I00
S'\xa9>\x03GxO\xd3A'
p7639
tp7640
bag5
(g6
(I0
tp7641
g8
tp7642
Rp7643
(g11
(g12
g13
Ntp7644
Rp7645
(dp7646
g17
(lp7647
I1
asg19
I1
sg20
(lp7648
g34
asbI1
(tg7456
I00
S'\xffa\x9e\x82\xf5\xe2\xd4A'
p7649
tp7650
bag5
(g6
(I0
tp7651
g8
tp7652
Rp7653
(g11
(g12
g13
Ntp7654
Rp7655
(dp7656
g17
(lp7657
I1
asg19
I1
sg20
(lp7658
g34
asbI1
(tg7456
I00
S'\xbes\xd9\xeb\x10t\xd5A'
p7659
tp7660
bag5
(g6
(I0
tp7661
g8
tp7662
Rp7663
(g11
(g12
g13
Ntp7664
Rp7665
(dp7666
g17
(lp7667
I1
asg19
I1
sg20
(lp7668
g34
asbI1
(tg7456
I00
S'\xaa,\xed\xac\xab/\xd7A'
p7669
tp7670
bag5
(g6
(I0
tp7671
g8
tp7672
Rp7673
(g11
(g12
g13
Ntp7674
Rp7675
(dp7676
g17
(lp7677
I1
asg19
I1
sg20
(lp7678
g34
asbI1
(tg7456
I00
S'\x8c\xe9;G\x12\xa1\xd7A'
p7679
tp7680
bag5
(g6
(I0
tp7681
g8
tp7682
Rp7683
(g11
(g12
g13
Ntp7684
Rp7685
(dp7686
g17
(lp7687
I1
asg19
I1
sg20
(lp7688
g34
asbI1
(tg7456
I00
S'\x06x\x93\x1fC\x1f\xd8A'
p7689
tp7690
bag5
(g6
(I0
tp7691
g8
tp7692
Rp7693
(g11
(g12
g13
Ntp7694
Rp7695
(dp7696
g17
(lp7697
I1
asg19
I1
sg20
(lp7698
g34
asbI1
(tg7456
I00
S'\x9e\\\x00\xcdq\x8f\xd8A'
p7699
tp7700
bag5
(g6
(I0
tp7701
g8
tp7702
Rp7703
(g11
(g12
g13
Ntp7704
Rp7705
(dp7706
g17
(lp7707
I1
asg19
I1
sg20
(lp7708
g34
asbI1
(tg7456
I00
S'|\xd4-`\x17\xee\xd8A'
p7709
tp7710
bag5
(g6
(I0
tp7711
g8
tp7712
Rp7713
(g11
(g12
g13
Ntp7714
Rp7715
(dp7716
g17
(lp7717
I1
asg19
I1
sg20
(lp7718
g34
asbI1
(tg7456
I00
S'g\xf4z\xfa\xa5X\xd9A'
p7719
tp7720
bag5
(g6
(I0
tp7721
g8
tp7722
Rp7723
(g11
(g12
g13
Ntp7724
Rp7725
(dp7726
g17
(lp7727
I1
asg19
I1
sg20
(lp7728
g34
asbI1
(tg7456
I00
S'\x13$\xe3T\xdd\xc9\xd9A'
p7729
tp7730
bag5
(g6
(I0
tp7731
g8
tp7732
Rp7733
(g11
(g12
g13
Ntp7734
Rp7735
(dp7736
g17
(lp7737
I1
asg19
I1
sg20
(lp7738
g34
asbI1
(tg7456
I00
S'J\xb0\xa5\x1bh\x86\xdaA'
p7739
tp7740
bag5
(g6
(I0
tp7741
g8
tp7742
Rp7743
(g11
(g12
g13
Ntp7744
Rp7745
(dp7746
g17
(lp7747
I1
asg19
I1
sg20
(lp7748
g34
asbI1
(tg7456
I00
S'\xba\xe0\x07\x80?\xce\xdaA'
p7749
tp7750
bag5
(g6
(I0
tp7751
g8
tp7752
Rp7753
(g11
(g12
g13
Ntp7754
Rp7755
(dp7756
g17
(lp7757
I1
asg19
I1
sg20
(lp7758
g34
asbI1
(tg7456
I00
S'\x93\xef\xabE\xc0#\xdbA'
p7759
tp7760
bag5
(g6
(I0
tp7761
g8
tp7762
Rp7763
(g11
(g12
g13
Ntp7764
Rp7765
(dp7766
g17
(lp7767
I1
asg19
I1
sg20
(lp7768
g34
asbI1
(tg7456
I00
S'\x9f\xae\xbe)tn\xdbA'
p7769
tp7770
bag5
(g6
(I0
tp7771
g8
tp7772
Rp7773
(g11
(g12
g13
Ntp7774
Rp7775
(dp7776
g17
(lp7777
I1
asg19
I1
sg20
(lp7778
g34
asbI1
(tg7456
I00
S'\x05>\x88b\xd5\xab\xdbA'
p7779
tp7780
bag5
(g6
(I0
tp7781
g8
tp7782
Rp7783
(g11
(g12
g13
Ntp7784
Rp7785
(dp7786
g17
(lp7787
I1
asg19
I1
sg20
(lp7788
g34
asbI1
(tg7456
I00
S'(Jo\x82\xf1\xcb\xdcA'
p7789
tp7790
bag5
(g6
(I0
tp7791
g8
tp7792
Rp7793
(g11
(g12
g13
Ntp7794
Rp7795
(dp7796
g17
(lp7797
I1
asg19
I1
sg20
(lp7798
g34
asbI1
(tg7456
I00
S'\xe1\xdb@\xee\x1f\xff\xdcA'
p7799
tp7800
bag5
(g6
(I0
tp7801
g8
tp7802
Rp7803
(g11
(g12
g13
Ntp7804
Rp7805
(dp7806
g17
(lp7807
I1
asg19
I1
sg20
(lp7808
g34
asbI1
(tg7456
I00
S'\x00\x9cS\xbfeO\xddA'
p7809
tp7810
bag5
(g6
(I0
tp7811
g8
tp7812
Rp7813
(g11
(g12
g13
Ntp7814
Rp7815
(dp7816
g17
(lp7817
I1
asg19
I1
sg20
(lp7818
g34
asbI1
(tg7456
I00
S'nJ\x0c5u\xc2\xddA'
p7819
tp7820
bag5
(g6
(I0
tp7821
g8
tp7822
Rp7823
(g11
(g12
g13
Ntp7824
Rp7825
(dp7826
g17
(lp7827
I1
asg19
I1
sg20
(lp7828
g34
asbI1
(tg7456
I00
S'\xbf\xb94\xc6\x93\x02\xdeA'
p7829
tp7830
bag5
(g6
(I0
tp7831
g8
tp7832
Rp7833
(g11
(g12
g13
Ntp7834
Rp7835
(dp7836
g17
(lp7837
I1
asg19
I1
sg20
(lp7838
g34
asbI1
(tg7456
I00
S'P \x13\x16^g\xdeA'
p7839
tp7840
bag5
(g6
(I0
tp7841
g8
tp7842
Rp7843
(g11
(g12
g13
Ntp7844
Rp7845
(dp7846
g17
(lp7847
I1
asg19
I1
sg20
(lp7848
g34
asbI1
(tg7456
I00
S'\xbc\x94\xfb\xa0\x8cs\x97A'
p7849
tp7850
bag5
(g6
(I0
tp7851
g8
tp7852
Rp7853
(g11
(g12
g13
Ntp7854
Rp7855
(dp7856
g17
(lp7857
I1
asg19
I1
sg20
(lp7858
g34
asbI1
(tg7456
I00
S'f\x06H\x8b\x8e\x99\x97A'
p7859
tp7860
bag5
(g6
(I0
tp7861
g8
tp7862
Rp7863
(g11
(g12
g13
Ntp7864
Rp7865
(dp7866
g17
(lp7867
I1
asg19
I1
sg20
(lp7868
g34
asbI1
(tg7456
I00
S'\x92y\x82\x99\x8b\xda\x97A'
p7869
tp7870
bag5
(g6
(I0
tp7871
g8
tp7872
Rp7873
(g11
(g12
g13
Ntp7874
Rp7875
(dp7876
g17
(lp7877
I1
asg19
I1
sg20
(lp7878
g34
asbI1
(tg7456
I00
S'\xce\xc7\xb0$\r\x18\x98A'
p7879
tp7880
bag5
(g6
(I0
tp7881
g8
tp7882
Rp7883
(g11
(g12
g13
Ntp7884
Rp7885
(dp7886
g17
(lp7887
I1
asg19
I1
sg20
(lp7888
g34
asbI1
(tg7456
I00
S'\xd3tL>zX\x98A'
p7889
tp7890
bag5
(g6
(I0
tp7891
g8
tp7892
Rp7893
(g11
(g12
g13
Ntp7894
Rp7895
(dp7896
g17
(lp7897
I1
asg19
I1
sg20
(lp7898
g34
asbI1
(tg7456
I00
S'\xc3\x8e\x95\x94\x11\xaf\x98A'
p7899
tp7900
bag5
(g6
(I0
tp7901
g8
tp7902
Rp7903
(g11
(g12
g13
Ntp7904
Rp7905
(dp7906
g17
(lp7907
I1
asg19
I1
sg20
(lp7908
g34
asbI1
(tg7456
I00
S'M\x93\xef\x02\x1c\x02\x99A'
p7909
tp7910
bag5
(g6
(I0
tp7911
g8
tp7912
Rp7913
(g11
(g12
g13
Ntp7914
Rp7915
(dp7916
g17
(lp7917
I1
asg19
I1
sg20
(lp7918
g34
asbI1
(tg7456
I00
S'\xae\xd1{\xa9}z\x99A'
p7919
tp7920
bag5
(g6
(I0
tp7921
g8
tp7922
Rp7923
(g11
(g12
g13
Ntp7924
Rp7925
(dp7926
g17
(lp7927
I1
asg19
I1
sg20
(lp7928
g34
asbI1
(tg7456
I00
S'O\xbbMx\x83\xe3\x99A'
p7929
tp7930
bag5
(g6
(I0
tp7931
g8
tp7932
Rp7933
(g11
(g12
g13
Ntp7934
Rp7935
(dp7936
g17
(lp7937
I1
asg19
I1
sg20
(lp7938
g34
asbI1
(tg7456
I00
S'\xc9\x1c.+JG\x9aA'
p7939
tp7940
baI0
ag5
(g6
(I0
tp7941
g8
tp7942
Rp7943
(g11
(g12
g13
Ntp7944
Rp7945
(dp7946
g17
(lp7947
I1
asg19
I1
sg20
(lp7948
g34
asbI1
(tg7456
I00
S'\xb0$|\xb6c\x0b\x9bA'
p7949
tp7950
bag5
(g6
(I0
tp7951
g8
tp7952
Rp7953
(g11
(g12
g13
Ntp7954
Rp7955
(dp7956
g17
(lp7957
I1
asg19
I1
sg20
(lp7958
g34
asbI1
(tg7456
I00
S'\xb2\xfa%\xe2\xd9^\x9bA'
p7959
tp7960
bag5
(g6
(I0
tp7961
g8
tp7962
Rp7963
(g11
(g12
g13
Ntp7964
Rp7965
(dp7966
g17
(lp7967
I1
asg19
I1
sg20
(lp7968
g34
asbI1
(tg7456
I00
S'gH\xed$\x86\xc0\x9bA'
p7969
tp7970
bag5
(g6
(I0
tp7971
g8
tp7972
Rp7973
(g11
(g12
g13
Ntp7974
Rp7975
(dp7976
g17
(lp7977
I1
asg19
I1
sg20
(lp7978
g34
asbI1
(tg7456
I00
S'\xb5E\xc5\x1b2\x7f\x9cA'
p7979
tp7980
bag5
(g6
(I0
tp7981
g8
tp7982
Rp7983
(g11
(g12
g13
Ntp7984
Rp7985
(dp7986
g17
(lp7987
I1
asg19
I1
sg20
(lp7988
g34
asbI1
(tg7456
I00
S'\x8c\xafq\x93\x94\xbe\x9dA'
p7989
tp7990
bag5
(g6
(I0
tp7991
g8
tp7992
Rp7993
(g11
(g12
g13
Ntp7994
Rp7995
(dp7996
g17
(lp7997
I1
asg19
I1
sg20
(lp7998
g34
asbI1
(tg7456
I00
S'\xcc\xe4\xca\x18\xfaO\x9fA'
p7999
tp8000
bag5
(g6
(I0
tp8001
g8
tp8002
Rp8003
(g11
(g12
g13
Ntp8004
Rp8005
(dp8006
g17
(lp8007
I1
asg19
I1
sg20
(lp8008
g34
asbI1
(tg7456
I00
S'\xb7\x98\xca{\xf1\x0f\xa0A'
p8009
tp8010
bag5
(g6
(I0
tp8011
g8
tp8012
Rp8013
(g11
(g12
g13
Ntp8014
Rp8015
(dp8016
g17
(lp8017
I1
asg19
I1
sg20
(lp8018
g34
asbI1
(tg7456
I00
S'\xa5\x9d\xed\x81;\x82\xa0A'
p8019
tp8020
bag5
(g6
(I0
tp8021
g8
tp8022
Rp8023
(g11
(g12
g13
Ntp8024
Rp8025
(dp8026
g17
(lp8027
I1
asg19
I1
sg20
(lp8028
g34
asbI1
(tg7456
I00
S"d'\xe3\x92\xb8\xc2\xa0A"
p8029
tp8030
bag5
(g6
(I0
tp8031
g8
tp8032
Rp8033
(g11
(g12
g13
Ntp8034
Rp8035
(dp8036
g17
(lp8037
I1
asg19
I1
sg20
(lp8038
g34
asbI1
(tg7456
I00
S's\xfc\x87\xd2\x16\xe1\xa0A'
p8039
tp8040
bag5
(g6
(I0
tp8041
g8
tp8042
Rp8043
(g11
(g12
g13
Ntp8044
Rp8045
(dp8046
g17
(lp8047
I1
asg19
I1
sg20
(lp8048
g34
asbI1
(tg7456
I00
S'\x99\x95La\x13!\xa1A'
p8049
tp8050
bag5
(g6
(I0
tp8051
g8
tp8052
Rp8053
(g11
(g12
g13
Ntp8054
Rp8055
(dp8056
g17
(lp8057
I1
asg19
I1
sg20
(lp8058
g34
asbI1
(tg7456
I00
S'n:\x1c\x0e `\xa1A'
p8059
tp8060
basS'z'
p8061
(lp8062
F15.21405320322921
aF9.894320197673142
aF7.505628545441848
aF6.102643254843908
aF5.16283598378028
aF4.481594594061921
aF3.9609738952834475
aF3.547708985646077
aF3.2101378713117343
aF2.9281587486434693
aF2.688343845413997
aF2.4813531690588175
aF2.300472059089629
aF2.1407388896027233
aF1.998401346143806
aF1.8705647324276962
aF1.754957193574202
aF1.6497686603988262
aF1.553537709393383
aF1.465070403238245
aF1.3833809818213414
aF1.3076477965675055
aF1.23718007884781
aF1.1713925389957818
aF1.1097857117818184
aF1.0519305776284695
aF0.9974564057190631
aF0.9460410532092647
aF0.8974031568637695
aF0.8512957972583748
aF0.8075013193610738
aF0.7658270689435218
aF0.7261018600768294
aF0.6881730305643579
aF0.6519039734767658
aF0.6171720567390486
aF0.5838668609401718
aF0.5518886796063365
aF0.5211472371266319
aF0.4915605880985465
aF0.4630541686269518
aF0.4355599754863029
aF0.4090158533409203
aF0.38336487367053684
aF0.3585547918285601
aF0.33453757092128567
aF0.3112689630395158
aF0.2887081398850184
aF0.2668173660781159
aF0.2455617094612801
aF0.22490878356744437
aF0.20482851813348169
aF0.18529295413470326
aF0.1662760603161757
aF0.1477535686178788
aF0.12970282624681073
aF0.11210266245112321
aF0.0949332683082662
aF0.07817608805831644
aF0.061813720701191954
aF0.045829830737347255
aF0.03020906707006632
aF0.01493698920675568
aF-9.325873406851315e-15
asS'mstar'
p8063
(lp8064
g5
(g6
(I0
tp8065
g8
tp8066
Rp8067
(g11
(g12
g13
Ntp8068
Rp8069
(dp8070
g17
(lp8071
I1
asg19
I1
sg20
(lp8072
g34
asbI1
(tg7456
I00
S'\x00\x00\x00\x00\x00\x00\x00\x00'
p8073
tp8074
bag5
(g6
(I0
tp8075
g8
tp8076
Rp8077
(g11
(g12
g13
Ntp8078
Rp8079
(dp8080
g17
(lp8081
I1
asg19
I1
sg20
(lp8082
g34
asbI1
(tg7456
I00
S'\xa3\xb6\xe8\x97=\xf1`A'
p8083
tp8084
bag5
(g6
(I0
tp8085
g8
tp8086
Rp8087
(g11
(g12
g13
Ntp8088
Rp8089
(dp8090
g17
(lp8091
I1
asg19
I1
sg20
(lp8092
g34
asbI1
(tg7456
I00
S'\x01\x92\xe5\x0e.z\xb1A'
p8093
tp8094
bag5
(g6
(I0
tp8095
g8
tp8096
Rp8097
(g11
(g12
g13
Ntp8098
Rp8099
(dp8100
g17
(lp8101
I1
asg19
I1
sg20
(lp8102
g34
asbI1
(tg7456
I00
S'\xb4\x1a\xffh=\xfb\xe3A'
p8103
tp8104
bag5
(g6
(I0
tp8105
g8
tp8106
Rp8107
(g11
(g12
g13
Ntp8108
Rp8109
(dp8110
g17
(lp8111
I1
asg19
I1
sg20
(lp8112
g34
asbI1
(tg7456
I00
S'`W\xa6\xdf<]\xffA'
p8113
tp8114
bag5
(g6
(I0
tp8115
g8
tp8116
Rp8117
(g11
(g12
g13
Ntp8118
Rp8119
(dp8120
g17
(lp8121
I1
asg19
I1
sg20
(lp8122
g34
asbI1
(tg7456
I00
S'\x0b"KQq\x85$B'
p8123
tp8124
bag5
(g6
(I0
tp8125
g8
tp8126
Rp8127
(g11
(g12
g13
Ntp8128
Rp8129
(dp8130
g17
(lp8131
I1
asg19
I1
sg20
(lp8132
g34
asbI1
(tg7456
I00
S'\x96\x90\x16\xd5\xe2\x8c3B'
p8133
tp8134
bag5
(g6
(I0
tp8135
g8
tp8136
Rp8137
(g11
(g12
g13
Ntp8138
Rp8139
(dp8140
g17
(lp8141
I1
asg19
I1
sg20
(lp8142
g34
asbI1
(tg7456
I00
S'\xa4\xfa\xec;,:;B'
p8143
tp8144
bag5
(g6
(I0
tp8145
g8
tp8146
Rp8147
(g11
(g12
g13
Ntp8148
Rp8149
(dp8150
g17
(lp8151
I1
asg19
I1
sg20
(lp8152
g34
asbI1
(tg7456
I00
S'\xd6D!8\xf3\xdb@B'
p8153
tp8154
bag5
(g6
(I0
tp8155
g8
tp8156
Rp8157
(g11
(g12
g13
Ntp8158
Rp8159
(dp8160
g17
(lp8161
I1
asg19
I1
sg20
(lp8162
g34
asbI1
(tg7456
I00
S'\xdc\xc7\xce\x8e\x9f\xd3@B'
p8163
tp8164
bag5
(g6
(I0
tp8165
g8
tp8166
Rp8167
(g11
(g12
g13
Ntp8168
Rp8169
(dp8170
g17
(lp8171
I1
asg19
I1
sg20
(lp8172
g34
asbI1
(tg7456
I00
S'a\xe5")\xff\x9c@B'
p8173
tp8174
bag5
(g6
(I0
tp8175
g8
tp8176
Rp8177
(g11
(g12
g13
Ntp8178
Rp8179
(dp8180
g17
(lp8181
I1
asg19
I1
sg20
(lp8182
g34
asbI1
(tg7456
I00
S'4\xe6i\x7f\xf0\xd1@B'
p8183
tp8184
bag5
(g6
(I0
tp8185
g8
tp8186
Rp8187
(g11
(g12
g13
Ntp8188
Rp8189
(dp8190
g17
(lp8191
I1
asg19
I1
sg20
(lp8192
g34
asbI1
(tg7456
I00
S'G\xe4W\x95\xb8\xd1AB'
p8193
tp8194
bag5
(g6
(I0
tp8195
g8
tp8196
Rp8197
(g11
(g12
g13
Ntp8198
Rp8199
(dp8200
g17
(lp8201
I1
asg19
I1
sg20
(lp8202
g34
asbI1
(tg7456
I00
S'\xeaY\xb2Nf\xfeAB'
p8203
tp8204
bag5
(g6
(I0
tp8205
g8
tp8206
Rp8207
(g11
(g12
g13
Ntp8208
Rp8209
(dp8210
g17
(lp8211
I1
asg19
I1
sg20
(lp8212
g34
asbI1
(tg7456
I00
S'\xb4)\\\xf9\xf1OBB'
p8213
tp8214
bag5
(g6
(I0
tp8215
g8
tp8216
Rp8217
(g11
(g12
g13
Ntp8218
Rp8219
(dp8220
g17
(lp8221
I1
asg19
I1
sg20
(lp8222
g34
asbI1
(tg7456
I00
S'5\xd1[rc\x90BB'
p8223
tp8224
bag5
(g6
(I0
tp8225
g8
tp8226
Rp8227
(g11
(g12
g13
Ntp8228
Rp8229
(dp8230
g17
(lp8231
I1
asg19
I1
sg20
(lp8232
g34
asbI1
(tg7456
I00
S'J7\x90\x08\xd3\xa8BB'
p8233
tp8234
bag5
(g6
(I0
tp8235
g8
tp8236
Rp8237
(g11
(g12
g13
Ntp8238
Rp8239
(dp8240
g17
(lp8241
I1
asg19
I1
sg20
(lp8242
g34
asbI1
(tg7456
I00
S'\x1c\xc0C#\xe7\xcbBB'
p8243
tp8244
bag5
(g6
(I0
tp8245
g8
tp8246
Rp8247
(g11
(g12
g13
Ntp8248
Rp8249
(dp8250
g17
(lp8251
I1
asg19
I1
sg20
(lp8252
g34
asbI1
(tg7456
I00
S'd0\xcf!\xf4\xcaBB'
p8253
tp8254
bag5
(g6
(I0
tp8255
g8
tp8256
Rp8257
(g11
(g12
g13
Ntp8258
Rp8259
(dp8260
g17
(lp8261
I1
asg19
I1
sg20
(lp8262
g34
asbI1
(tg7456
I00
S'\x8d0\x11\x82\x85\xc2BB'
p8263
tp8264
bag5
(g6
(I0
tp8265
g8
tp8266
Rp8267
(g11
(g12
g13
Ntp8268
Rp8269
(dp8270
g17
(lp8271
I1
asg19
I1
sg20
(lp8272
g34
asbI1
(tg7456
I00
S'\xb7"\xceb\xc8\xabBB'
p8273
tp8274
bag5
(g6
(I0
tp8275
g8
tp8276
Rp8277
(g11
(g12
g13
Ntp8278
Rp8279
(dp8280
g17
(lp8281
I1
asg19
I1
sg20
(lp8282
g34
asbI1
(tg7456
I00
S'\xf9\xa6\x8e\r\xb7\xb3DB'
p8283
tp8284
bag5
(g6
(I0
tp8285
g8
tp8286
Rp8287
(g11
(g12
g13
Ntp8288
Rp8289
(dp8290
g17
(lp8291
I1
asg19
I1
sg20
(lp8292
g34
asbI1
(tg7456
I00
S']\xac~u\x08\xddDB'
p8293
tp8294
bag5
(g6
(I0
tp8295
g8
tp8296
Rp8297
(g11
(g12
g13
Ntp8298
Rp8299
(dp8300
g17
(lp8301
I1
asg19
I1
sg20
(lp8302
g34
asbI1
(tg7456
I00
S'\xcf\xd4?\xcf\xa7\xf7DB'
p8303
tp8304
bag5
(g6
(I0
tp8305
g8
tp8306
Rp8307
(g11
(g12
g13
Ntp8308
Rp8309
(dp8310
g17
(lp8311
I1
asg19
I1
sg20
(lp8312
g34
asbI1
(tg7456
I00
S'\x1b\xe5\xa1\x1c\x99\xf4DB'
p8313
tp8314
bag5
(g6
(I0
tp8315
g8
tp8316
Rp8317
(g11
(g12
g13
Ntp8318
Rp8319
(dp8320
g17
(lp8321
I1
asg19
I1
sg20
(lp8322
g34
asbI1
(tg7456
I00
S'\x01\x8e\xf8\x13b\xe6DB'
p8323
tp8324
bag5
(g6
(I0
tp8325
g8
tp8326
Rp8327
(g11
(g12
g13
Ntp8328
Rp8329
(dp8330
g17
(lp8331
I1
asg19
I1
sg20
(lp8332
g34
asbI1
(tg7456
I00
S'\x03\xddg*\xef^BB'
p8333
tp8334
bag5
(g6
(I0
tp8335
g8
tp8336
Rp8337
(g11
(g12
g13
Ntp8338
Rp8339
(dp8340
g17
(lp8341
I1
asg19
I1
sg20
(lp8342
g34
asbI1
(tg7456
I00
S'l\x81\xfc`lHBB'
p8343
tp8344
bag5
(g6
(I0
tp8345
g8
tp8346
Rp8347
(g11
(g12
g13
Ntp8348
Rp8349
(dp8350
g17
(lp8351
I1
asg19
I1
sg20
(lp8352
g34
asbI1
(tg7456
I00
S':jp$/EBB'
p8353
tp8354
bag5
(g6
(I0
tp8355
g8
tp8356
Rp8357
(g11
(g12
g13
Ntp8358
Rp8359
(dp8360
g17
(lp8361
I1
asg19
I1
sg20
(lp8362
g34
asbI1
(tg7456
I00
S'\xd5Y_\x92\xe89BB'
p8363
tp8364
bag5
(g6
(I0
tp8365
g8
tp8366
Rp8367
(g11
(g12
g13
Ntp8368
Rp8369
(dp8370
g17
(lp8371
I1
asg19
I1
sg20
(lp8372
g34
asbI1
(tg7456
I00
S'.\x90\xd0=F:BB'
p8373
tp8374
bag5
(g6
(I0
tp8375
g8
tp8376
Rp8377
(g11
(g12
g13
Ntp8378
Rp8379
(dp8380
g17
(lp8381
I1
asg19
I1
sg20
(lp8382
g34
asbI1
(tg7456
I00
S'\xca\xe5\xe0}\x9fhDB'
p8383
tp8384
bag5
(g6
(I0
tp8385
g8
tp8386
Rp8387
(g11
(g12
g13
Ntp8388
Rp8389
(dp8390
g17
(lp8391
I1
asg19
I1
sg20
(lp8392
g34
asbI1
(tg7456
I00
S'\x99V\xdcRQ\x9bDB'
p8393
tp8394
bag5
(g6
(I0
tp8395
g8
tp8396
Rp8397
(g11
(g12
g13
Ntp8398
Rp8399
(dp8400
g17
(lp8401
I1
asg19
I1
sg20
(lp8402
g34
asbI1
(tg7456
I00
S'q\x9b# \xed\xa5DB'
p8403
tp8404
bag5
(g6
(I0
tp8405
g8
tp8406
Rp8407
(g11
(g12
g13
Ntp8408
Rp8409
(dp8410
g17
(lp8411
I1
asg19
I1
sg20
(lp8412
g34
asbI1
(tg7456
I00
S"Qt'\x11\x9b\x9eDB"
p8413
tp8414
bag5
(g6
(I0
tp8415
g8
tp8416
Rp8417
(g11
(g12
g13
Ntp8418
Rp8419
(dp8420
g17
(lp8421
I1
asg19
I1
sg20
(lp8422
g34
asbI1
(tg7456
I00
S'\xbd\xe3$x\r\x9dDB'
p8423
tp8424
bag5
(g6
(I0
tp8425
g8
tp8426
Rp8427
(g11
(g12
g13
Ntp8428
Rp8429
(dp8430
g17
(lp8431
I1
asg19
I1
sg20
(lp8432
g34
asbI1
(tg7456
I00
S'A3t\xd4\x00\x8dDB'
p8433
tp8434
bag5
(g6
(I0
tp8435
g8
tp8436
Rp8437
(g11
(g12
g13
Ntp8438
Rp8439
(dp8440
g17
(lp8441
I1
asg19
I1
sg20
(lp8442
g34
asbI1
(tg7456
I00
S'\x87\x80\xcd\xad\x10\x83DB'
p8443
tp8444
bag5
(g6
(I0
tp8445
g8
tp8446
Rp8447
(g11
(g12
g13
Ntp8448
Rp8449
(dp8450
g17
(lp8451
I1
asg19
I1
sg20
(lp8452
g34
asbI1
(tg7456
I00
S'V+Q\xaeRxDB'
p8453
tp8454
bag5
(g6
(I0
tp8455
g8
tp8456
Rp8457
(g11
(g12
g13
Ntp8458
Rp8459
(dp8460
g17
(lp8461
I1
asg19
I1
sg20
(lp8462
g34
asbI1
(tg7456
I00
S'\xaeq\x13\x9c\xbffDB'
p8463
tp8464
bag5
(g6
(I0
tp8465
g8
tp8466
Rp8467
(g11
(g12
g13
Ntp8468
Rp8469
(dp8470
g17
(lp8471
I1
asg19
I1
sg20
(lp8472
g34
asbI1
(tg7456
I00
S'\xeb\xe0\x120\x08JDB'
p8473
tp8474
bag5
(g6
(I0
tp8475
g8
tp8476
Rp8477
(g11
(g12
g13
Ntp8478
Rp8479
(dp8480
g17
(lp8481
I1
asg19
I1
sg20
(lp8482
g34
asbI1
(tg7456
I00
S'\x8cP06\xd5\x81\x02B'
p8483
tp8484
bag5
(g6
(I0
tp8485
g8
tp8486
Rp8487
(g11
(g12
g13
Ntp8488
Rp8489
(dp8490
g17
(lp8491
I1
asg19
I1
sg20
(lp8492
g34
asbI1
(tg7456
I00
S'\x05\xddU\xd3\xa9;\x02B'
p8493
tp8494
bag5
(g6
(I0
tp8495
g8
tp8496
Rp8497
(g11
(g12
g13
Ntp8498
Rp8499
(dp8500
g17
(lp8501
I1
asg19
I1
sg20
(lp8502
g34
asbI1
(tg7456
I00
S'\x01\x0e\x89(%k\x01B'
p8503
tp8504
bag5
(g6
(I0
tp8505
g8
tp8506
Rp8507
(g11
(g12
g13
Ntp8508
Rp8509
(dp8510
g17
(lp8511
I1
asg19
I1
sg20
(lp8512
g34
asbI1
(tg7456
I00
S'\x19\xb6\x1fX\xbb3\x01B'
p8513
tp8514
bag5
(g6
(I0
tp8515
g8
tp8516
Rp8517
(g11
(g12
g13
Ntp8518
Rp8519
(dp8520
g17
(lp8521
I1
asg19
I1
sg20
(lp8522
g34
asbI1
(tg7456
I00
S"'\xea\x93]\xa8\xa6\x01B"
p8523
tp8524
bag5
(g6
(I0
tp8525
g8
tp8526
Rp8527
(g11
(g12
g13
Ntp8528
Rp8529
(dp8530
g17
(lp8531
I1
asg19
I1
sg20
(lp8532
g34
asbI1
(tg7456
I00
S'\xb2\x12Q\xc6\xd0\x95\x01B'
p8533
tp8534
bag5
(g6
(I0
tp8535
g8
tp8536
Rp8537
(g11
(g12
g13
Ntp8538
Rp8539
(dp8540
g17
(lp8541
I1
asg19
I1
sg20
(lp8542
g34
asbI1
(tg7456
I00
S'\xc2\xa3q{\x93\x1b\x01B'
p8543
tp8544
bag5
(g6
(I0
tp8545
g8
tp8546
Rp8547
(g11
(g12
g13
Ntp8548
Rp8549
(dp8550
g17
(lp8551
I1
asg19
I1
sg20
(lp8552
g34
asbI1
(tg7456
I00
S'\x01\xf8/\x13\xea\x12\x01B'
p8553
tp8554
bag5
(g6
(I0
tp8555
g8
tp8556
Rp8557
(g11
(g12
g13
Ntp8558
Rp8559
(dp8560
g17
(lp8561
I1
asg19
I1
sg20
(lp8562
g34
asbI1
(tg7456
I00
S'\x96\xa0i\xd0\xb9\x8e\x01B'
p8563
tp8564
bag5
(g6
(I0
tp8565
g8
tp8566
Rp8567
(g11
(g12
g13
Ntp8568
Rp8569
(dp8570
g17
(lp8571
I1
asg19
I1
sg20
(lp8572
g34
asbI1
(tg7456
I00
S'\xb6\xed\xf3\xaa\x1f\xe4\x01B'
p8573
tp8574
bag5
(g6
(I0
tp8575
g8
tp8576
Rp8577
(g11
(g12
g13
Ntp8578
Rp8579
(dp8580
g17
(lp8581
I1
asg19
I1
sg20
(lp8582
g34
asbI1
(tg7456
I00
S'\x00\x00\x00\x00\x00\x00\x00\x00'
p8583
tp8584
bag5
(g6
(I0
tp8585
g8
tp8586
Rp8587
(g11
(g12
g13
Ntp8588
Rp8589
(dp8590
g17
(lp8591
I1
asg19
I1
sg20
(lp8592
g34
asbI1
(tg7456
I00
S'\xd9\xae\x90\x0f\xc8:\x05B'
p8593
tp8594
bag5
(g6
(I0
tp8595
g8
tp8596
Rp8597
(g11
(g12
g13
Ntp8598
Rp8599
(dp8600
g17
(lp8601
I1
asg19
I1
sg20
(lp8602
g34
asbI1
(tg7456
I00
S"\x16\x17'\xfe\x1d\x9e\x05B"
p8603
tp8604
bag5
(g6
(I0
tp8605
g8
tp8606
Rp8607
(g11
(g12
g13
Ntp8608
Rp8609
(dp8610
g17
(lp8611
I1
asg19
I1
sg20
(lp8612
g34
asbI1
(tg7456
I00
S'\xf1\xe0\xffi \xa1\x05B'
p8613
tp8614
bag5
(g6
(I0
tp8615
g8
tp8616
Rp8617
(g11
(g12
g13
Ntp8618
Rp8619
(dp8620
g17
(lp8621
I1
asg19
I1
sg20
(lp8622
g34
asbI1
(tg7456
I00
S'n\xbap\xb2\xdeO\x05B'
p8623
tp8624
bag5
(g6
(I0
tp8625
g8
tp8626
Rp8627
(g11
(g12
g13
Ntp8628
Rp8629
(dp8630
g17
(lp8631
I1
asg19
I1
sg20
(lp8632
g34
asbI1
(tg7456
I00
S'D\xe20vN0\x05B'
p8633
tp8634
bag5
(g6
(I0
tp8635
g8
tp8636
Rp8637
(g11
(g12
g13
Ntp8638
Rp8639
(dp8640
g17
(lp8641
I1
asg19
I1
sg20
(lp8642
g34
asbI1
(tg7456
I00
S'\xc4\xff2\xaeo%\x05B'
p8643
tp8644
bag5
(g6
(I0
tp8645
g8
tp8646
Rp8647
(g11
(g12
g13
Ntp8648
Rp8649
(dp8650
g17
(lp8651
I1
asg19
I1
sg20
(lp8652
g34
asbI1
(tg7456
I00
S'\x9b%z \xe4\x8d\x02B'
p8653
tp8654
bag5
(g6
(I0
tp8655
g8
tp8656
Rp8657
(g11
(g12
g13
Ntp8658
Rp8659
(dp8660
g17
(lp8661
I1
asg19
I1
sg20
(lp8662
g34
asbI1
(tg7456
I00
S'\x0c\x1d\xf9\xebzK\x01B'
p8663
tp8664
bag5
(g6
(I0
tp8665
g8
tp8666
Rp8667
(g11
(g12
g13
Ntp8668
Rp8669
(dp8670
g17
(lp8671
I1
asg19
I1
sg20
(lp8672
g34
asbI1
(tg7456
I00
S'\t\xbb6\x96\x99\xb8\xfeA'
p8673
tp8674
bag5
(g6
(I0
tp8675
g8
tp8676
Rp8677
(g11
(g12
g13
Ntp8678
Rp8679
(dp8680
g17
(lp8681
I1
asg19
I1
sg20
(lp8682
g34
asbI1
(tg7456
I00
S'`\xb4\xb3\x92\xe0\xb3\xfcA'
p8683
tp8684
bag5
(g6
(I0
tp8685
g8
tp8686
Rp8687
(g11
(g12
g13
Ntp8688
Rp8689
(dp8690
g17
(lp8691
I1
asg19
I1
sg20
(lp8692
g34
asbI1
(tg7456
I00
S'\xce\xb7=\x18l\x90\x00B'
p8693
tp8694
bag5
(g6
(I0
tp8695
g8
tp8696
Rp8697
(g11
(g12
g13
Ntp8698
Rp8699
(dp8700
g17
(lp8701
I1
asg19
I1
sg20
(lp8702
g34
asbI1
(tg7456
I00
S'hd(+\x81{\x02B'
p8703
tp8704
bassS'g8.26e11'
p8705
(dp8706
S'mbh'
p8707
(lp8708
I0
aI0
aI0
ag5
(g6
(I0
tp8709
g8
tp8710
Rp8711
(g11
(g12
g13
Ntp8712
Rp8713
(dp8714
g17
(lp8715
I1
asg19
I1
sg20
(lp8716
g34
asbI1
(tg35
(S'f8'
p8717
I0
I1
tp8718
Rp8719
(I3
S'<'
p8720
NNNI-1
I-1
I0
tp8721
bI00
S'\xa4\xfe>}ud\xf9@'
p8722
tp8723
bag5
(g6
(I0
tp8724
g8
tp8725
Rp8726
(g11
(g12
g13
Ntp8727
Rp8728
(dp8729
g17
(lp8730
I1
asg19
I1
sg20
(lp8731
g34
asbI1
(tg8719
I00
S'\x19\xeb<\x06\xf5\x00\xfb@'
p8732
tp8733
bag5
(g6
(I0
tp8734
g8
tp8735
Rp8736
(g11
(g12
g13
Ntp8737
Rp8738
(dp8739
g17
(lp8740
I1
asg19
I1
sg20
(lp8741
g34
asbI1
(tg8719
I00
S'\x9e\xa0\x82\xe6\xb0\x9e\xfd@'
p8742
tp8743
bag5
(g6
(I0
tp8744
g8
tp8745
Rp8746
(g11
(g12
g13
Ntp8747
Rp8748
(dp8749
g17
(lp8750
I1
asg19
I1
sg20
(lp8751
g34
asbI1
(tg8719
I00
S'\xec\x12P\x0c\n|\x01A'
p8752
tp8753
bag5
(g6
(I0
tp8754
g8
tp8755
Rp8756
(g11
(g12
g13
Ntp8757
Rp8758
(dp8759
g17
(lp8760
I1
asg19
I1
sg20
(lp8761
g34
asbI1
(tg8719
I00
S'\xe0\xa9\xa8\xf3rW\x05A'
p8762
tp8763
bag5
(g6
(I0
tp8764
g8
tp8765
Rp8766
(g11
(g12
g13
Ntp8767
Rp8768
(dp8769
g17
(lp8770
I1
asg19
I1
sg20
(lp8771
g34
asbI1
(tg8719
I00
S'm\xc6\n2\x1d\x19\x08A'
p8772
tp8773
bag5
(g6
(I0
tp8774
g8
tp8775
Rp8776
(g11
(g12
g13
Ntp8777
Rp8778
(dp8779
g17
(lp8780
I1
asg19
I1
sg20
(lp8781
g34
asbI1
(tg8719
I00
S'11:2&\x1d\x16A'
p8782
tp8783
bag5
(g6
(I0
tp8784
g8
tp8785
Rp8786
(g11
(g12
g13
Ntp8787
Rp8788
(dp8789
g17
(lp8790
I1
asg19
I1
sg20
(lp8791
g34
asbI1
(tg8719
I00
S'}\x85\xed\x85\xd2\xba\x1cA'
p8792
tp8793
bag5
(g6
(I0
tp8794
g8
tp8795
Rp8796
(g11
(g12
g13
Ntp8797
Rp8798
(dp8799
g17
(lp8800
I1
asg19
I1
sg20
(lp8801
g34
asbI1
(tg8719
I00
S'7inK\xc6\x0b#A'
p8802
tp8803
bag5
(g6
(I0
tp8804
g8
tp8805
Rp8806
(g11
(g12
g13
Ntp8807
Rp8808
(dp8809
g17
(lp8810
I1
asg19
I1
sg20
(lp8811
g34
asbI1
(tg8719
I00
S'\x8a\xb93hJ\x9f0A'
p8812
tp8813
bag5
(g6
(I0
tp8814
g8
tp8815
Rp8816
(g11
(g12
g13
Ntp8817
Rp8818
(dp8819
g17
(lp8820
I1
asg19
I1
sg20
(lp8821
g34
asbI1
(tg8719
I00
S'X\xc3\xe6\x10\x88\xa75A'
p8822
tp8823
bag5
(g6
(I0
tp8824
g8
tp8825
Rp8826
(g11
(g12
g13
Ntp8827
Rp8828
(dp8829
g17
(lp8830
I1
asg19
I1
sg20
(lp8831
g34
asbI1
(tg8719
I00
S'\x83s"\x9fSE@A'
p8832
tp8833
bag5
(g6
(I0
tp8834
g8
tp8835
Rp8836
(g11
(g12
g13
Ntp8837
Rp8838
(dp8839
g17
(lp8840
I1
asg19
I1
sg20
(lp8841
g34
asbI1
(tg8719
I00
S'\x99\xea0\xb2\x13\x1fJA'
p8842
tp8843
bag5
(g6
(I0
tp8844
g8
tp8845
Rp8846
(g11
(g12
g13
Ntp8847
Rp8848
(dp8849
g17
(lp8850
I1
asg19
I1
sg20
(lp8851
g34
asbI1
(tg8719
I00
S'\x19G\xd5\xe9o2TA'
p8852
tp8853
bag5
(g6
(I0
tp8854
g8
tp8855
Rp8856
(g11
(g12
g13
Ntp8857
Rp8858
(dp8859
g17
(lp8860
I1
asg19
I1
sg20
(lp8861
g34
asbI1
(tg8719
I00
S'\xe7y\xf9j\x9fiaA'
p8862
tp8863
bag5
(g6
(I0
tp8864
g8
tp8865
Rp8866
(g11
(g12
g13
Ntp8867
Rp8868
(dp8869
g17
(lp8870
I1
asg19
I1
sg20
(lp8871
g34
asbI1
(tg8719
I00
S'\xa4\xcf\xf9}\xbcHhA'
p8872
tp8873
bag5
(g6
(I0
tp8874
g8
tp8875
Rp8876
(g11
(g12
g13
Ntp8877
Rp8878
(dp8879
g17
(lp8880
I1
asg19
I1
sg20
(lp8881
g34
asbI1
(tg8719
I00
S'r\x8e\xbd\xdbW\xb2oA'
p8882
tp8883
bag5
(g6
(I0
tp8884
g8
tp8885
Rp8886
(g11
(g12
g13
Ntp8887
Rp8888
(dp8889
g17
(lp8890
I1
asg19
I1
sg20
(lp8891
g34
asbI1
(tg8719
I00
S'\x02\xea\x00U\xc7\x06rA'
p8892
tp8893
bag5
(g6
(I0
tp8894
g8
tp8895
Rp8896
(g11
(g12
g13
Ntp8897
Rp8898
(dp8899
g17
(lp8900
I1
asg19
I1
sg20
(lp8901
g34
asbI1
(tg8719
I00
S'\x93\xb9w\xe5\x8f\rsA'
p8902
tp8903
bag5
(g6
(I0
tp8904
g8
tp8905
Rp8906
(g11
(g12
g13
Ntp8907
Rp8908
(dp8909
g17
(lp8910
I1
asg19
I1
sg20
(lp8911
g34
asbI1
(tg8719
I00
S'\xe4\xbe|{\xe7rtA'
p8912
tp8913
bag5
(g6
(I0
tp8914
g8
tp8915
Rp8916
(g11
(g12
g13
Ntp8917
Rp8918
(dp8919
g17
(lp8920
I1
asg19
I1
sg20
(lp8921
g34
asbI1
(tg8719
I00
S'\xac\x91\xc5"\xe7buA'
p8922
tp8923
bag5
(g6
(I0
tp8924
g8
tp8925
Rp8926
(g11
(g12
g13
Ntp8927
Rp8928
(dp8929
g17
(lp8930
I1
asg19
I1
sg20
(lp8931
g34
asbI1
(tg8719
I00
S'O\n\xd8\xa6\xe3\xb9vA'
p8932
tp8933
bag5
(g6
(I0
tp8934
g8
tp8935
Rp8936
(g11
(g12
g13
Ntp8937
Rp8938
(dp8939
g17
(lp8940
I1
asg19
I1
sg20
(lp8941
g34
asbI1
(tg8719
I00
S'1$\xfbD\xeavyA'
p8942
tp8943
bag5
(g6
(I0
tp8944
g8
tp8945
Rp8946
(g11
(g12
g13
Ntp8947
Rp8948
(dp8949
g17
(lp8950
I1
asg19
I1
sg20
(lp8951
g34
asbI1
(tg8719
I00
S'\x8c@\xe2\xdf\x15\x8b{A'
p8952
tp8953
bag5
(g6
(I0
tp8954
g8
tp8955
Rp8956
(g11
(g12
g13
Ntp8957
Rp8958
(dp8959
g17
(lp8960
I1
asg19
I1
sg20
(lp8961
g34
asbI1
(tg8719
I00
S'\xa9\x85\x95\xd5\x894|A'
p8962
tp8963
bag5
(g6
(I0
tp8964
g8
tp8965
Rp8966
(g11
(g12
g13
Ntp8967
Rp8968
(dp8969
g17
(lp8970
I1
asg19
I1
sg20
(lp8971
g34
asbI1
(tg8719
I00
S'H\x82\x02\xe1\x0fb|A'
p8972
tp8973
bag5
(g6
(I0
tp8974
g8
tp8975
Rp8976
(g11
(g12
g13
Ntp8977
Rp8978
(dp8979
g17
(lp8980
I1
asg19
I1
sg20
(lp8981
g34
asbI1
(tg8719
I00
S'\xff\n\xfabg\xf9|A'
p8982
tp8983
bag5
(g6
(I0
tp8984
g8
tp8985
Rp8986
(g11
(g12
g13
Ntp8987
Rp8988
(dp8989
g17
(lp8990
I1
asg19
I1
sg20
(lp8991
g34
asbI1
(tg8719
I00
S'\xe8EFRmZ~A'
p8992
tp8993
bag5
(g6
(I0
tp8994
g8
tp8995
Rp8996
(g11
(g12
g13
Ntp8997
Rp8998
(dp8999
g17
(lp9000
I1
asg19
I1
sg20
(lp9001
g34
asbI1
(tg8719
I00
S'\x1c8Z\xdaEz~A'
p9002
tp9003
bag5
(g6
(I0
tp9004
g8
tp9005
Rp9006
(g11
(g12
g13
Ntp9007
Rp9008
(dp9009
g17
(lp9010
I1
asg19
I1
sg20
(lp9011
g34
asbI1
(tg8719
I00
S'`\x87\xf7B\xcc\x97~A'
p9012
tp9013
bag5
(g6
(I0
tp9014
g8
tp9015
Rp9016
(g11
(g12
g13
Ntp9017
Rp9018
(dp9019
g17
(lp9020
I1
asg19
I1
sg20
(lp9021
g34
asbI1
(tg8719
I00
S'b\x04b\xf1\xe2\xb4~A'
p9022
tp9023
bag5
(g6
(I0
tp9024
g8
tp9025
Rp9026
(g11
(g12
g13
Ntp9027
Rp9028
(dp9029
g17
(lp9030
I1
asg19
I1
sg20
(lp9031
g34
asbI1
(tg8719
I00
S'*\x02\xb1\x8aR\xdb~A'
p9032
tp9033
bag5
(g6
(I0
tp9034
g8
tp9035
Rp9036
(g11
(g12
g13
Ntp9037
Rp9038
(dp9039
g17
(lp9040
I1
asg19
I1
sg20
(lp9041
g34
asbI1
(tg8719
I00
S'\x93\x96[Un\xf9~A'
p9042
tp9043
bag5
(g6
(I0
tp9044
g8
tp9045
Rp9046
(g11
(g12
g13
Ntp9047
Rp9048
(dp9049
g17
(lp9050
I1
asg19
I1
sg20
(lp9051
g34
asbI1
(tg8719
I00
S'v\xb7I\xa1 \r\x7fA'
p9052
tp9053
bag5
(g6
(I0
tp9054
g8
tp9055
Rp9056
(g11
(g12
g13
Ntp9057
Rp9058
(dp9059
g17
(lp9060
I1
asg19
I1
sg20
(lp9061
g34
asbI1
(tg8719
I00
S'\xe2/\x0b\xd65\x14\x7fA'
p9062
tp9063
bag5
(g6
(I0
tp9064
g8
tp9065
Rp9066
(g11
(g12
g13
Ntp9067
Rp9068
(dp9069
g17
(lp9070
I1
asg19
I1
sg20
(lp9071
g34
asbI1
(tg8719
I00
S'\xcc\xde6\x0e\xd5,\x7fA'
p9072
tp9073
bag5
(g6
(I0
tp9074
g8
tp9075
Rp9076
(g11
(g12
g13
Ntp9077
Rp9078
(dp9079
g17
(lp9080
I1
asg19
I1
sg20
(lp9081
g34
asbI1
(tg8719
I00
S"\xf0\xaa\xe9\n'\x85\x7fA"
p9082
tp9083
bag5
(g6
(I0
tp9084
g8
tp9085
Rp9086
(g11
(g12
g13
Ntp9087
Rp9088
(dp9089
g17
(lp9090
I1
asg19
I1
sg20
(lp9091
g34
asbI1
(tg8719
I00
S'\x94a\xb8L\x0f\x8f\x7fA'
p9092
tp9093
bag5
(g6
(I0
tp9094
g8
tp9095
Rp9096
(g11
(g12
g13
Ntp9097
Rp9098
(dp9099
g17
(lp9100
I1
asg19
I1
sg20
(lp9101
g34
asbI1
(tg8719
I00
S'\xc4\x8d\xc0\x9b\x01\xcd\x7fA'
p9102
tp9103
bag5
(g6
(I0
tp9104
g8
tp9105
Rp9106
(g11
(g12
g13
Ntp9107
Rp9108
(dp9109
g17
(lp9110
I1
asg19
I1
sg20
(lp9111
g34
asbI1
(tg8719
I00
S'k6V\xffF\xd7\x7fA'
p9112
tp9113
bag5
(g6
(I0
tp9114
g8
tp9115
Rp9116
(g11
(g12
g13
Ntp9117
Rp9118
(dp9119
g17
(lp9120
I1
asg19
I1
sg20
(lp9121
g34
asbI1
(tg8719
I00
S'\x0b\xcf$&\xe5\xea\x7fA'
p9122
tp9123
bag5
(g6
(I0
tp9124
g8
tp9125
Rp9126
(g11
(g12
g13
Ntp9127
Rp9128
(dp9129
g17
(lp9130
I1
asg19
I1
sg20
(lp9131
g34
asbI1
(tg8719
I00
S'\xd8\x98\x05\x8f\xa1\xf2\x7fA'
p9132
tp9133
bag5
(g6
(I0
tp9134
g8
tp9135
Rp9136
(g11
(g12
g13
Ntp9137
Rp9138
(dp9139
g17
(lp9140
I1
asg19
I1
sg20
(lp9141
g34
asbI1
(tg8719
I00
S'\x08\xdd\xedO\x9b\x11\x80A'
p9142
tp9143
bag5
(g6
(I0
tp9144
g8
tp9145
Rp9146
(g11
(g12
g13
Ntp9147
Rp9148
(dp9149
g17
(lp9150
I1
asg19
I1
sg20
(lp9151
g34
asbI1
(tg8719
I00
S'\x92;}.\x832\x80A'
p9152
tp9153
bag5
(g6
(I0
tp9154
g8
tp9155
Rp9156
(g11
(g12
g13
Ntp9157
Rp9158
(dp9159
g17
(lp9160
I1
asg19
I1
sg20
(lp9161
g34
asbI1
(tg8719
I00
S'\x1dq\x86\xfc\x90E\x80A'
p9162
tp9163
bag5
(g6
(I0
tp9164
g8
tp9165
Rp9166
(g11
(g12
g13
Ntp9167
Rp9168
(dp9169
g17
(lp9170
I1
asg19
I1
sg20
(lp9171
g34
asbI1
(tg8719
I00
S'q\x85\x8f`\xc6Z\x80A'
p9172
tp9173
bag5
(g6
(I0
tp9174
g8
tp9175
Rp9176
(g11
(g12
g13
Ntp9177
Rp9178
(dp9179
g17
(lp9180
I1
asg19
I1
sg20
(lp9181
g34
asbI1
(tg8719
I00
S'\xc9\xab\x8c\xb2xg\x80A'
p9182
tp9183
bag5
(g6
(I0
tp9184
g8
tp9185
Rp9186
(g11
(g12
g13
Ntp9187
Rp9188
(dp9189
g17
(lp9190
I1
asg19
I1
sg20
(lp9191
g34
asbI1
(tg8719
I00
S'\x8e\xeb\x85\xb7\x8b\x8a\x80A'
p9192
tp9193
bag5
(g6
(I0
tp9194
g8
tp9195
Rp9196
(g11
(g12
g13
Ntp9197
Rp9198
(dp9199
g17
(lp9200
I1
asg19
I1
sg20
(lp9201
g34
asbI1
(tg8719
I00
S'])\xe9\xaevc\x81A'
p9202
tp9203
bag5
(g6
(I0
tp9204
g8
tp9205
Rp9206
(g11
(g12
g13
Ntp9207
Rp9208
(dp9209
g17
(lp9210
I1
asg19
I1
sg20
(lp9211
g34
asbI1
(tg8719
I00
S'(\xeed1s{\x81A'
p9212
tp9213
bag5
(g6
(I0
tp9214
g8
tp9215
Rp9216
(g11
(g12
g13
Ntp9217
Rp9218
(dp9219
g17
(lp9220
I1
asg19
I1
sg20
(lp9221
g34
asbI1
(tg8719
I00
S'\xfe\x85#cx\x91\x81A'
p9222
tp9223
bag5
(g6
(I0
tp9224
g8
tp9225
Rp9226
(g11
(g12
g13
Ntp9227
Rp9228
(dp9229
g17
(lp9230
I1
asg19
I1
sg20
(lp9231
g34
asbI1
(tg8719
I00
S'k%\xc0\xe6\x1b\xce\x81A'
p9232
tp9233
bag5
(g6
(I0
tp9234
g8
tp9235
Rp9236
(g11
(g12
g13
Ntp9237
Rp9238
(dp9239
g17
(lp9240
I1
asg19
I1
sg20
(lp9241
g34
asbI1
(tg8719
I00
S'\x99\x90|\xd1\xcf\xe3\x81A'
p9242
tp9243
bag5
(g6
(I0
tp9244
g8
tp9245
Rp9246
(g11
(g12
g13
Ntp9247
Rp9248
(dp9249
g17
(lp9250
I1
asg19
I1
sg20
(lp9251
g34
asbI1
(tg8719
I00
S'S\x9f\xaa;\xf9\x05\x82A'
p9252
tp9253
bag5
(g6
(I0
tp9254
g8
tp9255
Rp9256
(g11
(g12
g13
Ntp9257
Rp9258
(dp9259
g17
(lp9260
I1
asg19
I1
sg20
(lp9261
g34
asbI1
(tg8719
I00
S'\xef^\xba\xb5\xd6)\x82A'
p9262
tp9263
bag5
(g6
(I0
tp9264
g8
tp9265
Rp9266
(g11
(g12
g13
Ntp9267
Rp9268
(dp9269
g17
(lp9270
I1
asg19
I1
sg20
(lp9271
g34
asbI1
(tg8719
I00
S'$o;\x99\x0bJ\x82A'
p9272
tp9273
bag5
(g6
(I0
tp9274
g8
tp9275
Rp9276
(g11
(g12
g13
Ntp9277
Rp9278
(dp9279
g17
(lp9280
I1
asg19
I1
sg20
(lp9281
g34
asbI1
(tg8719
I00
S'n\x88\xcd\x82\xa9_\x82A'
p9282
tp9283
bag5
(g6
(I0
tp9284
g8
tp9285
Rp9286
(g11
(g12
g13
Ntp9287
Rp9288
(dp9289
g17
(lp9290
I1
asg19
I1
sg20
(lp9291
g34
asbI1
(tg8719
I00
S'\xf8\rp|yr\x82A'
p9292
tp9293
bag5
(g6
(I0
tp9294
g8
tp9295
Rp9296
(g11
(g12
g13
Ntp9297
Rp9298
(dp9299
g17
(lp9300
I1
asg19
I1
sg20
(lp9301
g34
asbI1
(tg8719
I00
S'p)\xbb\x85#\x94\x82A'
p9302
tp9303
bag5
(g6
(I0
tp9304
g8
tp9305
Rp9306
(g11
(g12
g13
Ntp9307
Rp9308
(dp9309
g17
(lp9310
I1
asg19
I1
sg20
(lp9311
g34
asbI1
(tg8719
I00
S'\xfe\x86\xae\x00<\xac\x82A'
p9312
tp9313
bag5
(g6
(I0
tp9314
g8
tp9315
Rp9316
(g11
(g12
g13
Ntp9317
Rp9318
(dp9319
g17
(lp9320
I1
asg19
I1
sg20
(lp9321
g34
asbI1
(tg8719
I00
S'\xa6\x1a\x92w(\xc6\x82A'
p9322
tp9323
basS'z'
p9324
(lp9325
F16.623558052686253
aF10.383342051876113
aF7.760385909303658
aF6.261032218898561
aF5.271612154445051
aF4.561225338906955
aF4.021919719675131
aF3.595906673044489
aF3.249222482242713
aF2.9604880271712473
aF2.71551790099832
aF2.504498364677121
aF2.3204055341209258
aF2.158068630365731
aF2.013589558582861
aF1.8839693699809175
aF1.7668599804832716
aF1.6603944899299399
aF1.5630683748162806
aF1.4736545109946966
aF1.3911412352835417
aF1.3146864327771066
aF1.2435829846263102
aF1.1772324075636686
aF1.1151244920657106
aF1.056821395202224
aF1.001945084270368
aF0.9501673303644187
aF0.9012016643906815
aF0.8547968568831767
aF0.810731593960949
aF0.7688100988343307
aF0.7288585074728573
aF0.6907218501021457
aF0.6542615228075603
aF0.619353158234319
aF0.5858848232818783
aF0.5537554862750533
aF0.5228737074298768
aF0.4931565153057902
aF0.46452843892788787
aF0.4369206708132438
aF0.41027034055606837
aF0.38451988218441935
aF0.3596164813648439
aF0.33551159085792337
aF0.3121605045233309
aF0.2895219817258434
aF0.26755791527134787
aF0.24623303705755828
aF0.22551465650016955
aF0.20537242752475993
aF0.1857781405249741
aF0.16670553619946937
aF0.14813013861132895
aF0.13002910517796407
aF0.11238109160837317
aF0.09516613006722774
aF0.07836551906918454
aF0.0619617237984591
aF0.04593828571287295
aF0.030279740432948676
aF0.01497154303845405
aF1.5765166949677223e-14
asS'mstar'
p9326
(lp9327
g5
(g6
(I0
tp9328
g8
tp9329
Rp9330
(g11
(g12
g13
Ntp9331
Rp9332
(dp9333
g17
(lp9334
I1
asg19
I1
sg20
(lp9335
g34
asbI1
(tg8719
I00
S'\x00\x00\x00\x00\x00\x00\x00\x00'
p9336
tp9337
bag5
(g6
(I0
tp9338
g8
tp9339
Rp9340
(g11
(g12
g13
Ntp9341
Rp9342
(dp9343
g17
(lp9344
I1
asg19
I1
sg20
(lp9345
g34
asbI1
(tg8719
I00
S'LI9\xc8\xe2\xb8|A'
p9346
tp9347
bag5
(g6
(I0
tp9348
g8
tp9349
Rp9350
(g11
(g12
g13
Ntp9351
Rp9352
(dp9353
g17
(lp9354
I1
asg19
I1
sg20
(lp9355
g34
asbI1
(tg8719
I00
S'\n\xce\x93\x95\x0f\xd7\xa0A'
p9356
tp9357
bag5
(g6
(I0
tp9358
g8
tp9359
Rp9360
(g11
(g12
g13
Ntp9361
Rp9362
(dp9363
g17
(lp9364
I1
asg19
I1
sg20
(lp9365
g34
asbI1
(tg8719
I00
S'\x90\xf7\xf9\xb9\xb71\xb4A'
p9366
tp9367
bag5
(g6
(I0
tp9368
g8
tp9369
Rp9370
(g11
(g12
g13
Ntp9371
Rp9372
(dp9373
g17
(lp9374
I1
asg19
I1
sg20
(lp9375
g34
asbI1
(tg8719
I00
S'\xf4\x11e\xc5\x0e\x01\xc3A'
p9376
tp9377
bag5
(g6
(I0
tp9378
g8
tp9379
Rp9380
(g11
(g12
g13
Ntp9381
Rp9382
(dp9383
g17
(lp9384
I1
asg19
I1
sg20
(lp9385
g34
asbI1
(tg8719
I00
S'D\xe03e\xe4\x02\xd0A'
p9386
tp9387
bag5
(g6
(I0
tp9388
g8
tp9389
Rp9390
(g11
(g12
g13
Ntp9391
Rp9392
(dp9393
g17
(lp9394
I1
asg19
I1
sg20
(lp9395
g34
asbI1
(tg8719
I00
S'y\xe8\x84\xaf\xb4\x18\xdbA'
p9396
tp9397
bag5
(g6
(I0
tp9398
g8
tp9399
Rp9400
(g11
(g12
g13
Ntp9401
Rp9402
(dp9403
g17
(lp9404
I1
asg19
I1
sg20
(lp9405
g34
asbI1
(tg8719
I00
S'\x12\x1c\x9daV\x0c\xe4A'
p9406
tp9407
bag5
(g6
(I0
tp9408
g8
tp9409
Rp9410
(g11
(g12
g13
Ntp9411
Rp9412
(dp9413
g17
(lp9414
I1
asg19
I1
sg20
(lp9415
g34
asbI1
(tg8719
I00
S'n"`\x02|d\xebA'
p9416
tp9417
bag5
(g6
(I0
tp9418
g8
tp9419
Rp9420
(g11
(g12
g13
Ntp9421
Rp9422
(dp9423
g17
(lp9424
I1
asg19
I1
sg20
(lp9425
g34
asbI1
(tg8719
I00
S'\x17\xe8FO:\x9c\xf2A'
p9426
tp9427
bag5
(g6
(I0
tp9428
g8
tp9429
Rp9430
(g11
(g12
g13
Ntp9431
Rp9432
(dp9433
g17
(lp9434
I1
asg19
I1
sg20
(lp9435
g34
asbI1
(tg8719
I00
S'\xbf\x9e;>\x1d\xe7\xf8A'
p9436
tp9437
bag5
(g6
(I0
tp9438
g8
tp9439
Rp9440
(g11
(g12
g13
Ntp9441
Rp9442
(dp9443
g17
(lp9444
I1
asg19
I1
sg20
(lp9445
g34
asbI1
(tg8719
I00
S'\x0cF\xbd\xbc\xa3\x98\x00B'
p9446
tp9447
bag5
(g6
(I0
tp9448
g8
tp9449
Rp9450
(g11
(g12
g13
Ntp9451
Rp9452
(dp9453
g17
(lp9454
I1
asg19
I1
sg20
(lp9455
g34
asbI1
(tg8719
I00
S'\x17-R\xba\xe0\\\x04B'
p9456
tp9457
bag5
(g6
(I0
tp9458
g8
tp9459
Rp9460
(g11
(g12
g13
Ntp9461
Rp9462
(dp9463
g17
(lp9464
I1
asg19
I1
sg20
(lp9465
g34
asbI1
(tg8719
I00
S'%g5\xfb;h\x08B'
p9466
tp9467
bag5
(g6
(I0
tp9468
g8
tp9469
Rp9470
(g11
(g12
g13
Ntp9471
Rp9472
(dp9473
g17
(lp9474
I1
asg19
I1
sg20
(lp9475
g34
asbI1
(tg8719
I00
S'\xbei\x9e\xeb\x16\xc0\x0bB'
p9476
tp9477
bag5
(g6
(I0
tp9478
g8
tp9479
Rp9480
(g11
(g12
g13
Ntp9481
Rp9482
(dp9483
g17
(lp9484
I1
asg19
I1
sg20
(lp9485
g34
asbI1
(tg8719
I00
S'\x1c\x9d\xc0lKk\x0fB'
p9486
tp9487
bag5
(g6
(I0
tp9488
g8
tp9489
Rp9490
(g11
(g12
g13
Ntp9491
Rp9492
(dp9493
g17
(lp9494
I1
asg19
I1
sg20
(lp9495
g34
asbI1
(tg8719
I00
S'\xf5V\x04i\xe9\xd4\x10B'
p9496
tp9497
bag5
(g6
(I0
tp9498
g8
tp9499
Rp9500
(g11
(g12
g13
Ntp9501
Rp9502
(dp9503
g17
(lp9504
I1
asg19
I1
sg20
(lp9505
g34
asbI1
(tg8719
I00
S'\xb8U-\x0bN\\\x11B'
p9506
tp9507
bag5
(g6
(I0
tp9508
g8
tp9509
Rp9510
(g11
(g12
g13
Ntp9511
Rp9512
(dp9513
g17
(lp9514
I1
asg19
I1
sg20
(lp9515
g34
asbI1
(tg8719
I00
S'\xd2/\x96\xdb\xd5\xbf\x11B'
p9516
tp9517
bag5
(g6
(I0
tp9518
g8
tp9519
Rp9520
(g11
(g12
g13
Ntp9521
Rp9522
(dp9523
g17
(lp9524
I1
asg19
I1
sg20
(lp9525
g34
asbI1
(tg8719
I00
S'?#\xbc>\x9e\x0b\x14B'
p9526
tp9527
bag5
(g6
(I0
tp9528
g8
tp9529
Rp9530
(g11
(g12
g13
Ntp9531
Rp9532
(dp9533
g17
(lp9534
I1
asg19
I1
sg20
(lp9535
g34
asbI1
(tg8719
I00
S'\x13\x80\xd9\x803-\x14B'
p9536
tp9537
bag5
(g6
(I0
tp9538
g8
tp9539
Rp9540
(g11
(g12
g13
Ntp9541
Rp9542
(dp9543
g17
(lp9544
I1
asg19
I1
sg20
(lp9545
g34
asbI1
(tg8719
I00
S'\xdc\xed~0\xcda\x14B'
p9546
tp9547
bag5
(g6
(I0
tp9548
g8
tp9549
Rp9550
(g11
(g12
g13
Ntp9551
Rp9552
(dp9553
g17
(lp9554
I1
asg19
I1
sg20
(lp9555
g34
asbI1
(tg8719
I00
S"\xe0'\x80O\x05\x80\x14B"
p9556
tp9557
bag5
(g6
(I0
tp9558
g8
tp9559
Rp9560
(g11
(g12
g13
Ntp9561
Rp9562
(dp9563
g17
(lp9564
I1
asg19
I1
sg20
(lp9565
g34
asbI1
(tg8719
I00
S'\x9c\xa1\x97\x96\xed\x8d\x14B'
p9566
tp9567
bag5
(g6
(I0
tp9568
g8
tp9569
Rp9570
(g11
(g12
g13
Ntp9571
Rp9572
(dp9573
g17
(lp9574
I1
asg19
I1
sg20
(lp9575
g34
asbI1
(tg8719
I00
S'U?\x96\xcd\xf4\xb9\x14B'
p9576
tp9577
bag5
(g6
(I0
tp9578
g8
tp9579
Rp9580
(g11
(g12
g13
Ntp9581
Rp9582
(dp9583
g17
(lp9584
I1
asg19
I1
sg20
(lp9585
g34
asbI1
(tg8719
I00
S'\xa7\xd2\xfdz\xb0\xcb\x14B'
p9586
tp9587
bag5
(g6
(I0
tp9588
g8
tp9589
Rp9590
(g11
(g12
g13
Ntp9591
Rp9592
(dp9593
g17
(lp9594
I1
asg19
I1
sg20
(lp9595
g34
asbI1
(tg8719
I00
S'f"J\x8c\xfc\xc4\x14B'
p9596
tp9597
bag5
(g6
(I0
tp9598
g8
tp9599
Rp9600
(g11
(g12
g13
Ntp9601
Rp9602
(dp9603
g17
(lp9604
I1
asg19
I1
sg20
(lp9605
g34
asbI1
(tg8719
I00
S'e\x01\xa1)r\xb8\x14B'
p9606
tp9607
bag5
(g6
(I0
tp9608
g8
tp9609
Rp9610
(g11
(g12
g13
Ntp9611
Rp9612
(dp9613
g17
(lp9614
I1
asg19
I1
sg20
(lp9615
g34
asbI1
(tg8719
I00
S'\x80\xab\xecK8\xa2\x14B'
p9616
tp9617
bag5
(g6
(I0
tp9618
g8
tp9619
Rp9620
(g11
(g12
g13
Ntp9621
Rp9622
(dp9623
g17
(lp9624
I1
asg19
I1
sg20
(lp9625
g34
asbI1
(tg8719
I00
S'\x16\x83\xdf\xbb\x1c\x95\x14B'
p9626
tp9627
bag5
(g6
(I0
tp9628
g8
tp9629
Rp9630
(g11
(g12
g13
Ntp9631
Rp9632
(dp9633
g17
(lp9634
I1
asg19
I1
sg20
(lp9635
g34
asbI1
(tg8719
I00
S'\xc1oxpb}\x14B'
p9636
tp9637
bag5
(g6
(I0
tp9638
g8
tp9639
Rp9640
(g11
(g12
g13
Ntp9641
Rp9642
(dp9643
g17
(lp9644
I1
asg19
I1
sg20
(lp9645
g34
asbI1
(tg8719
I00
S'N\xdd^0\x83\xad\x14B'
p9646
tp9647
bag5
(g6
(I0
tp9648
g8
tp9649
Rp9650
(g11
(g12
g13
Ntp9651
Rp9652
(dp9653
g17
(lp9654
I1
asg19
I1
sg20
(lp9655
g34
asbI1
(tg8719
I00
S'\xf0 \x7f\x81\xdb\x9d\x14B'
p9656
tp9657
bag5
(g6
(I0
tp9658
g8
tp9659
Rp9660
(g11
(g12
g13
Ntp9661
Rp9662
(dp9663
g17
(lp9664
I1
asg19
I1
sg20
(lp9665
g34
asbI1
(tg8719
I00
S'#\xa0\xd6iI\x90\x14B'
p9666
tp9667
bag5
(g6
(I0
tp9668
g8
tp9669
Rp9670
(g11
(g12
g13
Ntp9671
Rp9672
(dp9673
g17
(lp9674
I1
asg19
I1
sg20
(lp9675
g34
asbI1
(tg8719
I00
S'\xb0\x8aV\xff;\x84\x14B'
p9676
tp9677
bag5
(g6
(I0
tp9678
g8
tp9679
Rp9680
(g11
(g12
g13
Ntp9681
Rp9682
(dp9683
g17
(lp9684
I1
asg19
I1
sg20
(lp9685
g34
asbI1
(tg8719
I00
S'\xa3\xb2!\xd74w\x14B'
p9686
tp9687
bag5
(g6
(I0
tp9688
g8
tp9689
Rp9690
(g11
(g12
g13
Ntp9691
Rp9692
(dp9693
g17
(lp9694
I1
asg19
I1
sg20
(lp9695
g34
asbI1
(tg8719
I00
S'd\x1d\x9b\xcaVk\x14B'
p9696
tp9697
bag5
(g6
(I0
tp9698
g8
tp9699
Rp9700
(g11
(g12
g13
Ntp9701
Rp9702
(dp9703
g17
(lp9704
I1
asg19
I1
sg20
(lp9705
g34
asbI1
(tg8719
I00
S"\xd6'#\xba|_\x14B"
p9706
tp9707
bag5
(g6
(I0
tp9708
g8
tp9709
Rp9710
(g11
(g12
g13
Ntp9711
Rp9712
(dp9713
g17
(lp9714
I1
asg19
I1
sg20
(lp9715
g34
asbI1
(tg8719
I00
S'7\t6\x13\xe6P\x14B'
p9716
tp9717
bag5
(g6
(I0
tp9718
g8
tp9719
Rp9720
(g11
(g12
g13
Ntp9721
Rp9722
(dp9723
g17
(lp9724
I1
asg19
I1
sg20
(lp9725
g34
asbI1
(tg8719
I00
S'\xaec\xb5\xce\x85\x15\x14B'
p9726
tp9727
bag5
(g6
(I0
tp9728
g8
tp9729
Rp9730
(g11
(g12
g13
Ntp9731
Rp9732
(dp9733
g17
(lp9734
I1
asg19
I1
sg20
(lp9735
g34
asbI1
(tg8719
I00
S'\x03?\xba\xe1Z\x01\x14B'
p9736
tp9737
bag5
(g6
(I0
tp9738
g8
tp9739
Rp9740
(g11
(g12
g13
Ntp9741
Rp9742
(dp9743
g17
(lp9744
I1
asg19
I1
sg20
(lp9745
g34
asbI1
(tg8719
I00
S'\xa2\xc9\xd9\r\xf5\xf6\x13B'
p9746
tp9747
bag5
(g6
(I0
tp9748
g8
tp9749
Rp9750
(g11
(g12
g13
Ntp9751
Rp9752
(dp9753
g17
(lp9754
I1
asg19
I1
sg20
(lp9755
g34
asbI1
(tg8719
I00
S'\xa2q?\x1cN\xed\x13B'
p9756
tp9757
bag5
(g6
(I0
tp9758
g8
tp9759
Rp9760
(g11
(g12
g13
Ntp9761
Rp9762
(dp9763
g17
(lp9764
I1
asg19
I1
sg20
(lp9765
g34
asbI1
(tg8719
I00
S'+\xdc\xd9v\xf9\xe4\x13B'
p9766
tp9767
bag5
(g6
(I0
tp9768
g8
tp9769
Rp9770
(g11
(g12
g13
Ntp9771
Rp9772
(dp9773
g17
(lp9774
I1
asg19
I1
sg20
(lp9775
g34
asbI1
(tg8719
I00
S'\xf4\xd0\x7fW\x8c\xdd\x13B'
p9776
tp9777
bag5
(g6
(I0
tp9778
g8
tp9779
Rp9780
(g11
(g12
g13
Ntp9781
Rp9782
(dp9783
g17
(lp9784
I1
asg19
I1
sg20
(lp9785
g34
asbI1
(tg8719
I00
S'\xeb\xd7/5\xaf\xd3\x13B'
p9786
tp9787
bag5
(g6
(I0
tp9788
g8
tp9789
Rp9790
(g11
(g12
g13
Ntp9791
Rp9792
(dp9793
g17
(lp9794
I1
asg19
I1
sg20
(lp9795
g34
asbI1
(tg8719
I00
S'\x0b\x17\x9c,\xdf\xcc\x13B'
p9796
tp9797
bag5
(g6
(I0
tp9798
g8
tp9799
Rp9800
(g11
(g12
g13
Ntp9801
Rp9802
(dp9803
g17
(lp9804
I1
asg19
I1
sg20
(lp9805
g34
asbI1
(tg8719
I00
S'\xcb\xc4\xb9\x83]\xe3\x13B'
p9806
tp9807
bag5
(g6
(I0
tp9808
g8
tp9809
Rp9810
(g11
(g12
g13
Ntp9811
Rp9812
(dp9813
g17
(lp9814
I1
asg19
I1
sg20
(lp9815
g34
asbI1
(tg8719
I00
S'tX\xa5\x85\xba\xfa\x13B'
p9816
tp9817
bag5
(g6
(I0
tp9818
g8
tp9819
Rp9820
(g11
(g12
g13
Ntp9821
Rp9822
(dp9823
g17
(lp9824
I1
asg19
I1
sg20
(lp9825
g34
asbI1
(tg8719
I00
S'/J\xe1\xb2\xd3\x03\x14B'
p9826
tp9827
bag5
(g6
(I0
tp9828
g8
tp9829
Rp9830
(g11
(g12
g13
Ntp9831
Rp9832
(dp9833
g17
(lp9834
I1
asg19
I1
sg20
(lp9835
g34
asbI1
(tg8719
I00
S'\x94\x852}\x91\x05\x14B'
p9836
tp9837
bag5
(g6
(I0
tp9838
g8
tp9839
Rp9840
(g11
(g12
g13
Ntp9841
Rp9842
(dp9843
g17
(lp9844
I1
asg19
I1
sg20
(lp9845
g34
asbI1
(tg8719
I00
S'V*g\x861\x01\x14B'
p9846
tp9847
bag5
(g6
(I0
tp9848
g8
tp9849
Rp9850
(g11
(g12
g13
Ntp9851
Rp9852
(dp9853
g17
(lp9854
I1
asg19
I1
sg20
(lp9855
g34
asbI1
(tg8719
I00
S'KU\xa8\x01\xb6\x01\x14B'
p9856
tp9857
bag5
(g6
(I0
tp9858
g8
tp9859
Rp9860
(g11
(g12
g13
Ntp9861
Rp9862
(dp9863
g17
(lp9864
I1
asg19
I1
sg20
(lp9865
g34
asbI1
(tg8719
I00
S'ei\xdaYD\xfe\x13B'
p9866
tp9867
bag5
(g6
(I0
tp9868
g8
tp9869
Rp9870
(g11
(g12
g13
Ntp9871
Rp9872
(dp9873
g17
(lp9874
I1
asg19
I1
sg20
(lp9875
g34
asbI1
(tg8719
I00
S'PE\x12\x85\xf0\xfb\x13B'
p9876
tp9877
bag5
(g6
(I0
tp9878
g8
tp9879
Rp9880
(g11
(g12
g13
Ntp9881
Rp9882
(dp9883
g17
(lp9884
I1
asg19
I1
sg20
(lp9885
g34
asbI1
(tg8719
I00
S'\xea\xe7\xd9\xe6\xf6\xf1\x13B'
p9886
tp9887
bag5
(g6
(I0
tp9888
g8
tp9889
Rp9890
(g11
(g12
g13
Ntp9891
Rp9892
(dp9893
g17
(lp9894
I1
asg19
I1
sg20
(lp9895
g34
asbI1
(tg8719
I00
S"g'1\xde\xf2\xe1\x13B"
p9896
tp9897
bag5
(g6
(I0
tp9898
g8
tp9899
Rp9900
(g11
(g12
g13
Ntp9901
Rp9902
(dp9903
g17
(lp9904
I1
asg19
I1
sg20
(lp9905
g34
asbI1
(tg8719
I00
S'd\xe4e\x7f\xfe\xd6\x13B'
p9906
tp9907
bag5
(g6
(I0
tp9908
g8
tp9909
Rp9910
(g11
(g12
g13
Ntp9911
Rp9912
(dp9913
g17
(lp9914
I1
asg19
I1
sg20
(lp9915
g34
asbI1
(tg8719
I00
S'\x17\x9a\x92TB\xd9\x13B'
p9916
tp9917
bag5
(g6
(I0
tp9918
g8
tp9919
Rp9920
(g11
(g12
g13
Ntp9921
Rp9922
(dp9923
g17
(lp9924
I1
asg19
I1
sg20
(lp9925
g34
asbI1
(tg8719
I00
S'\xd1\rO\xc1\xbd\xd7\x13B'
p9926
tp9927
bag5
(g6
(I0
tp9928
g8
tp9929
Rp9930
(g11
(g12
g13
Ntp9931
Rp9932
(dp9933
g17
(lp9934
I1
asg19
I1
sg20
(lp9935
g34
asbI1
(tg8719
I00
S'\x8d\xea\x06\x85\xcb\xd6\x13B'
p9936
tp9937
bag5
(g6
(I0
tp9938
g8
tp9939
Rp9940
(g11
(g12
g13
Ntp9941
Rp9942
(dp9943
g17
(lp9944
I1
asg19
I1
sg20
(lp9945
g34
asbI1
(tg8719
I00
S'\xfcz\xd1\xa9#\xd6\x13B'
p9946
tp9947
bag5
(g6
(I0
tp9948
g8
tp9949
Rp9950
(g11
(g12
g13
Ntp9951
Rp9952
(dp9953
g17
(lp9954
I1
asg19
I1
sg20
(lp9955
g34
asbI1
(tg8719
I00
S'\xcc\x85\x0e\xc8\xbc\xd8\x13B'
p9956
tp9957
bag5
(g6
(I0
tp9958
g8
tp9959
Rp9960
(g11
(g12
g13
Ntp9961
Rp9962
(dp9963
g17
(lp9964
I1
asg19
I1
sg20
(lp9965
g34
asbI1
(tg8719
I00
S'}K\xb7\xc2(\xd5\x13B'
p9966
tp9967
bass.