(dp0
S'g2.34e10'
p1
(lp2
I1
asS'g2.37e10'
p3
(lp4
I1
asS'g1.23e10'
p5
(lp6
I1
asS'g6.91e10'
p7
(lp8
I1
asS'g5.38e11'
p9
(lp10
I1
asS'g3.67e10'
p11
(lp12
I1
asS'g2.09e10'
p13
(lp14
I1
asS'g3.59e11'
p15
(lp16
I1
asS'g3.54e09'
p17
(lp18
I1
asS'g7.34e09'
p19
(lp20
I1
asS'g5.46e11'
p21
(lp22
I1
asS'g1.52e11'
p23
(lp24
I1
asS'g2.79e12'
p25
(lp26
I1
aI1
aI1
aI1
aI1
aI1
aI1
aI1
aI1
aI1
aI1
aI1
aI1
aI1
aI1
aI1
aI1
aI1
aI1
aI1
aI1
aI1
aI1
aI1
aI1
aI1
aI1
aI1
aI1
aI1
aI1
aI1
aI1
aI1
aI1
aI1
aI1
aI1
aI1
aI1
aI1
aI1
aI1
aI1
aI1
aI1
aI1
aI1
aI1
aI1
aI1
aI1
aI1
aI1
aI1
aI1
aI1
aI1
aI1
aI1
aI1
aI1
aI1
aI19
asS'g1.88e10'
p27
(lp28
I1
asS'g7.44e11'
p29
(lp30
I1
asS'g8.89e10'
p31
(lp32
I1
asS'g1.50e10'
p33
(lp34
I1
asS'g4.48e10'
p35
(lp36
I1
asS'g2.80e10'
p37
(lp38
I1
asS'g8.26e11'
p39
(lp40
I1
aI1
aI1
aI1
aI1
aI1
aI1
aI1
aI1
aI1
aI1
aI1
aI1
aI1
aI1
aI1
aI1
aI1
aI1
aI1
aI1
aI1
aI1
aI1
aI1
aI1
aI1
aI1
aI1
aI1
aI1
aI1
aI1
aI1
aI1
aI1
aI1
aI1
aI1
aI1
aI1
aI1
aI1
aI1
aI1
aI1
aI1
aI1
aI1
aI1
aI1
aI1
aI1
aI1
aI1
aI1
aI1
aI1
aI1
aI1
aI1
aI1
aI1
aI1
asS'g5.59e09'
p41
(lp42
I1
asS'g1.09e10'
p43
(lp44
I1
asS'g6.96e10'
p45
(lp46
I1
asS'g1.92e12'
p47
(lp48
I1
aI1
aI1
aI1
aI1
aI1
aI1
aI1
aI1
aI1
aI1
aI1
aI1
aI1
aI1
aI1
aI1
aI1
aI1
aI1
aI1
aI1
aI1
aI1
aI1
aI1
aI1
aI1
aI1
aI1
aI1
aI1
aI1
aI1
aI1
aI1
aI1
aI1
aI1
aI1
aI1
aI1
aI1
aI1
aI1
aI1
aI1
aI1
aI1
aI1
aI1
aI1
aI1
aI1
aI1
aI1
aI1
aI1
aI1
aI1
aI2
aI3
aI5
asS'g1.92e10'
p49
(lp50
I1
asS'g1.77e12'
p51
(lp52
I1
asS'g4.99e09'
p53
(lp54
I1
asS'g8.28e11'
p55
(lp56
I1
asS'g4.99e10'
p57
(lp58
I1
asS'g6.96e11'
p59
(lp60
I1
asS'g1.05e11'
p61
(lp62
I1
aI1
asS'g5.55e11'
p63
(lp64
I1
asS'g1.57e10'
p65
(lp66
I1
asS'g1.57e11'
p67
(lp68
I1
asS'g1.44e10'
p69
(lp70
I1
asS'g1.47e10'
p71
(lp72
I1
asS'g7.05e09'
p73
(lp74
I1
asS'g6.37e10'
p75
(lp76
I1
asS'g3.44e10'
p77
(lp78
I1
asS'g3.06e11'
p79
(lp80
I1
asS'g7.12e10'
p81
(lp82
I1
asS'g2.54e11'
p83
(lp84
I1
asS'g2.83e10'
p85
(lp86
I1
asS'g6.77e10'
p87
(lp88
I1
asS'g7.08e11'
p89
(lp90
I1
asS'g5.41e09'
p91
(lp92
I1
asS'g3.21e11'
p93
(lp94
I1
asS'g1.89e10'
p95
(lp96
I1
asS'g1.08e11'
p97
(lp98
I1
asS'g1.95e10'
p99
(lp100
I1
asS'g5.36e11'
p101
(lp102
I1
asS'g4.86e10'
p103
(lp104
I1
asS'g7.66e11'
p105
(lp106
I1
aI1
aI1
aI1
aI1
aI1
aI1
aI1
aI1
aI1
aI1
aI1
aI1
aI1
aI1
aI1
aI1
aI1
aI1
aI1
aI1
aI1
aI1
aI1
aI1
aI1
aI1
aI1
aI1
aI1
aI1
aI1
aI1
aI1
aI1
aI1
aI1
aI1
aI1
aI1
aI1
aI1
aI1
aI1
aI1
aI1
aI1
aI1
aI1
aI1
aI1
aI2
aI2
aI1
aI1
aI1
aI1
aI2
aI2
aI2
aI3
aI3
aI3
asS'g2.64e10'
p107
(lp108
I1
asS'g4.36e09'
p109
(lp110
I1
asS'g2.39e10'
p111
(lp112
I1
asS'g3.19e10'
p113
(lp114
I1
asS'g2.94e10'
p115
(lp116
I1
asS'g3.93e10'
p117
(lp118
I1
asS'g2.63e10'
p119
(lp120
I1
asS'g5.84e09'
p121
(lp122
I1
asS'g7.55e11'
p123
(lp124
I1
aI1
aI1
aI1
aI1
aI1
aI1
aI1
aI1
aI1
aI1
aI1
aI1
aI1
aI1
aI1
aI1
aI1
aI1
aI1
aI1
aI1
aI1
aI1
aI1
aI1
aI1
aI1
aI1
aI1
aI1
aI1
aI1
aI1
aI1
aI1
aI1
aI1
aI1
aI1
aI1
aI1
aI1
aI1
aI1
aI1
aI1
aI1
aI1
aI1
aI1
aI1
aI1
aI1
aI1
aI1
aI1
aI1
aI2
aI1
aI1
aI2
aI2
asS'g8.13e11'
p125
(lp126
I1
aI1
aI1
aI1
aI1
aI1
aI1
aI1
aI1
aI1
aI1
aI1
aI1
aI1
aI1
aI1
aI1
aI1
aI1
aI1
aI1
aI1
aI1
aI1
aI1
aI1
aI1
aI1
aI1
aI1
aI1
aI1
aI1
aI1
aI1
aI1
aI1
aI1
aI1
aI1
aI1
aI1
aI1
aI1
aI1
aI1
aI1
aI1
aI1
aI1
aI1
aI1
aI1
aI1
aI1
aI1
aI1
aI1
aI1
aI1
aI1
aI2
aI3
asS'g5.02e11'
p127
(lp128
I1
asS'g3.23e11'
p129
(lp130
I1
asS'g5.22e09'
p131
(lp132
I1
asS'g1.59e11'
p133
(lp134
I1
asS'g5.05e10'
p135
(lp136
I1
asS'g1.64e11'
p137
(lp138
I1
asS'g2.19e11'
p139
(lp140
I1
asS'g1.12e12'
p141
(lp142
I1
aI1
aI1
aI1
aI1
aI1
aI1
aI1
aI1
aI1
aI1
aI1
aI1
aI1
aI1
aI1
aI1
aI1
aI1
aI1
aI1
aI1
aI1
aI1
aI1
aI1
aI1
aI1
aI1
aI1
aI1
aI1
aI1
aI1
aI1
aI1
aI1
aI1
aI1
aI1
aI1
aI1
aI1
aI1
aI1
aI1
aI1
aI1
aI1
aI1
aI1
aI1
aI1
aI1
aI1
aI1
aI1
aI1
aI1
aI1
aI1
aI1
aI1
aI1
asS'g2.04e11'
p143
(lp144
I1
asS'g1.37e11'
p145
(lp146
I1
asS'g2.42e11'
p147
(lp148
I1
asS'g1.18e10'
p149
(lp150
I1
asS'g2.41e11'
p151
(lp152
I1
asS'g4.94e10'
p153
(lp154
I1
asS'g4.27e10'
p155
(lp156
I1
asS'g8.06e11'
p157
(lp158
I1
asS'g4.90e11'
p159
(lp160
I1
asS'g9.59e10'
p161
(lp162
I1
asS'g3.71e11'
p163
(lp164
I1
asS'g9.26e09'
p165
(lp166
I1
asS'g1.90e10'
p167
(lp168
I1
asS'g3.55e11'
p169
(lp170
I1
as.