(dp0
I1
(dp1
S'z'
p2
(lp3
F9.852268571722401
aF8.944870215215344
aF7.9467800382714024
aF6.972893411730002
aF5.94698983375053
aF4.958706100327681
aF4.46890836065334
aF3.9789614547612366
aF3.4924258163093107
aF2.9862882854235173
aF2.4989996310887967
aF1.9929361710551103
aF1.7991241053028095
aF1.5960172265450456
aF1.584084080092072
aF1.4984928464150404
aF1.3990229900555073
aF1.2991016523747367
aF1.1999321683770519
aF1.098745887568072
aF0.9648127176558354
aF0.7991071222829804
aF0.5690358824443706
aF0.4999466644434758
aF0.30186891033835583
aF0.20517353247483539
aF0.19899909256819193
aF0.18559933807733353
aF0.16654605713380932
aF0.1479892603141968
aF0.1299061476359935
aF0.11227541380656247
aF0.0993371981915867
aF0.09507712674577418
aF0.07829261779842933
aF0.06190438233655304
aF0.04589598961529573
aF0.030252000886783037
aF0.014957894897535295
aF1.4432899320127035e-14
asS'sfr'
p4
(lp5
F0.0
aF0.0
aF0.0
aF0.0
aF0.0
aF0.0
aF0.0
aF0.0
aF0.0
aF0.0
aF0.0
aF0.0
aF0.0
aF0.0
aF0.0
aF0.0
aF0.0
aF0.0
aF0.0
aF0.0
aF0.0
aF0.0
aF0.0
aF0.0
aF0.0
aF0.0
aF0.0
aF0.0
aF0.0
aF0.0
aF0.0
aF0.0
aF0.0
aF0.0
aF0.0
aF0.0
aF0.0
aF0.0
aF0.0
aF0.0
asS'coldgas'
p6
(lp7
F0.0
aF0.0
aF0.0
aF0.0
aF0.0
aF0.0
aF0.0
aF0.0
aF0.0
aF0.0
aF0.0
aF0.0
aF0.0
aF0.0
aF0.0
aF0.0
aF0.0
aF0.0
aF0.0
aF0.0
aF0.0
aF0.0
aF0.0
aF0.0
aF0.0
aF0.0
aF0.0
aF0.0
aF0.0
aF0.0
aF0.0
aF0.0
aF0.0
aF0.0
aF0.0
aF0.0
aF0.0
aF0.0
aF0.0
aF0.0
asS'ms'
p8
(lp9
F0.0
aF0.0
aF0.0
aF0.0
aF0.0
aF0.0
aF0.0
aF0.0
aF0.0
aF0.0
aF0.0
aF0.0
aF0.0
aF0.0
aF0.0
aF0.0
aF0.0
aF0.0
aF0.0
aF0.0
aF0.0
aF0.0
aF0.0
aF0.0
aF0.0
aF0.0
aF0.0
aF0.0
aF0.0
aF0.0
aF0.0
aF0.0
aF0.0
aF0.0
aF0.0
aF0.0
aF0.0
aF0.0
aF0.0
aF0.0
asS'time'
p10
(lp11
F0.4816911589323769
aF0.5490532595605427
aF0.6433602004399743
aF0.7646119815706732
aF0.9397534432039041
aF1.1822570054653003
aF1.3439260469728986
aF1.546012348857397
aF1.8019883312444323
aF2.1522712545109184
aF2.610333538782566
aF3.2839545450640566
aF3.6207650482048797
aF4.038410072099499
aF4.065354912350763
aF4.267441214235254
aF4.523417196622281
aF4.80633801926057
aF5.116203682150132
aF5.466486605416587
aF5.991910990316287
aF6.75983893747743
aF8.107080950041313
aF8.5920880745634
aF10.249195750016236
aF11.232682419187439
aF11.300044519815593
aF11.448241141197544
aF11.663799863207673
aF11.87935858521781
aF12.094917307227922
aF12.310476029238048
aF12.472145070745668
aF12.526034751248218
aF12.741593473258336
aF12.957152195268447
aF13.172710917278586
aF13.388269639288708
aF13.603828361298842
aF13.819387083308957
ass.