(dp0
S'halo3'
p1
(lp2
I3
aI3
aI3
aI3
aI3
aI3
aI3
aI3
aI3
aI3
aI3
aI3
aI3
aI3
aI3
aI3
aI3
aI3
aI3
aI3
aI3
aI3
aI2
aI2
aI3
aI4
aI4
aI5
aI5
aI5
aI5
aI3
aI4
aI5
aI8
aI9
aI22
aI21
aI10
aI8
asS'halo2'
p3
(lp4
I2
aI1
aI1
aI1
aI1
aI1
aI1
aI1
aI1
aI1
aI1
aI1
aI1
aI1
aI1
aI1
aI2
aI2
aI2
aI1
aI2
aI2
aI1
aI1
aI1
aI2
aI2
aI2
aI2
aI2
aI3
aI4
aI2
aI2
aI3
aI4
aI4
aI1
aI1
aI1
asS'halo1'
p5
(lp6
I1
aI2
aI2
aI2
aI2
aI2
aI2
aI2
aI2
aI2
aI2
aI2
aI2
aI2
aI2
aI2
aI1
aI1
aI1
aI2
aI1
aI1
aI3
aI3
aI2
aI3
aI3
aI3
aI3
aI3
aI2
aI2
aI3
aI3
aI2
aI2
aI1
aI2
aI3
aI7
as.