(dp0
I8
(dp1
S'z'
p2
(lp3
F1.4432899320127035e-14
aF0.014957894897535295
aF0.030252000886783037
aF0.04589598961529573
aF0.06190438233655304
aF0.07829261779842933
aF0.09507712674577418
aF0.0993371981915867
aF0.11227541380656247
aF0.1299061476359935
aF0.1479892603141968
aF0.16654605713380932
aF0.18559933807733353
aF0.19899909256819193
aF0.20517353247483539
aF0.30186891033835583
aF0.4999466644434758
aF0.5690358824443706
aF0.7991071222829804
aF0.9648127176558354
aF1.098745887568072
aF1.1999321683770519
aF1.2991016523747367
aF1.3990229900555073
aF1.4984928464150404
aF1.584084080092072
aF1.5960172265450456
aF1.7991241053028095
aF1.9929361710551103
aF2.4989996310887967
aF2.9862882854235173
aF3.4924258163093107
aF3.9789614547612366
aF4.46890836065334
aF4.958706100327681
aF5.94698983375053
aF6.972893411730002
aF7.9467800382714024
aF8.944870215215344
aF9.852268571722401
asS'sfr'
p4
(lp5
cnumpy.core.multiarray
_reconstruct
p6
(cpynbody.array
SimArray
p7
(I0
tp8
S'b'
p9
tp10
Rp11
(ccopy_reg
_reconstructor
p12
(cpynbody.units
CompositeUnit
p13
c__builtin__
object
p14
Ntp15
Rp16
(dp17
S'_powers'
p18
(lp19
I1
asS'_scale'
p20
I1
sS'_bases'
p21
(lp22
cpynbody.units
_resurrect_named_unit
p23
(S'Msol'
p24
S'M_{\\odot}'
p25
g12
(g13
g14
Ntp26
Rp27
(dp28
g18
(lp29
I1
asg20
F1.98892e+30
sg21
(lp30
g23
(S'kg'
p31
NNtp32
Rp33
asbtp34
Rp35
asbI1
(tcnumpy
dtype
p36
(S'f8'
p37
I0
I1
tp38
Rp39
(I3
S'<'
p40
NNNI-1
I-1
I0
tp41
bI00
S'kd\x8a\xaf\xfa\xba\xfb?'
p42
tp43
bag6
(g7
(I0
tp44
g9
tp45
Rp46
(g12
(g13
g14
Ntp47
Rp48
(dp49
g18
(lp50
I1
asg20
I1
sg21
(lp51
g35
asbI1
(tg39
I00
S'\xcb\xf6\x11\x1co\xe7\xfa?'
p52
tp53
bag6
(g7
(I0
tp54
g9
tp55
Rp56
(g12
(g13
g14
Ntp57
Rp58
(dp59
g18
(lp60
I1
asg20
I1
sg21
(lp61
g35
asbI1
(tg39
I00
S'\x0b\xf9\xb3\xa5\x95\x8c\xf9?'
p62
tp63
bag6
(g7
(I0
tp64
g9
tp65
Rp66
(g12
(g13
g14
Ntp67
Rp68
(dp69
g18
(lp70
I1
asg20
I1
sg21
(lp71
g35
asbI1
(tg39
I00
S'\xce$6iC3\xff?'
p72
tp73
bag6
(g7
(I0
tp74
g9
tp75
Rp76
(g12
(g13
g14
Ntp77
Rp78
(dp79
g18
(lp80
I1
asg20
I1
sg21
(lp81
g35
asbI1
(tg39
I00
S'\xc3\xde\xe9\xf9\xd2\x9c\xfd?'
p82
tp83
bag6
(g7
(I0
tp84
g9
tp85
Rp86
(g12
(g13
g14
Ntp87
Rp88
(dp89
g18
(lp90
I1
asg20
I1
sg21
(lp91
g35
asbI1
(tg39
I00
S'\xc0/\xcb\xb0:\xda\xfb?'
p92
tp93
bag6
(g7
(I0
tp94
g9
tp95
Rp96
(g12
(g13
g14
Ntp97
Rp98
(dp99
g18
(lp100
I1
asg20
I1
sg21
(lp101
g35
asbI1
(tg39
I00
S'\xb5\x10\xc7\x17{\x9b\xff?'
p102
tp103
bag6
(g7
(I0
tp104
g9
tp105
Rp106
(g12
(g13
g14
Ntp107
Rp108
(dp109
g18
(lp110
I1
asg20
I1
sg21
(lp111
g35
asbI1
(tg39
I00
S'\x11 =i\xb1*\x00@'
p112
tp113
bag6
(g7
(I0
tp114
g9
tp115
Rp116
(g12
(g13
g14
Ntp117
Rp118
(dp119
g18
(lp120
I1
asg20
I1
sg21
(lp121
g35
asbI1
(tg39
I00
S'\x95\x15\x1c\xdb\xef\x02\x00@'
p122
tp123
bag6
(g7
(I0
tp124
g9
tp125
Rp126
(g12
(g13
g14
Ntp127
Rp128
(dp129
g18
(lp130
I1
asg20
I1
sg21
(lp131
g35
asbI1
(tg39
I00
S'\xb4\x0b\x18\x03^\x07\x02@'
p132
tp133
bag6
(g7
(I0
tp134
g9
tp135
Rp136
(g12
(g13
g14
Ntp137
Rp138
(dp139
g18
(lp140
I1
asg20
I1
sg21
(lp141
g35
asbI1
(tg39
I00
S'\x89\xb5\xdd\x81\xd9R\x02@'
p142
tp143
bag6
(g7
(I0
tp144
g9
tp145
Rp146
(g12
(g13
g14
Ntp147
Rp148
(dp149
g18
(lp150
I1
asg20
I1
sg21
(lp151
g35
asbI1
(tg39
I00
S'\x9b\x82\xbdF\xc3\xa6\x00@'
p152
tp153
bag6
(g7
(I0
tp154
g9
tp155
Rp156
(g12
(g13
g14
Ntp157
Rp158
(dp159
g18
(lp160
I1
asg20
I1
sg21
(lp161
g35
asbI1
(tg39
I00
S"%\x1f/\xc9,'\x02@"
p162
tp163
bag6
(g7
(I0
tp164
g9
tp165
Rp166
(g12
(g13
g14
Ntp167
Rp168
(dp169
g18
(lp170
I1
asg20
I1
sg21
(lp171
g35
asbI1
(tg39
I00
S'\xe5B\xd7%7P\x02@'
p172
tp173
bag6
(g7
(I0
tp174
g9
tp175
Rp176
(g12
(g13
g14
Ntp177
Rp178
(dp179
g18
(lp180
I1
asg20
I1
sg21
(lp181
g35
asbI1
(tg39
I00
S'e\xf3!JU\x80\x04@'
p182
tp183
bag6
(g7
(I0
tp184
g9
tp185
Rp186
(g12
(g13
g14
Ntp187
Rp188
(dp189
g18
(lp190
I1
asg20
I1
sg21
(lp191
g35
asbI1
(tg39
I00
S'\xd9\xdd\x84\x07(\xa0\n@'
p192
tp193
bag6
(g7
(I0
tp194
g9
tp195
Rp196
(g12
(g13
g14
Ntp197
Rp198
(dp199
g18
(lp200
I1
asg20
I1
sg21
(lp201
g35
asbI1
(tg39
I00
S'"\x91\x8e\t\n+\x0e@'
p202
tp203
bag6
(g7
(I0
tp204
g9
tp205
Rp206
(g12
(g13
g14
Ntp207
Rp208
(dp209
g18
(lp210
I1
asg20
I1
sg21
(lp211
g35
asbI1
(tg39
I00
S'r\xbf\xea\xcb\xd2w\x1e@'
p212
tp213
bag6
(g7
(I0
tp214
g9
tp215
Rp216
(g12
(g13
g14
Ntp217
Rp218
(dp219
g18
(lp220
I1
asg20
I1
sg21
(lp221
g35
asbI1
(tg39
I00
S'se\x85@\xd4B*@'
p222
tp223
bag6
(g7
(I0
tp224
g9
tp225
Rp226
(g12
(g13
g14
Ntp227
Rp228
(dp229
g18
(lp230
I1
asg20
I1
sg21
(lp231
g35
asbI1
(tg39
I00
S'\x8a"\xf3Q\xb8g#@'
p232
tp233
bag6
(g7
(I0
tp234
g9
tp235
Rp236
(g12
(g13
g14
Ntp237
Rp238
(dp239
g18
(lp240
I1
asg20
I1
sg21
(lp241
g35
asbI1
(tg39
I00
S'~\xd7J\x1b\xb4\xf7(@'
p242
tp243
bag6
(g7
(I0
tp244
g9
tp245
Rp246
(g12
(g13
g14
Ntp247
Rp248
(dp249
g18
(lp250
I1
asg20
I1
sg21
(lp251
g35
asbI1
(tg39
I00
S'Z1\xa6\x12\x08h/@'
p252
tp253
bag6
(g7
(I0
tp254
g9
tp255
Rp256
(g12
(g13
g14
Ntp257
Rp258
(dp259
g18
(lp260
I1
asg20
I1
sg21
(lp261
g35
asbI1
(tg39
I00
S'\xe7\xfc\xe5w]z1@'
p262
tp263
bag6
(g7
(I0
tp264
g9
tp265
Rp266
(g12
(g13
g14
Ntp267
Rp268
(dp269
g18
(lp270
I1
asg20
I1
sg21
(lp271
g35
asbI1
(tg39
I00
S'\xf7\xe5{\x06|\xe7*@'
p272
tp273
bag6
(g7
(I0
tp274
g9
tp275
Rp276
(g12
(g13
g14
Ntp277
Rp278
(dp279
g18
(lp280
I1
asg20
I1
sg21
(lp281
g35
asbI1
(tg39
I00
S'\xdd;x\xac\xe1\xe2&@'
p282
tp283
bag6
(g7
(I0
tp284
g9
tp285
Rp286
(g12
(g13
g14
Ntp287
Rp288
(dp289
g18
(lp290
I1
asg20
I1
sg21
(lp291
g35
asbI1
(tg39
I00
S'=\xb6\xf5\xd8Ns\xfa?'
p292
tp293
bag6
(g7
(I0
tp294
g9
tp295
Rp296
(g12
(g13
g14
Ntp297
Rp298
(dp299
g18
(lp300
I1
asg20
I1
sg21
(lp301
g35
asbI1
(tg39
I00
S'\x01{\x98\xc0W\xca\xfd?'
p302
tp303
bag6
(g7
(I0
tp304
g9
tp305
Rp306
(g12
(g13
g14
Ntp307
Rp308
(dp309
g18
(lp310
I1
asg20
I1
sg21
(lp311
g35
asbI1
(tg39
I00
S'\x03&\x9aQ\x8b\xb4\xf9?'
p312
tp313
bag6
(g7
(I0
tp314
g9
tp315
Rp316
(g12
(g13
g14
Ntp317
Rp318
(dp319
g18
(lp320
I1
asg20
I1
sg21
(lp321
g35
asbI1
(tg39
I00
S'l\xb5\xaeW\xe8\xc9\xed?'
p322
tp323
bag6
(g7
(I0
tp324
g9
tp325
Rp326
(g12
(g13
g14
Ntp327
Rp328
(dp329
g18
(lp330
I1
asg20
I1
sg21
(lp331
g35
asbI1
(tg39
I00
S'\x07\xa3\xb5\xe7f\xb4\x06@'
p332
tp333
bag6
(g7
(I0
tp334
g9
tp335
Rp336
(g12
(g13
g14
Ntp337
Rp338
(dp339
g18
(lp340
I1
asg20
I1
sg21
(lp341
g35
asbI1
(tg39
I00
S'.\xe7\xebU\xd4\xe4\x02@'
p342
tp343
bag6
(g7
(I0
tp344
g9
tp345
Rp346
(g12
(g13
g14
Ntp347
Rp348
(dp349
g18
(lp350
I1
asg20
I1
sg21
(lp351
g35
asbI1
(tg39
I00
S'`\xe6}\xd9\x7f\x9a\xe2?'
p352
tp353
bag6
(g7
(I0
tp354
g9
tp355
Rp356
(g12
(g13
g14
Ntp357
Rp358
(dp359
g18
(lp360
I1
asg20
I1
sg21
(lp361
g35
asbI1
(tg39
I00
S'3\xab\x14\rVF\xe3?'
p362
tp363
bag6
(g7
(I0
tp364
g9
tp365
Rp366
(g12
(g13
g14
Ntp367
Rp368
(dp369
g18
(lp370
I1
asg20
I1
sg21
(lp371
g35
asbI1
(tg39
I00
S'@\x19l\x8bv\xfc\xed?'
p372
tp373
bag6
(g7
(I0
tp374
g9
tp375
Rp376
(g12
(g13
g14
Ntp377
Rp378
(dp379
g18
(lp380
I1
asg20
I1
sg21
(lp381
g35
asbI1
(tg39
I00
S'\x00\x00\x00\x00\x00\x00\x00\x00'
p382
tp383
bag6
(g7
(I0
tp384
g9
tp385
Rp386
(g12
(g13
g14
Ntp387
Rp388
(dp389
g18
(lp390
I1
asg20
I1
sg21
(lp391
g35
asbI1
(tg39
I00
S'\x00\x00\x00\x00\x00\x00\x00\x00'
p392
tp393
bag6
(g7
(I0
tp394
g9
tp395
Rp396
(g12
(g13
g14
Ntp397
Rp398
(dp399
g18
(lp400
I1
asg20
I1
sg21
(lp401
g35
asbI1
(tg39
I00
S'\xbb\x85\x12FT\xbd\xa2?'
p402
tp403
bag6
(g7
(I0
tp404
g9
tp405
Rp406
(g12
(g13
g14
Ntp407
Rp408
(dp409
g18
(lp410
I1
asg20
I1
sg21
(lp411
g35
asbI1
(tg39
I00
S'hP\xcf&\xe3w\xaa?'
p412
tp413
bag6
(g7
(I0
tp414
g9
tp415
Rp416
(g12
(g13
g14
Ntp417
Rp418
(dp419
g18
(lp420
I1
asg20
I1
sg21
(lp421
g35
asbI1
(tg39
I00
S'\xa8Y*\x0e\xc2z\x88?'
p422
tp423
bag6
(g7
(I0
tp424
g9
tp425
Rp426
(g12
(g13
g14
Ntp427
Rp428
(dp429
g18
(lp430
I1
asg20
I1
sg21
(lp431
g35
asbI1
(tg39
I00
S'\x00\x00\x00\x00\x00\x00\x00\x00'
p432
tp433
basS'coldgas'
p434
(lp435
g6
(g7
(I0
tp436
g9
tp437
Rp438
(g12
(g13
g14
Ntp439
Rp440
(dp441
g18
(lp442
I1
asg20
I1
sg21
(lp443
g35
asbI1
(tg39
I00
S'h\xe1\xe6d\x0c\xee\xc8A'
p444
tp445
bag6
(g7
(I0
tp446
g9
tp447
Rp448
(g12
(g13
g14
Ntp449
Rp450
(dp451
g18
(lp452
I1
asg20
I1
sg21
(lp453
g35
asbI1
(tg39
I00
S'\x03;\x1c\xc0E\x12\xc9A'
p454
tp455
bag6
(g7
(I0
tp456
g9
tp457
Rp458
(g12
(g13
g14
Ntp459
Rp460
(dp461
g18
(lp462
I1
asg20
I1
sg21
(lp463
g35
asbI1
(tg39
I00
S'+iO\x0cg\x8d\xcaA'
p464
tp465
bag6
(g7
(I0
tp466
g9
tp467
Rp468
(g12
(g13
g14
Ntp469
Rp470
(dp471
g18
(lp472
I1
asg20
I1
sg21
(lp473
g35
asbI1
(tg39
I00
S'\xbe\xe1\x0cL\x06\x80\xccA'
p474
tp475
bag6
(g7
(I0
tp476
g9
tp477
Rp478
(g12
(g13
g14
Ntp479
Rp480
(dp481
g18
(lp482
I1
asg20
I1
sg21
(lp483
g35
asbI1
(tg39
I00
S'>?]\xb8y\x93\xcdA'
p484
tp485
bag6
(g7
(I0
tp486
g9
tp487
Rp488
(g12
(g13
g14
Ntp489
Rp490
(dp491
g18
(lp492
I1
asg20
I1
sg21
(lp493
g35
asbI1
(tg39
I00
S'\xc2\xac\xbdt\xb2\xbb\xceA'
p494
tp495
bag6
(g7
(I0
tp496
g9
tp497
Rp498
(g12
(g13
g14
Ntp499
Rp500
(dp501
g18
(lp502
I1
asg20
I1
sg21
(lp503
g35
asbI1
(tg39
I00
S'|\x11\xc9G\x02Q\xd0A'
p504
tp505
bag6
(g7
(I0
tp506
g9
tp507
Rp508
(g12
(g13
g14
Ntp509
Rp510
(dp511
g18
(lp512
I1
asg20
I1
sg21
(lp513
g35
asbI1
(tg39
I00
S'~\xb5\xb1 \xf0\xaf\xcfA'
p514
tp515
bag6
(g7
(I0
tp516
g9
tp517
Rp518
(g12
(g13
g14
Ntp519
Rp520
(dp521
g18
(lp522
I1
asg20
I1
sg21
(lp523
g35
asbI1
(tg39
I00
S',o\xa3\x1c\xd3\xb6\xd0A'
p524
tp525
bag6
(g7
(I0
tp526
g9
tp527
Rp528
(g12
(g13
g14
Ntp529
Rp530
(dp531
g18
(lp532
I1
asg20
I1
sg21
(lp533
g35
asbI1
(tg39
I00
S'\x9f\xeb\x18\xf1\xde\xee\xd2A'
p534
tp535
bag6
(g7
(I0
tp536
g9
tp537
Rp538
(g12
(g13
g14
Ntp539
Rp540
(dp541
g18
(lp542
I1
asg20
I1
sg21
(lp543
g35
asbI1
(tg39
I00
S'\xac~\x97\xc2\x13G\xd3A'
p544
tp545
bag6
(g7
(I0
tp546
g9
tp547
Rp548
(g12
(g13
g14
Ntp549
Rp550
(dp551
g18
(lp552
I1
asg20
I1
sg21
(lp553
g35
asbI1
(tg39
I00
S'\xadA\x1b^\x87`\xd5A'
p554
tp555
bag6
(g7
(I0
tp556
g9
tp557
Rp558
(g12
(g13
g14
Ntp559
Rp560
(dp561
g18
(lp562
I1
asg20
I1
sg21
(lp563
g35
asbI1
(tg39
I00
S'\x9eI\xfcd*\xf1\xd5A'
p564
tp565
bag6
(g7
(I0
tp566
g9
tp567
Rp568
(g12
(g13
g14
Ntp569
Rp570
(dp571
g18
(lp572
I1
asg20
I1
sg21
(lp573
g35
asbI1
(tg39
I00
S'<\x8c\x87\xf4tr\xd5A'
p574
tp575
bag6
(g7
(I0
tp576
g9
tp577
Rp578
(g12
(g13
g14
Ntp579
Rp580
(dp581
g18
(lp582
I1
asg20
I1
sg21
(lp583
g35
asbI1
(tg39
I00
S'\xb2T6\xe7\x99"\xd6A'
p584
tp585
bag6
(g7
(I0
tp586
g9
tp587
Rp588
(g12
(g13
g14
Ntp589
Rp590
(dp591
g18
(lp592
I1
asg20
I1
sg21
(lp593
g35
asbI1
(tg39
I00
S'7\x87q,B\xc2\xdcA'
p594
tp595
bag6
(g7
(I0
tp596
g9
tp597
Rp598
(g12
(g13
g14
Ntp599
Rp600
(dp601
g18
(lp602
I1
asg20
I1
sg21
(lp603
g35
asbI1
(tg39
I00
S'\x07\xcfPe\xb6\x03\xeaA'
p604
tp605
bag6
(g7
(I0
tp606
g9
tp607
Rp608
(g12
(g13
g14
Ntp609
Rp610
(dp611
g18
(lp612
I1
asg20
I1
sg21
(lp613
g35
asbI1
(tg39
I00
S'hM\xb0H^\x1d\xebA'
p614
tp615
bag6
(g7
(I0
tp616
g9
tp617
Rp618
(g12
(g13
g14
Ntp619
Rp620
(dp621
g18
(lp622
I1
asg20
I1
sg21
(lp623
g35
asbI1
(tg39
I00
S'\xf5\xfa\xfd\x8c\xf07\xf6A'
p624
tp625
bag6
(g7
(I0
tp626
g9
tp627
Rp628
(g12
(g13
g14
Ntp629
Rp630
(dp631
g18
(lp632
I1
asg20
I1
sg21
(lp633
g35
asbI1
(tg39
I00
S'\xc8X\x8bR^B\x01B'
p634
tp635
bag6
(g7
(I0
tp636
g9
tp637
Rp638
(g12
(g13
g14
Ntp639
Rp640
(dp641
g18
(lp642
I1
asg20
I1
sg21
(lp643
g35
asbI1
(tg39
I00
S'\x9e\xd0\xbda\xe9\x85\x07B'
p644
tp645
bag6
(g7
(I0
tp646
g9
tp647
Rp648
(g12
(g13
g14
Ntp649
Rp650
(dp651
g18
(lp652
I1
asg20
I1
sg21
(lp653
g35
asbI1
(tg39
I00
S'\x9a<$\xe2Zr\rB'
p654
tp655
bag6
(g7
(I0
tp656
g9
tp657
Rp658
(g12
(g13
g14
Ntp659
Rp660
(dp661
g18
(lp662
I1
asg20
I1
sg21
(lp663
g35
asbI1
(tg39
I00
S'\xb36\xbd\x90\x81\xf3\x15B'
p664
tp665
bag6
(g7
(I0
tp666
g9
tp667
Rp668
(g12
(g13
g14
Ntp669
Rp670
(dp671
g18
(lp672
I1
asg20
I1
sg21
(lp673
g35
asbI1
(tg39
I00
S'\xf5\x8al\x8e\xf2\n\x15B'
p674
tp675
bag6
(g7
(I0
tp676
g9
tp677
Rp678
(g12
(g13
g14
Ntp679
Rp680
(dp681
g18
(lp682
I1
asg20
I1
sg21
(lp683
g35
asbI1
(tg39
I00
S'\x1f\xc6-=2 \x14B'
p684
tp685
bag6
(g7
(I0
tp686
g9
tp687
Rp688
(g12
(g13
g14
Ntp689
Rp690
(dp691
g18
(lp692
I1
asg20
I1
sg21
(lp693
g35
asbI1
(tg39
I00
S'\xa4\x84\xfc\xb5A\xdf\x0bB'
p694
tp695
bag6
(g7
(I0
tp696
g9
tp697
Rp698
(g12
(g13
g14
Ntp699
Rp700
(dp701
g18
(lp702
I1
asg20
I1
sg21
(lp703
g35
asbI1
(tg39
I00
S'\x92Y\xd5r\x06\x10\x0bB'
p704
tp705
bag6
(g7
(I0
tp706
g9
tp707
Rp708
(g12
(g13
g14
Ntp709
Rp710
(dp711
g18
(lp712
I1
asg20
I1
sg21
(lp713
g35
asbI1
(tg39
I00
S'\xee\x12\xb2\x1e\xb9\xd9\x02B'
p714
tp715
bag6
(g7
(I0
tp716
g9
tp717
Rp718
(g12
(g13
g14
Ntp719
Rp720
(dp721
g18
(lp722
I1
asg20
I1
sg21
(lp723
g35
asbI1
(tg39
I00
S'F\x99.\x8fB\xb7\xfeA'
p724
tp725
bag6
(g7
(I0
tp726
g9
tp727
Rp728
(g12
(g13
g14
Ntp729
Rp730
(dp731
g18
(lp732
I1
asg20
I1
sg21
(lp733
g35
asbI1
(tg39
I00
S'kae\xe3\xdd0\xfdA'
p734
tp735
bag6
(g7
(I0
tp736
g9
tp737
Rp738
(g12
(g13
g14
Ntp739
Rp740
(dp741
g18
(lp742
I1
asg20
I1
sg21
(lp743
g35
asbI1
(tg39
I00
S'@\t_91[\xf5A'
p744
tp745
bag6
(g7
(I0
tp746
g9
tp747
Rp748
(g12
(g13
g14
Ntp749
Rp750
(dp751
g18
(lp752
I1
asg20
I1
sg21
(lp753
g35
asbI1
(tg39
I00
S'\x8d~\xf4&\xe2\xe7\xefA'
p754
tp755
bag6
(g7
(I0
tp756
g9
tp757
Rp758
(g12
(g13
g14
Ntp759
Rp760
(dp761
g18
(lp762
I1
asg20
I1
sg21
(lp763
g35
asbI1
(tg39
I00
S'?\xed\x14\x80\xaa\x03\xf3A'
p764
tp765
bag6
(g7
(I0
tp766
g9
tp767
Rp768
(g12
(g13
g14
Ntp769
Rp770
(dp771
g18
(lp772
I1
asg20
I1
sg21
(lp773
g35
asbI1
(tg39
I00
S'\xd2\xc7\xc3-\xb7\\\xe4A'
p774
tp775
bag6
(g7
(I0
tp776
g9
tp777
Rp778
(g12
(g13
g14
Ntp779
Rp780
(dp781
g18
(lp782
I1
asg20
I1
sg21
(lp783
g35
asbI1
(tg39
I00
S'\xb9\xd5\x14d\x87(\xd5A'
p784
tp785
bag6
(g7
(I0
tp786
g9
tp787
Rp788
(g12
(g13
g14
Ntp789
Rp790
(dp791
g18
(lp792
I1
asg20
I1
sg21
(lp793
g35
asbI1
(tg39
I00
S'N\xa6\x1b\x9b2\xa5\xbbA'
p794
tp795
bag6
(g7
(I0
tp796
g9
tp797
Rp798
(g12
(g13
g14
Ntp799
Rp800
(dp801
g18
(lp802
I1
asg20
I1
sg21
(lp803
g35
asbI1
(tg39
I00
S"\xf7\xffK'\xc3\xf4\xa2A"
p804
tp805
bag6
(g7
(I0
tp806
g9
tp807
Rp808
(g12
(g13
g14
Ntp809
Rp810
(dp811
g18
(lp812
I1
asg20
I1
sg21
(lp813
g35
asbI1
(tg39
I00
S'I\xbb]\xc9\xa1h\xacA'
p814
tp815
bag6
(g7
(I0
tp816
g9
tp817
Rp818
(g12
(g13
g14
Ntp819
Rp820
(dp821
g18
(lp822
I1
asg20
I1
sg21
(lp823
g35
asbI1
(tg39
I00
S'\x16\xaeE\xf0x\x89\xa3A'
p824
tp825
bag6
(g7
(I0
tp826
g9
tp827
Rp828
(g12
(g13
g14
Ntp829
Rp830
(dp831
g18
(lp832
I1
asg20
I1
sg21
(lp833
g35
asbI1
(tg39
I00
S'2m\xb8\x11\x9aX\x9eA'
p834
tp835
basS'ms'
p836
(lp837
g6
(g7
(I0
tp838
g9
tp839
Rp840
(g12
(g13
g14
Ntp841
Rp842
(dp843
g18
(lp844
I1
asg20
I1
sg21
(lp845
g35
asbI1
(tg39
I00
S'\x00F\x0bN\xd7\x87$B'
p846
tp847
bag6
(g7
(I0
tp848
g9
tp849
Rp850
(g12
(g13
g14
Ntp851
Rp852
(dp853
g18
(lp854
I1
asg20
I1
sg21
(lp855
g35
asbI1
(tg39
I00
S'\xc6\xa3J\x91\nq$B'
p856
tp857
bag6
(g7
(I0
tp858
g9
tp859
Rp860
(g12
(g13
g14
Ntp861
Rp862
(dp863
g18
(lp864
I1
asg20
I1
sg21
(lp865
g35
asbI1
(tg39
I00
S'\x1c\xb6\xe4\n\xd9Y$B'
p866
tp867
bag6
(g7
(I0
tp868
g9
tp869
Rp870
(g12
(g13
g14
Ntp871
Rp872
(dp873
g18
(lp874
I1
asg20
I1
sg21
(lp875
g35
asbI1
(tg39
I00
S'\x90\xb2\xf5\xb1\xf3D$B'
p876
tp877
bag6
(g7
(I0
tp878
g9
tp879
Rp880
(g12
(g13
g14
Ntp881
Rp882
(dp883
g18
(lp884
I1
asg20
I1
sg21
(lp885
g35
asbI1
(tg39
I00
S'\x1f\xf6\x92\xda\xff+$B'
p886
tp887
bag6
(g7
(I0
tp888
g9
tp889
Rp890
(g12
(g13
g14
Ntp891
Rp892
(dp893
g18
(lp894
I1
asg20
I1
sg21
(lp895
g35
asbI1
(tg39
I00
S'\xcb\xdc^K\x97\x12$B'
p896
tp897
bag6
(g7
(I0
tp898
g9
tp899
Rp900
(g12
(g13
g14
Ntp901
Rp902
(dp903
g18
(lp904
I1
asg20
I1
sg21
(lp905
g35
asbI1
(tg39
I00
S'N\xfd\xf0\xe9\xf4\xf7#B'
p906
tp907
bag6
(g7
(I0
tp908
g9
tp909
Rp910
(g12
(g13
g14
Ntp911
Rp912
(dp913
g18
(lp914
I1
asg20
I1
sg21
(lp915
g35
asbI1
(tg39
I00
S'\xd7\x91q\xfcC\xf1#B'
p916
tp917
bag6
(g7
(I0
tp918
g9
tp919
Rp920
(g12
(g13
g14
Ntp921
Rp922
(dp923
g18
(lp924
I1
asg20
I1
sg21
(lp925
g35
asbI1
(tg39
I00
S'\xcb|\x86\xb9\xe2\xdc#B'
p926
tp927
bag6
(g7
(I0
tp928
g9
tp929
Rp930
(g12
(g13
g14
Ntp931
Rp932
(dp933
g18
(lp934
I1
asg20
I1
sg21
(lp935
g35
asbI1
(tg39
I00
S'\xc2\xe4\xbd\xf3\x9c\xbf#B'
p936
tp937
bag6
(g7
(I0
tp938
g9
tp939
Rp940
(g12
(g13
g14
Ntp941
Rp942
(dp943
g18
(lp944
I1
asg20
I1
sg21
(lp945
g35
asbI1
(tg39
I00
S'\x8e\xf0\x97[\xfa\xa1#B'
p946
tp947
bag6
(g7
(I0
tp948
g9
tp949
Rp950
(g12
(g13
g14
Ntp951
Rp952
(dp953
g18
(lp954
I1
asg20
I1
sg21
(lp955
g35
asbI1
(tg39
I00
S'\xec8\xe7$\xda\x81#B'
p956
tp957
bag6
(g7
(I0
tp958
g9
tp959
Rp960
(g12
(g13
g14
Ntp961
Rp962
(dp963
g18
(lp964
I1
asg20
I1
sg21
(lp965
g35
asbI1
(tg39
I00
S'\xefg4\xe8-`#B'
p966
tp967
bag6
(g7
(I0
tp968
g9
tp969
Rp970
(g12
(g13
g14
Ntp971
Rp972
(dp973
g18
(lp974
I1
asg20
I1
sg21
(lp975
g35
asbI1
(tg39
I00
S'\x11y\xfa\xfd\xc8E#B'
p976
tp977
bag6
(g7
(I0
tp978
g9
tp979
Rp980
(g12
(g13
g14
Ntp981
Rp982
(dp983
g18
(lp984
I1
asg20
I1
sg21
(lp985
g35
asbI1
(tg39
I00
S'\xdbD\xa0\x86\x91:#B'
p986
tp987
bag6
(g7
(I0
tp988
g9
tp989
Rp990
(g12
(g13
g14
Ntp991
Rp992
(dp993
g18
(lp994
I1
asg20
I1
sg21
(lp995
g35
asbI1
(tg39
I00
S's\x89\x13"2u"B'
p996
tp997
bag6
(g7
(I0
tp998
g9
tp999
Rp1000
(g12
(g13
g14
Ntp1001
Rp1002
(dp1003
g18
(lp1004
I1
asg20
I1
sg21
(lp1005
g35
asbI1
(tg39
I00
S'tV\x87H\x0e\xe6 B'
p1006
tp1007
bag6
(g7
(I0
tp1008
g9
tp1009
Rp1010
(g12
(g13
g14
Ntp1011
Rp1012
(dp1013
g18
(lp1014
I1
asg20
I1
sg21
(lp1015
g35
asbI1
(tg39
I00
S'\xcd\x16V&\xedG B'
p1016
tp1017
bag6
(g7
(I0
tp1018
g9
tp1019
Rp1020
(g12
(g13
g14
Ntp1021
Rp1022
(dp1023
g18
(lp1024
I1
asg20
I1
sg21
(lp1025
g35
asbI1
(tg39
I00
S'\x0e\xa4B\x81\xfe?\x1bB'
p1026
tp1027
bag6
(g7
(I0
tp1028
g9
tp1029
Rp1030
(g12
(g13
g14
Ntp1031
Rp1032
(dp1033
g18
(lp1034
I1
asg20
I1
sg21
(lp1035
g35
asbI1
(tg39
I00
S'\xde\x80\xb2\x9b\xa9B\x16B'
p1036
tp1037
bag6
(g7
(I0
tp1038
g9
tp1039
Rp1040
(g12
(g13
g14
Ntp1041
Rp1042
(dp1043
g18
(lp1044
I1
asg20
I1
sg21
(lp1045
g35
asbI1
(tg39
I00
S'\x87\x1eZ\x80\xcbs\x11B'
p1046
tp1047
bag6
(g7
(I0
tp1048
g9
tp1049
Rp1050
(g12
(g13
g14
Ntp1051
Rp1052
(dp1053
g18
(lp1054
I1
asg20
I1
sg21
(lp1055
g35
asbI1
(tg39
I00
S'\t\xcds\xd4\x85\xc8\x0bB'
p1056
tp1057
bag6
(g7
(I0
tp1058
g9
tp1059
Rp1060
(g12
(g13
g14
Ntp1061
Rp1062
(dp1063
g18
(lp1064
I1
asg20
I1
sg21
(lp1065
g35
asbI1
(tg39
I00
S'\x8a\xfc\x89V\xec\n\x12B'
p1066
tp1067
bag6
(g7
(I0
tp1068
g9
tp1069
Rp1070
(g12
(g13
g14
Ntp1071
Rp1072
(dp1073
g18
(lp1074
I1
asg20
I1
sg21
(lp1075
g35
asbI1
(tg39
I00
S'4\xdcn5sB\x0eB'
p1076
tp1077
bag6
(g7
(I0
tp1078
g9
tp1079
Rp1080
(g12
(g13
g14
Ntp1081
Rp1082
(dp1083
g18
(lp1084
I1
asg20
I1
sg21
(lp1085
g35
asbI1
(tg39
I00
S'\xfdz\xc5\x1e\xca\x03\x08B'
p1086
tp1087
bag6
(g7
(I0
tp1088
g9
tp1089
Rp1090
(g12
(g13
g14
Ntp1091
Rp1092
(dp1093
g18
(lp1094
I1
asg20
I1
sg21
(lp1095
g35
asbI1
(tg39
I00
S']v\x07\x82\xf0\xa7\xeaA'
p1096
tp1097
bag6
(g7
(I0
tp1098
g9
tp1099
Rp1100
(g12
(g13
g14
Ntp1101
Rp1102
(dp1103
g18
(lp1104
I1
asg20
I1
sg21
(lp1105
g35
asbI1
(tg39
I00
S'\xa4\x88\x04\xb7\xe5\x0e\xeaA'
p1106
tp1107
bag6
(g7
(I0
tp1108
g9
tp1109
Rp1110
(g12
(g13
g14
Ntp1111
Rp1112
(dp1113
g18
(lp1114
I1
asg20
I1
sg21
(lp1115
g35
asbI1
(tg39
I00
S'\xb2\x0e\xd4\xa2\xd7\xd7\xe2A'
p1116
tp1117
bag6
(g7
(I0
tp1118
g9
tp1119
Rp1120
(g12
(g13
g14
Ntp1121
Rp1122
(dp1123
g18
(lp1124
I1
asg20
I1
sg21
(lp1125
g35
asbI1
(tg39
I00
S'\xb5\x9bS\x0fc{\xdcA'
p1126
tp1127
bag6
(g7
(I0
tp1128
g9
tp1129
Rp1130
(g12
(g13
g14
Ntp1131
Rp1132
(dp1133
g18
(lp1134
I1
asg20
I1
sg21
(lp1135
g35
asbI1
(tg39
I00
S'\x80\xe8\xed\x1f\x0e\x89\xd0A'
p1136
tp1137
bag6
(g7
(I0
tp1138
g9
tp1139
Rp1140
(g12
(g13
g14
Ntp1141
Rp1142
(dp1143
g18
(lp1144
I1
asg20
I1
sg21
(lp1145
g35
asbI1
(tg39
I00
S'\x1d~\xf7\xf0\xb0\xd1\xc2A'
p1146
tp1147
bag6
(g7
(I0
tp1148
g9
tp1149
Rp1150
(g12
(g13
g14
Ntp1151
Rp1152
(dp1153
g18
(lp1154
I1
asg20
I1
sg21
(lp1155
g35
asbI1
(tg39
I00
S'l\x91d\\\xa3\xe0\xb7A'
p1156
tp1157
bag6
(g7
(I0
tp1158
g9
tp1159
Rp1160
(g12
(g13
g14
Ntp1161
Rp1162
(dp1163
g18
(lp1164
I1
asg20
I1
sg21
(lp1165
g35
asbI1
(tg39
I00
S'\xa7w\xc6\x91\x80\x0f\x9cA'
p1166
tp1167
bag6
(g7
(I0
tp1168
g9
tp1169
Rp1170
(g12
(g13
g14
Ntp1171
Rp1172
(dp1173
g18
(lp1174
I1
asg20
I1
sg21
(lp1175
g35
asbI1
(tg39
I00
S'\x82z\x7fg\xe0\x11\x9aA'
p1176
tp1177
bag6
(g7
(I0
tp1178
g9
tp1179
Rp1180
(g12
(g13
g14
Ntp1181
Rp1182
(dp1183
g18
(lp1184
I1
asg20
I1
sg21
(lp1185
g35
asbI1
(tg39
I00
S'\xd1\x8c`\xdd\xa4F\x83A'
p1186
tp1187
bag6
(g7
(I0
tp1188
g9
tp1189
Rp1190
(g12
(g13
g14
Ntp1191
Rp1192
(dp1193
g18
(lp1194
I1
asg20
I1
sg21
(lp1195
g35
asbI1
(tg39
I00
S'\xcd\xa9\xd8UgT.A'
p1196
tp1197
bag6
(g7
(I0
tp1198
g9
tp1199
Rp1200
(g12
(g13
g14
Ntp1201
Rp1202
(dp1203
g18
(lp1204
I1
asg20
I1
sg21
(lp1205
g35
asbI1
(tg39
I00
S'\xf0Iy\x83%\xc1 A'
p1206
tp1207
bag6
(g7
(I0
tp1208
g9
tp1209
Rp1210
(g12
(g13
g14
Ntp1211
Rp1212
(dp1213
g18
(lp1214
I1
asg20
I1
sg21
(lp1215
g35
asbI1
(tg39
I00
S'Lw\xa5\x96s\xa21A'
p1216
tp1217
bag6
(g7
(I0
tp1218
g9
tp1219
Rp1220
(g12
(g13
g14
Ntp1221
Rp1222
(dp1223
g18
(lp1224
I1
asg20
I1
sg21
(lp1225
g35
asbI1
(tg39
I00
S'KNS<\xcb\x8c2A'
p1226
tp1227
bag6
(g7
(I0
tp1228
g9
tp1229
Rp1230
(g12
(g13
g14
Ntp1231
Rp1232
(dp1233
g18
(lp1234
I1
asg20
I1
sg21
(lp1235
g35
asbI1
(tg39
I00
S'-\x1fIg\xa4\x116A'
p1236
tp1237
basS'time'
p1238
(lp1239
F13.819387083308957
aF13.603828361298842
aF13.388269639288708
aF13.172710917278586
aF12.957152195268447
aF12.741593473258336
aF12.526034751248218
aF12.472145070745668
aF12.310476029238048
aF12.094917307227922
aF11.87935858521781
aF11.663799863207673
aF11.448241141197544
aF11.300044519815593
aF11.232682419187439
aF10.249195750016236
aF8.5920880745634
aF8.107080950041313
aF6.75983893747743
aF5.991910990316287
aF5.466486605416587
aF5.116203682150132
aF4.80633801926057
aF4.523417196622281
aF4.267441214235254
aF4.065354912350763
aF4.038410072099499
aF3.6207650482048797
aF3.2839545450640566
aF2.610333538782566
aF2.1522712545109184
aF1.8019883312444323
aF1.546012348857397
aF1.3439260469728986
aF1.1822570054653003
aF0.9397534432039041
aF0.7646119815706732
aF0.6433602004399743
aF0.5490532595605427
aF0.4816911589323769
assI1
(dp1240
g2
(lp1241
F1.4432899320127035e-14
aF0.014957894897535295
aF0.030252000886783037
aF0.04589598961529573
aF0.06190438233655304
aF0.07829261779842933
aF0.09507712674577418
aF0.0993371981915867
aF0.11227541380656247
aF0.1299061476359935
aF0.1479892603141968
aF0.16654605713380932
aF0.18559933807733353
aF0.19899909256819193
aF0.20517353247483539
aF0.30186891033835583
aF0.4999466644434758
aF0.5690358824443706
aF0.7991071222829804
aF0.9648127176558354
aF1.098745887568072
aF1.1999321683770519
aF1.2991016523747367
aF1.3990229900555073
aF1.4984928464150404
aF1.584084080092072
aF1.5960172265450456
aF1.7991241053028095
aF1.9929361710551103
aF2.4989996310887967
aF2.9862882854235173
aF3.4924258163093107
aF3.9789614547612366
aF4.46890836065334
aF4.958706100327681
aF5.94698983375053
aF6.972893411730002
aF7.9467800382714024
aF8.944870215215344
aF9.852268571722401
asg4
(lp1242
g6
(g7
(I0
tp1243
g9
tp1244
Rp1245
(g12
(g13
g14
Ntp1246
Rp1247
(dp1248
g18
(lp1249
I1
asg20
I1
sg21
(lp1250
g35
asbI1
(tg39
I00
S'\xa4\x99\x07\x9c[\xae\x03@'
p1251
tp1252
bag6
(g7
(I0
tp1253
g9
tp1254
Rp1255
(g12
(g13
g14
Ntp1256
Rp1257
(dp1258
g18
(lp1259
I1
asg20
I1
sg21
(lp1260
g35
asbI1
(tg39
I00
S'\xe1\x9b\xb9\xcfJ|\x02@'
p1261
tp1262
bag6
(g7
(I0
tp1263
g9
tp1264
Rp1265
(g12
(g13
g14
Ntp1266
Rp1267
(dp1268
g18
(lp1269
I1
asg20
I1
sg21
(lp1270
g35
asbI1
(tg39
I00
S'\x19k\x04\xf3\x8c\xba\x05@'
p1271
tp1272
bag6
(g7
(I0
tp1273
g9
tp1274
Rp1275
(g12
(g13
g14
Ntp1276
Rp1277
(dp1278
g18
(lp1279
I1
asg20
I1
sg21
(lp1280
g35
asbI1
(tg39
I00
S'\xde\xee\xa2\x83\x18#\x04@'
p1281
tp1282
bag6
(g7
(I0
tp1283
g9
tp1284
Rp1285
(g12
(g13
g14
Ntp1286
Rp1287
(dp1288
g18
(lp1289
I1
asg20
I1
sg21
(lp1290
g35
asbI1
(tg39
I00
S',\x8a\x1c\xf5Z[\x02@'
p1291
tp1292
bag6
(g7
(I0
tp1293
g9
tp1294
Rp1295
(g12
(g13
g14
Ntp1296
Rp1297
(dp1298
g18
(lp1299
I1
asg20
I1
sg21
(lp1300
g35
asbI1
(tg39
I00
S'\xe2p\xcdu\n\xd3\x04@'
p1301
tp1302
bag6
(g7
(I0
tp1303
g9
tp1304
Rp1305
(g12
(g13
g14
Ntp1306
Rp1307
(dp1308
g18
(lp1309
I1
asg20
I1
sg21
(lp1310
g35
asbI1
(tg39
I00
S'}\x10\x06\x8a\x19\xe4\x05@'
p1311
tp1312
bag6
(g7
(I0
tp1313
g9
tp1314
Rp1315
(g12
(g13
g14
Ntp1316
Rp1317
(dp1318
g18
(lp1319
I1
asg20
I1
sg21
(lp1320
g35
asbI1
(tg39
I00
S'\x06 \xfc\xe3\x05\xe4\x04@'
p1321
tp1322
bag6
(g7
(I0
tp1323
g9
tp1324
Rp1325
(g12
(g13
g14
Ntp1326
Rp1327
(dp1328
g18
(lp1329
I1
asg20
I1
sg21
(lp1330
g35
asbI1
(tg39
I00
S'\xe5\xa2\xd8\x9b!=\x04@'
p1331
tp1332
bag6
(g7
(I0
tp1333
g9
tp1334
Rp1335
(g12
(g13
g14
Ntp1336
Rp1337
(dp1338
g18
(lp1339
I1
asg20
I1
sg21
(lp1340
g35
asbI1
(tg39
I00
S's\x0b\x03\xdbh\xa8\x05@'
p1341
tp1342
bag6
(g7
(I0
tp1343
g9
tp1344
Rp1345
(g12
(g13
g14
Ntp1346
Rp1347
(dp1348
g18
(lp1349
I1
asg20
I1
sg21
(lp1350
g35
asbI1
(tg39
I00
S'\x07\xc2\x07@\x1c \x05@'
p1351
tp1352
bag6
(g7
(I0
tp1353
g9
tp1354
Rp1355
(g12
(g13
g14
Ntp1356
Rp1357
(dp1358
g18
(lp1359
I1
asg20
I1
sg21
(lp1360
g35
asbI1
(tg39
I00
S'\xcf\xcew\xe7\x15\xb5\x03@'
p1361
tp1362
bag6
(g7
(I0
tp1363
g9
tp1364
Rp1365
(g12
(g13
g14
Ntp1366
Rp1367
(dp1368
g18
(lp1369
I1
asg20
I1
sg21
(lp1370
g35
asbI1
(tg39
I00
S'\x83\x1f2\xbf\x94\x89\x05@'
p1371
tp1372
bag6
(g7
(I0
tp1373
g9
tp1374
Rp1375
(g12
(g13
g14
Ntp1376
Rp1377
(dp1378
g18
(lp1379
I1
asg20
I1
sg21
(lp1380
g35
asbI1
(tg39
I00
S'\xe9D\x02m\r\xdc\x05@'
p1381
tp1382
bag6
(g7
(I0
tp1383
g9
tp1384
Rp1385
(g12
(g13
g14
Ntp1386
Rp1387
(dp1388
g18
(lp1389
I1
asg20
I1
sg21
(lp1390
g35
asbI1
(tg39
I00
S'\x8ba\xac\xfb\xa9v\x06@'
p1391
tp1392
bag6
(g7
(I0
tp1393
g9
tp1394
Rp1395
(g12
(g13
g14
Ntp1396
Rp1397
(dp1398
g18
(lp1399
I1
asg20
I1
sg21
(lp1400
g35
asbI1
(tg39
I00
S'7\xf8t\xa0-\x05\x0e@'
p1401
tp1402
bag6
(g7
(I0
tp1403
g9
tp1404
Rp1405
(g12
(g13
g14
Ntp1406
Rp1407
(dp1408
g18
(lp1409
I1
asg20
I1
sg21
(lp1410
g35
asbI1
(tg39
I00
S'\xec\x99/\x0b\xd6\x98\x14@'
p1411
tp1412
bag6
(g7
(I0
tp1413
g9
tp1414
Rp1415
(g12
(g13
g14
Ntp1416
Rp1417
(dp1418
g18
(lp1419
I1
asg20
I1
sg21
(lp1420
g35
asbI1
(tg39
I00
S'J\xba\xf1Zx\xb7\x19@'
p1421
tp1422
bag6
(g7
(I0
tp1423
g9
tp1424
Rp1425
(g12
(g13
g14
Ntp1426
Rp1427
(dp1428
g18
(lp1429
I1
asg20
I1
sg21
(lp1430
g35
asbI1
(tg39
I00
S'\x1aad9\xd8\x93#@'
p1431
tp1432
bag6
(g7
(I0
tp1433
g9
tp1434
Rp1435
(g12
(g13
g14
Ntp1436
Rp1437
(dp1438
g18
(lp1439
I1
asg20
I1
sg21
(lp1440
g35
asbI1
(tg39
I00
S"\xa5mB \r\xfc'@"
p1441
tp1442
bag6
(g7
(I0
tp1443
g9
tp1444
Rp1445
(g12
(g13
g14
Ntp1446
Rp1447
(dp1448
g18
(lp1449
I1
asg20
I1
sg21
(lp1450
g35
asbI1
(tg39
I00
S'\x9f\xd7\xd8\x16o\x9c(@'
p1451
tp1452
bag6
(g7
(I0
tp1453
g9
tp1454
Rp1455
(g12
(g13
g14
Ntp1456
Rp1457
(dp1458
g18
(lp1459
I1
asg20
I1
sg21
(lp1460
g35
asbI1
(tg39
I00
S'\xc2]\xe5\x84.)*@'
p1461
tp1462
bag6
(g7
(I0
tp1463
g9
tp1464
Rp1465
(g12
(g13
g14
Ntp1466
Rp1467
(dp1468
g18
(lp1469
I1
asg20
I1
sg21
(lp1470
g35
asbI1
(tg39
I00
S'\xc1\x03\x18\x1b\x87q"@'
p1471
tp1472
bag6
(g7
(I0
tp1473
g9
tp1474
Rp1475
(g12
(g13
g14
Ntp1476
Rp1477
(dp1478
g18
(lp1479
I1
asg20
I1
sg21
(lp1480
g35
asbI1
(tg39
I00
S'\xfa\x84\x1171\x96\x16@'
p1481
tp1482
bag6
(g7
(I0
tp1483
g9
tp1484
Rp1485
(g12
(g13
g14
Ntp1486
Rp1487
(dp1488
g18
(lp1489
I1
asg20
I1
sg21
(lp1490
g35
asbI1
(tg39
I00
S'W\x04\xfc\xc6N\xdb\x1d@'
p1491
tp1492
bag6
(g7
(I0
tp1493
g9
tp1494
Rp1495
(g12
(g13
g14
Ntp1496
Rp1497
(dp1498
g18
(lp1499
I1
asg20
I1
sg21
(lp1500
g35
asbI1
(tg39
I00
S"\xb6\xe5\xfc\xc9'\x9a!@"
p1501
tp1502
bag6
(g7
(I0
tp1503
g9
tp1504
Rp1505
(g12
(g13
g14
Ntp1506
Rp1507
(dp1508
g18
(lp1509
I1
asg20
I1
sg21
(lp1510
g35
asbI1
(tg39
I00
S'\x7fv\x15\xd2\xd1\xe2!@'
p1511
tp1512
bag6
(g7
(I0
tp1513
g9
tp1514
Rp1515
(g12
(g13
g14
Ntp1516
Rp1517
(dp1518
g18
(lp1519
I1
asg20
I1
sg21
(lp1520
g35
asbI1
(tg39
I00
S'r\x90K\x11a\xd0\x14@'
p1521
tp1522
bag6
(g7
(I0
tp1523
g9
tp1524
Rp1525
(g12
(g13
g14
Ntp1526
Rp1527
(dp1528
g18
(lp1529
I1
asg20
I1
sg21
(lp1530
g35
asbI1
(tg39
I00
S'\x16{\xc7\xba\xe3\xd5\x15@'
p1531
tp1532
bag6
(g7
(I0
tp1533
g9
tp1534
Rp1535
(g12
(g13
g14
Ntp1536
Rp1537
(dp1538
g18
(lp1539
I1
asg20
I1
sg21
(lp1540
g35
asbI1
(tg39
I00
S'U\x0cd{\t\xb0\n@'
p1541
tp1542
bag6
(g7
(I0
tp1543
g9
tp1544
Rp1545
(g12
(g13
g14
Ntp1546
Rp1547
(dp1548
g18
(lp1549
I1
asg20
I1
sg21
(lp1550
g35
asbI1
(tg39
I00
S'\xd94o\xc1\xd0\x10\xeb?'
p1551
tp1552
bag6
(g7
(I0
tp1553
g9
tp1554
Rp1555
(g12
(g13
g14
Ntp1556
Rp1557
(dp1558
g18
(lp1559
I1
asg20
I1
sg21
(lp1560
g35
asbI1
(tg39
I00
S'\xda\x1fh\xd90\xe6\xd8?'
p1561
tp1562
bag6
(g7
(I0
tp1563
g9
tp1564
Rp1565
(g12
(g13
g14
Ntp1566
Rp1567
(dp1568
g18
(lp1569
I1
asg20
I1
sg21
(lp1570
g35
asbI1
(tg39
I00
S"\xd4\x98'*\xce\xd6\xcb?"
p1571
tp1572
bag6
(g7
(I0
tp1573
g9
tp1574
Rp1575
(g12
(g13
g14
Ntp1576
Rp1577
(dp1578
g18
(lp1579
I1
asg20
I1
sg21
(lp1580
g35
asbI1
(tg39
I00
S'\xa1\xd6\xf52\xc9v\x01@'
p1581
tp1582
bag6
(g7
(I0
tp1583
g9
tp1584
Rp1585
(g12
(g13
g14
Ntp1586
Rp1587
(dp1588
g18
(lp1589
I1
asg20
I1
sg21
(lp1590
g35
asbI1
(tg39
I00
S'\x85\xdcH\xd5\xd7S\xd2?'
p1591
tp1592
bag6
(g7
(I0
tp1593
g9
tp1594
Rp1595
(g12
(g13
g14
Ntp1596
Rp1597
(dp1598
g18
(lp1599
I1
asg20
I1
sg21
(lp1600
g35
asbI1
(tg39
I00
S';\xf2YI\xe1\xba\xd2?'
p1601
tp1602
bag6
(g7
(I0
tp1603
g9
tp1604
Rp1605
(g12
(g13
g14
Ntp1606
Rp1607
(dp1608
g18
(lp1609
I1
asg20
I1
sg21
(lp1610
g35
asbI1
(tg39
I00
S'\x8c\xd8\xca\x8e=\xdd\xa8?'
p1611
tp1612
bag6
(g7
(I0
tp1613
g9
tp1614
Rp1615
(g12
(g13
g14
Ntp1616
Rp1617
(dp1618
g18
(lp1619
I1
asg20
I1
sg21
(lp1620
g35
asbI1
(tg39
I00
S'\x8d:\x19\x06\x8a\xffy?'
p1621
tp1622
bag6
(g7
(I0
tp1623
g9
tp1624
Rp1625
(g12
(g13
g14
Ntp1626
Rp1627
(dp1628
g18
(lp1629
I1
asg20
I1
sg21
(lp1630
g35
asbI1
(tg39
I00
S'&\xac\x91\x8er#\xda?'
p1631
tp1632
bag6
(g7
(I0
tp1633
g9
tp1634
Rp1635
(g12
(g13
g14
Ntp1636
Rp1637
(dp1638
g18
(lp1639
I1
asg20
I1
sg21
(lp1640
g35
asbI1
(tg39
I00
S'\xee\xccW2\xe3\xd8\xc2?'
p1641
tp1642
basg434
(lp1643
g6
(g7
(I0
tp1644
g9
tp1645
Rp1646
(g12
(g13
g14
Ntp1647
Rp1648
(dp1649
g18
(lp1650
I1
asg20
I1
sg21
(lp1651
g35
asbI1
(tg39
I00
S'\x00\xcc\xf8\xb1e{\xfaA'
p1652
tp1653
bag6
(g7
(I0
tp1654
g9
tp1655
Rp1656
(g12
(g13
g14
Ntp1657
Rp1658
(dp1659
g18
(lp1660
I1
asg20
I1
sg21
(lp1661
g35
asbI1
(tg39
I00
S'6{\xe97\xeax\xfaA'
p1662
tp1663
bag6
(g7
(I0
tp1664
g9
tp1665
Rp1666
(g12
(g13
g14
Ntp1667
Rp1668
(dp1669
g18
(lp1670
I1
asg20
I1
sg21
(lp1671
g35
asbI1
(tg39
I00
S'\xc2\x83py\xfag\xfaA'
p1672
tp1673
bag6
(g7
(I0
tp1674
g9
tp1675
Rp1676
(g12
(g13
g14
Ntp1677
Rp1678
(dp1679
g18
(lp1680
I1
asg20
I1
sg21
(lp1681
g35
asbI1
(tg39
I00
S'\xf9\xf9\xc9\x92G\x07\xfaA'
p1682
tp1683
bag6
(g7
(I0
tp1684
g9
tp1685
Rp1686
(g12
(g13
g14
Ntp1687
Rp1688
(dp1689
g18
(lp1690
I1
asg20
I1
sg21
(lp1691
g35
asbI1
(tg39
I00
S'\xdc\xdf\xc3\xaeC\x0b\xfaA'
p1692
tp1693
bag6
(g7
(I0
tp1694
g9
tp1695
Rp1696
(g12
(g13
g14
Ntp1697
Rp1698
(dp1699
g18
(lp1700
I1
asg20
I1
sg21
(lp1701
g35
asbI1
(tg39
I00
S'z>\xf1\xba\xa1\xdb\xf9A'
p1702
tp1703
bag6
(g7
(I0
tp1704
g9
tp1705
Rp1706
(g12
(g13
g14
Ntp1707
Rp1708
(dp1709
g18
(lp1710
I1
asg20
I1
sg21
(lp1711
g35
asbI1
(tg39
I00
S'\xc0\x8d+\xd0\x1c~\xfbA'
p1712
tp1713
bag6
(g7
(I0
tp1714
g9
tp1715
Rp1716
(g12
(g13
g14
Ntp1717
Rp1718
(dp1719
g18
(lp1720
I1
asg20
I1
sg21
(lp1721
g35
asbI1
(tg39
I00
S'\x84m\x86\xff\x0f\xa5\xfbA'
p1722
tp1723
bag6
(g7
(I0
tp1724
g9
tp1725
Rp1726
(g12
(g13
g14
Ntp1727
Rp1728
(dp1729
g18
(lp1730
I1
asg20
I1
sg21
(lp1731
g35
asbI1
(tg39
I00
S'\xcb\xe7qrv\x04\xfaA'
p1732
tp1733
bag6
(g7
(I0
tp1734
g9
tp1735
Rp1736
(g12
(g13
g14
Ntp1737
Rp1738
(dp1739
g18
(lp1740
I1
asg20
I1
sg21
(lp1741
g35
asbI1
(tg39
I00
S'\xeenQ\xce\xb0i\xfaA'
p1742
tp1743
bag6
(g7
(I0
tp1744
g9
tp1745
Rp1746
(g12
(g13
g14
Ntp1747
Rp1748
(dp1749
g18
(lp1750
I1
asg20
I1
sg21
(lp1751
g35
asbI1
(tg39
I00
S'\xf6\xd8\xa4\x02\x1d\xf0\xf9A'
p1752
tp1753
bag6
(g7
(I0
tp1754
g9
tp1755
Rp1756
(g12
(g13
g14
Ntp1757
Rp1758
(dp1759
g18
(lp1760
I1
asg20
I1
sg21
(lp1761
g35
asbI1
(tg39
I00
S'\xc2\x07\xe0wXy\xf9A'
p1762
tp1763
bag6
(g7
(I0
tp1764
g9
tp1765
Rp1766
(g12
(g13
g14
Ntp1767
Rp1768
(dp1769
g18
(lp1770
I1
asg20
I1
sg21
(lp1771
g35
asbI1
(tg39
I00
S'\xd5\xd2p\xb41D\xf9A'
p1772
tp1773
bag6
(g7
(I0
tp1774
g9
tp1775
Rp1776
(g12
(g13
g14
Ntp1777
Rp1778
(dp1779
g18
(lp1780
I1
asg20
I1
sg21
(lp1781
g35
asbI1
(tg39
I00
S'*a\n,\x8b \xf9A'
p1782
tp1783
bag6
(g7
(I0
tp1784
g9
tp1785
Rp1786
(g12
(g13
g14
Ntp1787
Rp1788
(dp1789
g18
(lp1790
I1
asg20
I1
sg21
(lp1791
g35
asbI1
(tg39
I00
S'm\xa0H+K_\xf9A'
p1792
tp1793
bag6
(g7
(I0
tp1794
g9
tp1795
Rp1796
(g12
(g13
g14
Ntp1797
Rp1798
(dp1799
g18
(lp1800
I1
asg20
I1
sg21
(lp1801
g35
asbI1
(tg39
I00
S'`$\x05sH\xcb\xf4A'
p1802
tp1803
bag6
(g7
(I0
tp1804
g9
tp1805
Rp1806
(g12
(g13
g14
Ntp1807
Rp1808
(dp1809
g18
(lp1810
I1
asg20
I1
sg21
(lp1811
g35
asbI1
(tg39
I00
S'\xfd\x85\xa6(\x97\xea\xf0A'
p1812
tp1813
bag6
(g7
(I0
tp1814
g9
tp1815
Rp1816
(g12
(g13
g14
Ntp1817
Rp1818
(dp1819
g18
(lp1820
I1
asg20
I1
sg21
(lp1821
g35
asbI1
(tg39
I00
S't\xecW\xd1\x03y\xf2A'
p1822
tp1823
bag6
(g7
(I0
tp1824
g9
tp1825
Rp1826
(g12
(g13
g14
Ntp1827
Rp1828
(dp1829
g18
(lp1830
I1
asg20
I1
sg21
(lp1831
g35
asbI1
(tg39
I00
S'\xe2\xd1\xfe\xdd\xee)\xf5A'
p1832
tp1833
bag6
(g7
(I0
tp1834
g9
tp1835
Rp1836
(g12
(g13
g14
Ntp1837
Rp1838
(dp1839
g18
(lp1840
I1
asg20
I1
sg21
(lp1841
g35
asbI1
(tg39
I00
S'y\x8d\xd9\xdeNh\xfeA'
p1842
tp1843
bag6
(g7
(I0
tp1844
g9
tp1845
Rp1846
(g12
(g13
g14
Ntp1847
Rp1848
(dp1849
g18
(lp1850
I1
asg20
I1
sg21
(lp1851
g35
asbI1
(tg39
I00
S'\xbf\x1e\xe9\xdcF\xf3\x03B'
p1852
tp1853
bag6
(g7
(I0
tp1854
g9
tp1855
Rp1856
(g12
(g13
g14
Ntp1857
Rp1858
(dp1859
g18
(lp1860
I1
asg20
I1
sg21
(lp1861
g35
asbI1
(tg39
I00
S'\xd2\x9aG\x1ckb\x07B'
p1862
tp1863
bag6
(g7
(I0
tp1864
g9
tp1865
Rp1866
(g12
(g13
g14
Ntp1867
Rp1868
(dp1869
g18
(lp1870
I1
asg20
I1
sg21
(lp1871
g35
asbI1
(tg39
I00
S'=E\x96\x1e\xbb\\\x11B'
p1872
tp1873
bag6
(g7
(I0
tp1874
g9
tp1875
Rp1876
(g12
(g13
g14
Ntp1877
Rp1878
(dp1879
g18
(lp1880
I1
asg20
I1
sg21
(lp1881
g35
asbI1
(tg39
I00
S'N\xec\xde\xe3\x06\xac\x15B'
p1882
tp1883
bag6
(g7
(I0
tp1884
g9
tp1885
Rp1886
(g12
(g13
g14
Ntp1887
Rp1888
(dp1889
g18
(lp1890
I1
asg20
I1
sg21
(lp1891
g35
asbI1
(tg39
I00
S'\x0ee\xee.Y-\x17B'
p1892
tp1893
bag6
(g7
(I0
tp1894
g9
tp1895
Rp1896
(g12
(g13
g14
Ntp1897
Rp1898
(dp1899
g18
(lp1900
I1
asg20
I1
sg21
(lp1901
g35
asbI1
(tg39
I00
S'm^\xe3\xbdRF\x16B'
p1902
tp1903
bag6
(g7
(I0
tp1904
g9
tp1905
Rp1906
(g12
(g13
g14
Ntp1907
Rp1908
(dp1909
g18
(lp1910
I1
asg20
I1
sg21
(lp1911
g35
asbI1
(tg39
I00
S'"IK\xbd\x91I\x15B'
p1912
tp1913
bag6
(g7
(I0
tp1914
g9
tp1915
Rp1916
(g12
(g13
g14
Ntp1917
Rp1918
(dp1919
g18
(lp1920
I1
asg20
I1
sg21
(lp1921
g35
asbI1
(tg39
I00
S'\xf5\x8c\xe8;@\xec\x16B'
p1922
tp1923
bag6
(g7
(I0
tp1924
g9
tp1925
Rp1926
(g12
(g13
g14
Ntp1927
Rp1928
(dp1929
g18
(lp1930
I1
asg20
I1
sg21
(lp1931
g35
asbI1
(tg39
I00
S'v\xc4\xfd\x01\xd5\xb0\x14B'
p1932
tp1933
bag6
(g7
(I0
tp1934
g9
tp1935
Rp1936
(g12
(g13
g14
Ntp1937
Rp1938
(dp1939
g18
(lp1940
I1
asg20
I1
sg21
(lp1941
g35
asbI1
(tg39
I00
S'\x0e\xf8\x95\x9d3\xa7\x10B'
p1942
tp1943
bag6
(g7
(I0
tp1944
g9
tp1945
Rp1946
(g12
(g13
g14
Ntp1947
Rp1948
(dp1949
g18
(lp1950
I1
asg20
I1
sg21
(lp1951
g35
asbI1
(tg39
I00
S'\x15bP\xb3\xdb4\x07B'
p1952
tp1953
bag6
(g7
(I0
tp1954
g9
tp1955
Rp1956
(g12
(g13
g14
Ntp1957
Rp1958
(dp1959
g18
(lp1960
I1
asg20
I1
sg21
(lp1961
g35
asbI1
(tg39
I00
S'f\xb7t\xf36\xdc\xf1A'
p1962
tp1963
bag6
(g7
(I0
tp1964
g9
tp1965
Rp1966
(g12
(g13
g14
Ntp1967
Rp1968
(dp1969
g18
(lp1970
I1
asg20
I1
sg21
(lp1971
g35
asbI1
(tg39
I00
S'\x945\xe8-\xf3\x1e\xefA'
p1972
tp1973
bag6
(g7
(I0
tp1974
g9
tp1975
Rp1976
(g12
(g13
g14
Ntp1977
Rp1978
(dp1979
g18
(lp1980
I1
asg20
I1
sg21
(lp1981
g35
asbI1
(tg39
I00
S'\xe7\xaa\xacNKd\xf0A'
p1982
tp1983
bag6
(g7
(I0
tp1984
g9
tp1985
Rp1986
(g12
(g13
g14
Ntp1987
Rp1988
(dp1989
g18
(lp1990
I1
asg20
I1
sg21
(lp1991
g35
asbI1
(tg39
I00
S'\x02r\\\xc8\x12L\xe8A'
p1992
tp1993
bag6
(g7
(I0
tp1994
g9
tp1995
Rp1996
(g12
(g13
g14
Ntp1997
Rp1998
(dp1999
g18
(lp2000
I1
asg20
I1
sg21
(lp2001
g35
asbI1
(tg39
I00
S'\xc1\x85\xc8\x1a~\x81\xd9A'
p2002
tp2003
bag6
(g7
(I0
tp2004
g9
tp2005
Rp2006
(g12
(g13
g14
Ntp2007
Rp2008
(dp2009
g18
(lp2010
I1
asg20
I1
sg21
(lp2011
g35
asbI1
(tg39
I00
S"\x9c\xeb\xd6\xf3'\x9b\xccA"
p2012
tp2013
bag6
(g7
(I0
tp2014
g9
tp2015
Rp2016
(g12
(g13
g14
Ntp2017
Rp2018
(dp2019
g18
(lp2020
I1
asg20
I1
sg21
(lp2021
g35
asbI1
(tg39
I00
S'b\xdd\xc9b\x16w\xc1A'
p2022
tp2023
bag6
(g7
(I0
tp2024
g9
tp2025
Rp2026
(g12
(g13
g14
Ntp2027
Rp2028
(dp2029
g18
(lp2030
I1
asg20
I1
sg21
(lp2031
g35
asbI1
(tg39
I00
S'\x16H\xfe\x8e\x98\xc5\xbeA'
p2032
tp2033
bag6
(g7
(I0
tp2034
g9
tp2035
Rp2036
(g12
(g13
g14
Ntp2037
Rp2038
(dp2039
g18
(lp2040
I1
asg20
I1
sg21
(lp2041
g35
asbI1
(tg39
I00
S'\xf9\xf1\x8b\xad\xc5\xb6\xb1A'
p2042
tp2043
basg836
(lp2044
g6
(g7
(I0
tp2045
g9
tp2046
Rp2047
(g12
(g13
g14
Ntp2048
Rp2049
(dp2050
g18
(lp2051
I1
asg20
I1
sg21
(lp2052
g35
asbI1
(tg39
I00
S'U\xb0\xfb\xe7\xee\xdc+B'
p2053
tp2054
bag6
(g7
(I0
tp2055
g9
tp2056
Rp2057
(g12
(g13
g14
Ntp2058
Rp2059
(dp2060
g18
(lp2061
I1
asg20
I1
sg21
(lp2062
g35
asbI1
(tg39
I00
S'a\xca3\xaaY\xb7+B'
p2063
tp2064
bag6
(g7
(I0
tp2065
g9
tp2066
Rp2067
(g12
(g13
g14
Ntp2068
Rp2069
(dp2070
g18
(lp2071
I1
asg20
I1
sg21
(lp2072
g35
asbI1
(tg39
I00
S'eh\x87\xba\xad\x91+B'
p2073
tp2074
bag6
(g7
(I0
tp2075
g9
tp2076
Rp2077
(g12
(g13
g14
Ntp2078
Rp2079
(dp2080
g18
(lp2081
I1
asg20
I1
sg21
(lp2082
g35
asbI1
(tg39
I00
S'\x15\x07\xf9<\x1fk+B'
p2083
tp2084
bag6
(g7
(I0
tp2085
g9
tp2086
Rp2087
(g12
(g13
g14
Ntp2088
Rp2089
(dp2090
g18
(lp2091
I1
asg20
I1
sg21
(lp2092
g35
asbI1
(tg39
I00
S'\x8e\x9da\xc52D+B'
p2093
tp2094
bag6
(g7
(I0
tp2095
g9
tp2096
Rp2097
(g12
(g13
g14
Ntp2098
Rp2099
(dp2100
g18
(lp2101
I1
asg20
I1
sg21
(lp2102
g35
asbI1
(tg39
I00
S'X\xb2#O\xb1\x1f+B'
p2103
tp2104
bag6
(g7
(I0
tp2105
g9
tp2106
Rp2107
(g12
(g13
g14
Ntp2108
Rp2109
(dp2110
g18
(lp2111
I1
asg20
I1
sg21
(lp2112
g35
asbI1
(tg39
I00
S'k\xdb\xc1p0\xf9*B'
p2113
tp2114
bag6
(g7
(I0
tp2115
g9
tp2116
Rp2117
(g12
(g13
g14
Ntp2118
Rp2119
(dp2120
g18
(lp2121
I1
asg20
I1
sg21
(lp2122
g35
asbI1
(tg39
I00
S';\xb1\xee\x9dx\xf0*B'
p2123
tp2124
bag6
(g7
(I0
tp2125
g9
tp2126
Rp2127
(g12
(g13
g14
Ntp2128
Rp2129
(dp2130
g18
(lp2131
I1
asg20
I1
sg21
(lp2132
g35
asbI1
(tg39
I00
S'\xdf\xbdO\xfbs\xd5*B'
p2133
tp2134
bag6
(g7
(I0
tp2135
g9
tp2136
Rp2137
(g12
(g13
g14
Ntp2138
Rp2139
(dp2140
g18
(lp2141
I1
asg20
I1
sg21
(lp2142
g35
asbI1
(tg39
I00
S'G{L\x04\x90\xb1*B'
p2143
tp2144
bag6
(g7
(I0
tp2145
g9
tp2146
Rp2147
(g12
(g13
g14
Ntp2148
Rp2149
(dp2150
g18
(lp2151
I1
asg20
I1
sg21
(lp2152
g35
asbI1
(tg39
I00
S'\xb0:\x1d\x84j\x8a*B'
p2153
tp2154
bag6
(g7
(I0
tp2155
g9
tp2156
Rp2157
(g12
(g13
g14
Ntp2158
Rp2159
(dp2160
g18
(lp2161
I1
asg20
I1
sg21
(lp2162
g35
asbI1
(tg39
I00
S'=\xcfan\x85`*B'
p2163
tp2164
bag6
(g7
(I0
tp2165
g9
tp2166
Rp2167
(g12
(g13
g14
Ntp2168
Rp2169
(dp2170
g18
(lp2171
I1
asg20
I1
sg21
(lp2172
g35
asbI1
(tg39
I00
S'h\x0b\x8b\xc8\xfd7*B'
p2173
tp2174
bag6
(g7
(I0
tp2175
g9
tp2176
Rp2177
(g12
(g13
g14
Ntp2178
Rp2179
(dp2180
g18
(lp2181
I1
asg20
I1
sg21
(lp2182
g35
asbI1
(tg39
I00
S'?\xf1!\x08c\x1c*B'
p2183
tp2184
bag6
(g7
(I0
tp2185
g9
tp2186
Rp2187
(g12
(g13
g14
Ntp2188
Rp2189
(dp2190
g18
(lp2191
I1
asg20
I1
sg21
(lp2192
g35
asbI1
(tg39
I00
S'\x85\x9c\xbao9\x10*B'
p2193
tp2194
bag6
(g7
(I0
tp2195
g9
tp2196
Rp2197
(g12
(g13
g14
Ntp2198
Rp2199
(dp2200
g18
(lp2201
I1
asg20
I1
sg21
(lp2202
g35
asbI1
(tg39
I00
S'\xf0\x0e\xa0\xa3\x028)B'
p2203
tp2204
bag6
(g7
(I0
tp2205
g9
tp2206
Rp2207
(g12
(g13
g14
Ntp2208
Rp2209
(dp2210
g18
(lp2211
I1
asg20
I1
sg21
(lp2212
g35
asbI1
(tg39
I00
S"G;!w\xcf\x8a'B"
p2213
tp2214
bag6
(g7
(I0
tp2215
g9
tp2216
Rp2217
(g12
(g13
g14
Ntp2218
Rp2219
(dp2220
g18
(lp2221
I1
asg20
I1
sg21
(lp2222
g35
asbI1
(tg39
I00
S'%~SK\x8b\xdc&B'
p2223
tp2224
bag6
(g7
(I0
tp2225
g9
tp2226
Rp2227
(g12
(g13
g14
Ntp2228
Rp2229
(dp2230
g18
(lp2231
I1
asg20
I1
sg21
(lp2232
g35
asbI1
(tg39
I00
S'\x12\xf2\xb1\x1a\xff\x18$B'
p2233
tp2234
bag6
(g7
(I0
tp2235
g9
tp2236
Rp2237
(g12
(g13
g14
Ntp2238
Rp2239
(dp2240
g18
(lp2241
I1
asg20
I1
sg21
(lp2242
g35
asbI1
(tg39
I00
S'Y\x94\\!\xb3\x8a!B'
p2243
tp2244
bag6
(g7
(I0
tp2245
g9
tp2246
Rp2247
(g12
(g13
g14
Ntp2248
Rp2249
(dp2250
g18
(lp2251
I1
asg20
I1
sg21
(lp2252
g35
asbI1
(tg39
I00
S'\xf4\xea\x13\x89\xb5\x8e\x1eB'
p2253
tp2254
bag6
(g7
(I0
tp2255
g9
tp2256
Rp2257
(g12
(g13
g14
Ntp2258
Rp2259
(dp2260
g18
(lp2261
I1
asg20
I1
sg21
(lp2262
g35
asbI1
(tg39
I00
S']\x9f\x90\xcb\xfdE\x1bB'
p2263
tp2264
bag6
(g7
(I0
tp2265
g9
tp2266
Rp2267
(g12
(g13
g14
Ntp2268
Rp2269
(dp2270
g18
(lp2271
I1
asg20
I1
sg21
(lp2272
g35
asbI1
(tg39
I00
S'\xaf\xa7}\t\x1a\x98\x05B'
p2273
tp2274
bag6
(g7
(I0
tp2275
g9
tp2276
Rp2277
(g12
(g13
g14
Ntp2278
Rp2279
(dp2280
g18
(lp2281
I1
asg20
I1
sg21
(lp2282
g35
asbI1
(tg39
I00
S'\x0ej5\xa4\xac-\x02B'
p2283
tp2284
bag6
(g7
(I0
tp2285
g9
tp2286
Rp2287
(g12
(g13
g14
Ntp2288
Rp2289
(dp2290
g18
(lp2291
I1
asg20
I1
sg21
(lp2292
g35
asbI1
(tg39
I00
S'\n\xcf\x19\xd4\x17\xbd\xffA'
p2293
tp2294
bag6
(g7
(I0
tp2295
g9
tp2296
Rp2297
(g12
(g13
g14
Ntp2298
Rp2299
(dp2300
g18
(lp2301
I1
asg20
I1
sg21
(lp2302
g35
asbI1
(tg39
I00
S'xB\rW\x80Y\x04B'
p2303
tp2304
bag6
(g7
(I0
tp2305
g9
tp2306
Rp2307
(g12
(g13
g14
Ntp2308
Rp2309
(dp2310
g18
(lp2311
I1
asg20
I1
sg21
(lp2312
g35
asbI1
(tg39
I00
S'\x9a\x96>\xa8\xd6\x1f\x04B'
p2313
tp2314
bag6
(g7
(I0
tp2315
g9
tp2316
Rp2317
(g12
(g13
g14
Ntp2318
Rp2319
(dp2320
g18
(lp2321
I1
asg20
I1
sg21
(lp2322
g35
asbI1
(tg39
I00
S'6uz\xacL4\xfaA'
p2323
tp2324
bag6
(g7
(I0
tp2325
g9
tp2326
Rp2327
(g12
(g13
g14
Ntp2328
Rp2329
(dp2330
g18
(lp2331
I1
asg20
I1
sg21
(lp2332
g35
asbI1
(tg39
I00
S'\xa2\xe9\xae\xbe_T\xf1A'
p2333
tp2334
bag6
(g7
(I0
tp2335
g9
tp2336
Rp2337
(g12
(g13
g14
Ntp2338
Rp2339
(dp2340
g18
(lp2341
I1
asg20
I1
sg21
(lp2342
g35
asbI1
(tg39
I00
S'\xfdd\xd3\xe7\t\xb0\xdfA'
p2343
tp2344
bag6
(g7
(I0
tp2345
g9
tp2346
Rp2347
(g12
(g13
g14
Ntp2348
Rp2349
(dp2350
g18
(lp2351
I1
asg20
I1
sg21
(lp2352
g35
asbI1
(tg39
I00
S'\xd3\xcc\xcd\x93\x91\x9c\xccA'
p2353
tp2354
bag6
(g7
(I0
tp2355
g9
tp2356
Rp2357
(g12
(g13
g14
Ntp2358
Rp2359
(dp2360
g18
(lp2361
I1
asg20
I1
sg21
(lp2362
g35
asbI1
(tg39
I00
S'wi\xc3\x19,\xc3\xc4A'
p2363
tp2364
bag6
(g7
(I0
tp2365
g9
tp2366
Rp2367
(g12
(g13
g14
Ntp2368
Rp2369
(dp2370
g18
(lp2371
I1
asg20
I1
sg21
(lp2372
g35
asbI1
(tg39
I00
S'NT\x82 \xf4H\xa7A'
p2373
tp2374
bag6
(g7
(I0
tp2375
g9
tp2376
Rp2377
(g12
(g13
g14
Ntp2378
Rp2379
(dp2380
g18
(lp2381
I1
asg20
I1
sg21
(lp2382
g35
asbI1
(tg39
I00
S"\xd5<\xce'\xd3\t\xa2A"
p2383
tp2384
bag6
(g7
(I0
tp2385
g9
tp2386
Rp2387
(g12
(g13
g14
Ntp2388
Rp2389
(dp2390
g18
(lp2391
I1
asg20
I1
sg21
(lp2392
g35
asbI1
(tg39
I00
S'\x97\x0e\x92\xcdu\x06\x8dA'
p2393
tp2394
bag6
(g7
(I0
tp2395
g9
tp2396
Rp2397
(g12
(g13
g14
Ntp2398
Rp2399
(dp2400
g18
(lp2401
I1
asg20
I1
sg21
(lp2402
g35
asbI1
(tg39
I00
S'\x0c\xd3h\xa8\xfb\x91\x80A'
p2403
tp2404
bag6
(g7
(I0
tp2405
g9
tp2406
Rp2407
(g12
(g13
g14
Ntp2408
Rp2409
(dp2410
g18
(lp2411
I1
asg20
I1
sg21
(lp2412
g35
asbI1
(tg39
I00
S'h\xe3E\xa0\xe3^mA'
p2413
tp2414
bag6
(g7
(I0
tp2415
g9
tp2416
Rp2417
(g12
(g13
g14
Ntp2418
Rp2419
(dp2420
g18
(lp2421
I1
asg20
I1
sg21
(lp2422
g35
asbI1
(tg39
I00
S'\xdbo\xeb<A\xcfkA'
p2423
tp2424
bag6
(g7
(I0
tp2425
g9
tp2426
Rp2427
(g12
(g13
g14
Ntp2428
Rp2429
(dp2430
g18
(lp2431
I1
asg20
I1
sg21
(lp2432
g35
asbI1
(tg39
I00
S'\xd6\x17\x7ffNfhA'
p2433
tp2434
bag6
(g7
(I0
tp2435
g9
tp2436
Rp2437
(g12
(g13
g14
Ntp2438
Rp2439
(dp2440
g18
(lp2441
I1
asg20
I1
sg21
(lp2442
g35
asbI1
(tg39
I00
S'U\xa1\xb7\xc5S\xdcUA'
p2443
tp2444
basg1238
(lp2445
F13.819387083308957
aF13.603828361298842
aF13.388269639288708
aF13.172710917278586
aF12.957152195268447
aF12.741593473258336
aF12.526034751248218
aF12.472145070745668
aF12.310476029238048
aF12.094917307227922
aF11.87935858521781
aF11.663799863207673
aF11.448241141197544
aF11.300044519815593
aF11.232682419187439
aF10.249195750016236
aF8.5920880745634
aF8.107080950041313
aF6.75983893747743
aF5.991910990316287
aF5.466486605416587
aF5.116203682150132
aF4.80633801926057
aF4.523417196622281
aF4.267441214235254
aF4.065354912350763
aF4.038410072099499
aF3.6207650482048797
aF3.2839545450640566
aF2.610333538782566
aF2.1522712545109184
aF1.8019883312444323
aF1.546012348857397
aF1.3439260469728986
aF1.1822570054653003
aF0.9397534432039041
aF0.7646119815706732
aF0.6433602004399743
aF0.5490532595605427
aF0.4816911589323769
ass.