(dp0
S'g2.34e10'
p1
F9.77534
sS'g2.37e10'
p2
F9.04187
sS'g1.23e10'
p3
F10.0999
sS'g2.41e11'
p4
F11.0304
sS'g6.91e10'
p5
F15.0992
sS'g3.67e10'
p6
F12.3332
sS'g2.09e10'
p7
F10.7252
sS'g3.59e11'
p8
F5.86101
sS'g7.34e09'
p9
F10.5461
sS'g1.52e11'
p10
F11.9884
sS'g4.99e09'
p11
F10.0895
sS'g5.59e09'
p12
F13.2211
sS'g7.44e11'
p13
F6.55419
sS'g1.37e11'
p14
F14.1187
sS'g1.50e10'
p15
F10.5319
sS'g5.46e11'
p16
F9.91039
sS'g8.26e11'
p17
F11.3191
sS'g1.09e10'
p18
F10.1932
sS'g6.96e10'
p19
F7.16081
sS'g3.54e09'
p20
F8.72027
sS'g1.92e10'
p21
F7.73311
sS'g1.77e12'
p22
F6.93622
sS'g8.28e11'
p23
F6.86608
sS'g4.99e10'
p24
F9.38957
sS'g1.05e11'
p25
F7.95024
sS'g5.55e11'
p26
F6.01845
sS'g1.57e10'
p27
F15.1275
sS'g2.79e12'
p28
F8.78146
sS'g1.95e10'
p29
F12.3652
sS'g1.44e10'
p30
F9.88428
sS'g1.47e10'
p31
F12.0086
sS'g7.05e09'
p32
F7.72863
sS'g6.37e10'
p33
F6.64596
sS'g3.44e10'
p34
F4.262
sS'g3.06e11'
p35
F10.5148
sS'g7.12e10'
p36
F6.33332
sS'g1.89e10'
p37
F9.47687
sS'g2.54e11'
p38
F7.42346
sS'g2.83e10'
p39
F10.4193
sS'g6.77e10'
p40
F6.04829
sS'g7.08e11'
p41
F8.54045
sS'g5.41e09'
p42
F16.8243
sS'g3.21e11'
p43
F5.72372
sS'g6.96e11'
p44
F6.74595
sS'g1.08e11'
p45
F12.7555
sS'g4.27e10'
p46
F8.04873
sS'g5.36e11'
p47
F7.22722
sS'g4.86e10'
p48
F12.6577
sS'g7.66e11'
p49
F9.20154
sS'g4.48e10'
p50
F9.93128
sS'g8.89e10'
p51
F6.65342
sS'g2.39e10'
p52
F8.2972
sS'g3.19e10'
p53
F11.4325
sS'g3.55e11'
p54
F7.79131
sS'g5.38e11'
p55
F9.20527
sS'g3.93e10'
p56
F4.76715
sS'g2.63e10'
p57
F13.0681
sS'g5.84e09'
p58
F12.9316
sS'g7.55e11'
p59
F7.56746
sS'g8.13e11'
p60
F10.9946
sS'g1.57e11'
p61
F8.66954
sS'g1.88e10'
p62
F10.9804
sS'g5.02e11'
p63
F9.25303
sS'g3.23e11'
p64
F7.35183
sS'g5.22e09'
p65
F10.7961
sS'g1.59e11'
p66
F7.17275
sS'g2.94e10'
p67
F10.9699
sS'g2.64e10'
p68
F8.26213
sS'g2.19e11'
p69
F6.19678
sS'g1.12e12'
p70
F9.56268
sS'g8.06e11'
p71
F6.81161
sS'g1.64e11'
p72
F5.30736
sS'g2.42e11'
p73
F13.9284
sS'g1.18e10'
p74
F9.54328
sS'g2.04e11'
p75
F12.2123
sS'g2.80e10'
p76
F9.04858
sS'g4.94e10'
p77
F12.1041
sS'g4.36e09'
p78
F9.62611
sS'g1.92e12'
p79
F10.4073
sS'g4.90e11'
p80
F4.68358
sS'g9.59e10'
p81
F6.82131
sS'g3.71e11'
p82
F9.9089
sS'g9.26e09'
p83
F8.06366
sS'g1.90e10'
p84
F6.12888
sS'g5.05e10'
p85
F12.2168
s.