(dp0
S'g2.11e13'
p1
F6.17887
sS'g2.37e12'
p2
F7.83235
sS'g2.16e12'
p3
F16.4788
sS'g1.96e12'
p4
F6.98024
sS'g7.50e12'
p5
F7.40406
sS'g1.86e12'
p6
F10.9878
sS'g3.42e12'
p7
F9.15976
sS'g3.89e13'
p8
F7.47196
sS'g1.14e13'
p9
F8.04799
sS'g2.28e12'
p10
F5.40362
sS'g1.29e13'
p11
F6.25349
sS'g1.29e12'
p12
F10.5155
sS'g1.80e12'
p13
F12.9472
sS'g1.54e13'
p14
F5.71551
sS'g2.88e12'
p15
F7.21006
sS'g8.94e12'
p16
F4.0777
sS'g9.61e12'
p17
F5.50808
sS'g7.55e12'
p18
F5.82519
sS'g2.20e13'
p19
F8.54567
sS'g8.08e12'
p20
F8.11365
sS'g4.81e12'
p21
F8.20692
sS'g3.29e12'
p22
F11.7758
sS'g1.57e12'
p23
F10.864
sS'g1.57e13'
p24
F3.61956
sS'g1.62e12'
p25
F6.88772
sS'g1.06e12'
p26
F10.3536
sS'g2.58e13'
p27
F4.84176
sS'g1.26e12'
p28
F6.45868
sS'g4.35e12'
p29
F6.56165
sS'g1.87e13'
p30
F5.98711
sS'g5.75e12'
p31
F9.13439
sS'g3.78e13'
p32
F4.456
sS'g1.17e13'
p33
F3.44347
sS'g3.21e13'
p34
F9.46344
sS'g2.71e12'
p35
F9.16349
sS'g7.34e12'
p36
F6.66387
sS'g4.41e12'
p37
F5.19693
sS'g1.95e13'
p38
F9.97531
sS'g2.56e12'
p39
F6.95562
sS'g1.27e12'
p40
F10.9259
sS'g5.41e12'
p41
F9.73952
sS'g3.37e13'
p42
F6.90488
sS'g6.70e12'
p43
F8.75907
sS'g2.02e13'
p44
F5.09172
sS'g1.38e12'
p45
F10.1447
sS'g1.25e13'
p46
F6.25423
sS'g4.84e12'
p47
F7.10709
sS'g7.71e12'
p48
F9.66938
sS'g3.26e13'
p49
F4.6306
sS'g2.37e13'
p50
F9.44479
sS'g6.86e12'
p51
F2.81073
sS'g1.63e13'
p52
F4.28737
sS'g2.04e12'
p53
F11.8026
sS'g3.05e12'
p54
F12.0145
sS'g1.55e12'
p55
F6.20126
sS'g1.33e13'
p56
F9.23811
sS'g5.53e12'
p57
F6.59672
sS'g3.74e12'
p58
F8.30467
sS'g4.55e12'
p59
F2.89355
sS'g2.10e13'
p60
F7.36302
sS'g2.07e13'
p61
F4.4851
sS'g6.53e12'
p62
F7.37943
sS'g6.57e12'
p63
F6.43032
sS'g8.45e12'
p64
F8.02486
sS'g1.79e13'
p65
F5.81773
sS'g5.22e12'
p66
F12.8293
s.