(dp0
S'g1.92e12'
p1
(dp2
S'z'
p3
(lp4
F0.0
aF0.0
aF0.0
aF0.0
aF0.0
aF0.0
aF0.0
aF0.0
aF0.0
aF0.0
aF0.0
aF0.0
aF0.0
aF0.0
aF0.0
aF0.0
aF0.0
aF0.0
aF0.0
aF0.0
aF0.0
aF0.0
aF0.0
aF0.0
aF0.0
aF0.0
aF0.0
aF0.0
aF0.0
aF0.0
aF0.0
aF0.0
aF0.0
aF0.0
aF0.0
aF0.0
aF0.0
aF0.0
aF0.0
aF0.0
aF0.0
aF0.0
aF0.0
aF0.0
aF0.0
aF0.0
aF0.0
aF0.0
aF0.0
aF0.0
aF0.0
aF0.0
aF0.0
aF0.0
aF0.0
aF0.0
aF0.0
aF0.0
aF0.0
aF0.0
aF0.0
aF0.0
asS'sfr'
p5
(lp6
F0.30185685778666804
aF0.5752167394885807
aF0.2955241964345001
aF2.3810806684151156
aF7.968598868144559
aF12.16715334463185
aF18.896661474868896
aF23.665155473051296
aF38.56131704771478
aF53.82245717733816
aF44.98884130540558
aF38.97605931619813
aF32.632685840870906
aF19.85095786320913
aF9.126235637532206
aF0.8696854923643863
aF0.7483094831145022
aF0.8770621764068333
aF0.7388104910862505
aF0.03905141167170182
aF0.20053427615198224
aF0.009498992028251791
aF0.0
aF0.03482963743692324
aF0.03271875031953396
aF0.0021108871173892868
aF0.0
aF0.013720766263030365
aF0.0010554435586946434
aF0.0031663306760839303
aF0.0
aF0.020053427615198224
aF0.0031663306760839303
aF0.029552419643450026
aF0.07388104910862506
aF0.1868135098889519
aF0.22269859088456978
aF0.5636068603429396
aF0.32402117251925555
aF0.4517298431213073
aF0.17098185650853223
aF0.257528228321493
aF0.4695875019557696
aF0.0749364926673197
aF0.2374748007062948
aF0.06754838775645718
aF0.1994788325932876
aF0.2860252044062484
aF0.4031794394213538
aF0.26069455899757693
aF0.4781159320886735
aF0.18892439700634117
aF0.22586492156065371
aF0.18997984056503583
aF0.2110887117389287
aF0.18892439700634117
aF0.05277217793473218
aF0.0042217742347785735
aF0.050661290817342886
aF0.0052772177934732175
aF0.0010554435586946434
aF0.0010554435586946434
asS'ms'
p7
(lp8
F40875856.790060334
aF166369689.71217054
aF116639092.67575487
aF496158823.33539927
aF1597239366.3012733
aF3603834065.7402906
aF7055565409.939601
aF11323881683.554474
aF19353221123.32786
aF27974325517.563896
aF35121593699.829056
aF41199905176.13624
aF45906285998.54828
aF48724056390.56683
aF49772083614.28763
aF49166746850.84085
aF48913863591.47491
aF48472749222.06094
aF48146951604.646545
aF47965182861.68076
aF47819983452.158745
aF47432161685.062126
aF47175628062.94301
aF47040833417.52052
aF46803462745.53102
aF46637497993.860664
aF46479019638.36312
aF46345170612.83441
aF46208778625.88826
aF46089252396.07431
aF46014745483.513954
aF45961368603.699524
aF45760901627.01384
aF45677548322.40197
aF45601068637.8138
aF45516296441.428
aF45466225003.24175
aF45506869459.39786
aF45455375510.550835
aF45431832880.3268
aF45648495906.781265
aF45354829017.34427
aF45347935277.42651
aF45330211274.22003
aF45330645080.94108
aF45301295113.65695
aF45299415307.917046
aF45277009325.17519
aF45259996545.95087
aF45240850165.71863
aF45244711943.91206
aF45251409158.43507
aF45231252973.08417
aF45412200815.5405
aF45207392022.71552
aF45223053648.81123
aF45242844627.16944
aF45232529607.913666
aF45213529852.99436
aF45185742286.73169
aF45218064001.23273
aF45263506653.6944
asS'time'
p9
(lp10
F0.0005381944711023687
aF0.0006493279631563905
aF0.0007517670329420299
aF0.000847797198240668
aF0.0009388424196903187
aF0.0010258674939513264
aF0.0011095656395524601
aF0.0011904571428480839
aF0.001268945914604129
aF0.0013453541050645389
aF0.0014199444051819904
aF0.0014929350223032726
aF0.001564510086545248
aF0.0016348270928902146
aF0.0017040223554380307
aF0.0017722150902644849
aF0.0018395105286445126
aF0.0019060023298138084
aF0.0019717744780354844
aF0.0020369027935475616
aF0.0021014561500142686
aF0.0021654974658337905
aF0.0022290845190420373
aF0.002292270623063398
aF0.002355105191523616
aF0.0024176342141006423
aF0.0024799006593660723
aF0.002541944819247279
aF0.0026038046040809345
aF0.002665515797437745
aF0.002727112277107124
aF0.0027886262076908036
aF0.0028500882092140625
aF0.0029115275053720564
aF0.0029729720543976174
aF0.0030344486650299702
aF0.0030959830996539987
aF0.003157600166346101
aF0.00321932380129252
aF0.003281177142814663
aF0.003343182598062219
aF0.00340536190326974
aF0.00346773617835039
aF0.003530325976490836
aF0.0035931513293208546
aF0.0036562317881547427
aF0.0037195864617365635
aF0.0037832340508660188
aF0.0038471928802343747
aF0.003911480927759549
aF0.003976115851674388
aF0.0040411150155922875
aF0.0041064955117482566
aF0.0041722741825909095
aF0.004238467640881319
aF0.004305092288437468
aF0.00437216433364821
aF0.004439699807867189
aF0.004507714580786093
aF0.004576224374876145
aF0.004645244778977709
aF0.004714791261110254
assS'g1.77e12'
p11
(dp12
g3
(lp13
F6.261032218898561
aF5.271612154445051
aF4.561225338906956
aF4.0219197196751315
aF3.595906673044489
aF3.249222482242713
aF2.9604880271712473
aF2.71551790099832
aF2.5044983646771204
aF2.320405534120926
aF2.158068630365731
aF2.013589558582861
aF1.8839693699809175
aF1.7668599804832716
aF1.6603944899299403
aF1.5630683748162806
aF1.4736545109946966
aF1.3911412352835408
aF1.3146864327771066
aF1.2435829846263102
aF1.1772324075636686
aF1.1151244920657106
aF1.0568213952022236
aF1.0019450842703685
aF0.9501673303644187
aF0.9012016643906826
aF0.8547968568831767
aF0.810731593960949
aF0.7688100988343307
aF0.7288585074728573
aF0.6907218501021464
aF0.6542615228075603
aF0.619353158234319
aF0.5858848232818783
aF0.5537554862750533
aF0.5228737074298768
aF0.4931565153057902
aF0.46452843892788764
aF0.4369206708132436
aF0.41027034055606837
aF0.3845198821844189
aF0.3596164813648439
aF0.33551159085792337
aF0.31216050452333044
aF0.2895219817258434
aF0.26755791527134787
aF0.24623303705755828
aF0.22551465650016955
aF0.20537242752475993
aF0.18577814052497388
aF0.1667055361994696
aF0.14813013861132918
aF0.1300291051779643
aF0.11238109160837317
aF0.09516613006722774
aF0.07836551906918454
aF0.0619617237984591
aF0.04593828571287295
aF0.030279740432948676
aF0.01497154303845405
aF1.5765166949677223e-14
asg5
(lp14
F0.09498992028251792
aF0.3831260118061556
aF0.24064113138237872
aF0.3145221804910038
aF0.37890423757137703
aF0.3767933504539877
aF1.0607207764881166
aF1.343579650218281
aF2.137273206356653
aF0.3219102854018662
aF0.7050362972080219
aF3.425969791522813
aF2.098221794684951
aF3.8713669732919525
aF4.020184515067897
aF3.419637130170645
aF4.310431493708924
aF5.3858769093553445
aF5.842935540933547
aF8.532205728487497
aF10.490053529866062
aF11.086379140528535
aF14.65897165370042
aF14.590260034982032
aF15.111532448378416
aF11.72243164869956
aF12.248294114705091
aF10.95092445501302
aF9.48090370951909
aF9.694450300361861
aF8.571620528588221
aF8.87160104726954
aF15.862465873566752
aF11.014092762868572
aF12.186670269811396
aF14.198918924938521
aF3.820572312150371
aF4.982489537710865
aF4.538250607884061
aF4.176378811374524
aF4.348198182205224
aF0.5150564566429859
aF0.6892046438276023
aF0.4865594805582307
aF0.38418145536485016
aF0.850642492271424
aF0.6723175468884879
aF0.438009076858277
aF0.5550930957566833
aF0.17414818718461617
aF0.367294358425736
aF0.2089778246215394
aF0.05488306505212147
aF0.13298588839552508
aF0.01583165338041965
aF0.047494960141258966
aF0.06649294419776255
aF0.22375403444326442
aF0.2986905271105841
aF0.21953226020848585
aF0.0
asg7
(lp15
F15216716.717410468
aF67196800.47091031
aF111296066.11784533
aF166234920.9496944
aF210755497.17279872
aF282546930.7927037
aF408006614.15614337
aF686513415.1641544
aF1091070599.981173
aF316688399.487792
aF442208822.0296764
aF2524935192.972705
aF2824461628.9013557
aF3405408122.12281
aF4838903492.097224
aF5242640041.51512
aF5888445780.69952
aF7056550229.770817
aF7994370080.230209
aF9159657530.350767
aF10680605195.70222
aF12464503545.860638
aF14674142032.34555
aF16895651647.132711
aF19058998197.360374
aF20926682667.2619
aF22722769881.58918
aF24284169984.51893
aF25618612437.527172
aF26952410478.087357
aF28403754573.039925
aF29384475345.500664
aF36112561767.2536
aF37697257300.81502
aF40369029093.03841
aF40611963105.04903
aF40445524837.63723
aF41283916543.25316
aF44005075225.371956
aF45759760400.018265
aF43791847489.416695
aF44161629592.84623
aF44281259310.814026
aF43756555274.81544
aF43946254842.873825
aF43733414678.97665
aF43272789789.82973
aF43625428238.32033
aF43933385053.1798
aF43494931758.67421
aF43420778521.21043
aF43622099352.54173
aF43550851577.34948
aF43242938683.4741
aF43284149361.701706
aF43415566298.35356
aF43527658615.36449
aF43571937789.2649
aF43553731343.132256
aF43484650553.35924
aF43366271798.855385
asg9
(lp16
F0.8803178544385206
aF1.0960872661395555
aF1.31185667784059
aF1.5276260895416247
aF1.7433955012426607
aF1.959164912943703
aF2.1749343246447546
aF2.390703736345835
aF2.606473148046936
aF2.8222425597478225
aF3.0380119714488574
aF3.253781383149897
aF3.4695507948509334
aF3.6853202065519723
aF3.901089618253011
aF4.116859029954044
aF4.332628441655085
aF4.548397853356121
aF4.76416726505716
aF4.9799366767582
aF5.195706088459233
aF5.411475500160272
aF5.6272449118613
aF5.843014323419693
aF6.058783735263374
aF6.274553146964411
aF6.490322558665462
aF6.706091970366524
aF6.921861382067592
aF7.13763079376867
aF7.3534002054697645
aF7.569169617170884
aF7.784939028872027
aF8.000708440573206
aF8.216477852274423
aF8.432247263975684
aF8.648016675675684
aF8.863786087376706
aF9.079555499077737
aF9.295324910778769
aF9.511094322479796
aF9.726863734180817
aF9.942633145881851
aF10.158402557582873
aF10.374171969283916
aF10.589941380984925
aF10.805710792685963
aF11.021480204386982
aF11.237249616088
aF11.45301902778903
aF11.668788439490053
aF11.884557851191074
aF12.100327262892103
aF12.316096674593146
aF12.531866086294151
aF12.747635497995192
aF12.963404909696264
aF13.179174321397273
aF13.394943733098305
aF13.610713144799337
aF13.826482556500364
assS'g8.28e11'
p17
(dp18
g3
(lp19
F0.0
aF0.0
aF0.0
aF0.0
aF0.0
aF0.0
aF0.0
aF0.0
aF0.0
aF0.0
aF0.0
aF0.0
aF0.0
aF0.0
aF0.0
aF0.0
aF0.0
aF0.0
aF0.0
aF0.0
aF0.0
aF0.0
aF0.0
aF0.0
aF0.0
aF0.0
aF0.0
aF0.0
aF0.0
aF0.0
aF0.0
aF0.0
aF0.0
aF0.0
aF0.0
aF0.0
aF0.0
aF0.0
aF0.0
aF0.0
aF0.0
aF0.0
aF0.0
aF0.0
aF0.0
aF0.0
aF0.0
aF0.0
aF0.0
aF0.0
aF0.0
aF0.0
aF0.0
aF0.0
aF0.0
aF0.0
aF0.0
aF0.0
aF0.0
aF0.0
asg5
(lp20
F0.1139879043390215
aF0.05277217793473218
aF0.09498992028251792
aF0.2015897197106769
aF0.47706048852997884
aF0.42323286703655205
aF0.5023911339386503
aF0.5382762149342681
aF0.5541078683146878
aF0.5171673437603752
aF0.6564858935080682
aF0.8000262174905397
aF0.6649294419776254
aF0.24169657494107336
aF0.6533195628319843
aF0.6797056517993504
aF0.6913155309449914
aF0.40001310874526985
aF0.3852368989235449
aF0.6543750063906789
aF0.3451300436931484
aF0.6026582720146414
aF1.1272137206858792
aF0.4665060529430324
aF0.8000262174905397
aF1.3889637232421508
aF0.3947358909517966
aF0.982617953144713
aF1.7330383233766047
aF0.44856351244522347
aF1.3741875134204256
aF0.5794385137233593
aF1.400573602387792
aF2.0443941731915243
aF2.7357097041365157
aF0.5034465774973449
aF1.6464919515636438
aF2.0528377216610814
aF1.4501794496464402
aF2.0000655437263495
aF0.7736401285231737
aF2.062336713689333
aF1.615884088361499
aF2.6153891384453263
aF1.2032056569118934
aF0.6279889174233129
aF1.974734898317678
aF0.0
aF0.1720373000672269
aF0.9699526304403773
aF1.696097798822292
aF0.213199598856318
aF0.17625907430200546
aF0.02849697608475538
aF0.07810282334340361
aF0.0897127024890447
aF0.08549092825426612
aF0.7651965800536165
aF0.6237671431885342
aF0.8770735972752488
asg7
(lp21
F27025460.63292347
aF46860832.564634755
aF65134907.93485753
aF95404426.60956815
aF154362525.01769343
aF196068560.67889747
aF275033305.6332163
aF364441283.17179644
aF451427112.6804173
aF522560088.4881278
aF619813287.712355
aF740067218.2448568
aF813689762.8046892
aF860846119.2629374
aF960134154.9011298
aF1076658178.7188802
aF1139583847.4583716
aF425336452.7427039
aF871217331.6797282
aF879286349.8237294
aF1459422456.6341896
aF1537381084.8230662
aF1723993904.0163014
aF1765834813.1456208
aF1871504110.2059824
aF2137067908.7629423
aF2180401973.7653093
aF2421666816.474471
aF2638733755.211891
aF2722061043.736354
aF2928461016.1421947
aF3133442792.3339033
aF3372444673.6467986
aF3494881516.9136453
aF3828775398.165492
aF3910873897.088122
aF4126921073.61804
aF4365057611.391041
aF4542746989.782782
aF4894070101.325469
aF5018466757.774355
aF5337773979.188573
aF5400359164.788035
aF5668533056.369754
aF5705847235.661509
aF5790031325.073556
aF5955630616.5197315
aF198575391.52265063
aF3042371609.105177
aF9143874484.78843
aF8918122049.274048
aF6752048762.375705
aF6616279784.930258
aF6583977356.2858715
aF6588737205.940497
aF6578991460.473793
aF6756083453.912607
aF9934246341.330927
aF10043536801.249249
aF9898509809.58084
asg9
(lp22
F0.0007517670329420299
aF0.000847797198240668
aF0.0009388424196903187
aF0.0010258674939513264
aF0.0011095656395524601
aF0.0011904571428480839
aF0.001268945914604129
aF0.0013453541050645389
aF0.0014199444051819904
aF0.0014929350223032726
aF0.001564510086545248
aF0.0016348270928902146
aF0.0017040223554380307
aF0.0017722150902644849
aF0.0018395105286445126
aF0.0019060023298138084
aF0.0019717744780354844
aF0.0020369027935475616
aF0.0021014561500142686
aF0.0021654974658337905
aF0.0022290845190420373
aF0.002292270623063398
aF0.002355105191523616
aF0.0024176342141006423
aF0.0024799006593660723
aF0.002541944819247279
aF0.0026038046040809345
aF0.002665515797437745
aF0.002727112277107124
aF0.0027886262076908036
aF0.0028500882092140625
aF0.0029115275053720564
aF0.0029729720543976174
aF0.0030344486650299702
aF0.0030959830996539987
aF0.003157600166346101
aF0.00321932380129252
aF0.003281177142814663
aF0.003343182598062219
aF0.00340536190326974
aF0.00346773617835039
aF0.003530325976490836
aF0.0035931513293208546
aF0.0036562317881547427
aF0.0037195864617365635
aF0.0037832340508660188
aF0.0038471928802343747
aF0.003911480927759549
aF0.003976115851674388
aF0.0040411150155922875
aF0.0041064955117482566
aF0.0041722741825909095
aF0.004238467640881319
aF0.004305092288437468
aF0.00437216433364821
aF0.004439699807867189
aF0.004507714580786093
aF0.004576224374876145
aF0.004645244778977709
aF0.004714791261110254
assS'g3.21e11'
p23
(dp24
g3
(lp25
F0.0
aF0.0
aF0.0
aF0.0
aF0.0
aF0.0
aF0.0
aF0.0
aF0.0
aF0.0
aF0.0
aF0.0
aF0.0
aF0.0
aF0.0
aF0.0
aF0.0
aF0.0
aF0.0
aF0.0
aF0.0
aF0.0
aF0.0
aF0.0
aF0.0
aF0.0
aF0.0
aF0.0
aF0.0
aF0.0
aF0.0
aF0.0
aF0.0
aF0.0
aF0.0
aF0.0
aF0.0
aF0.0
aF0.0
aF0.0
aF0.0
aF0.0
aF0.0
aF0.0
aF0.0
aF0.0
aF0.0
aF0.0
aF0.0
aF0.0
aF0.0
aF0.0
aF0.0
aF0.0
aF0.0
aF0.0
aF0.0
aF0.0
aF0.0
aF0.0
aF0.0
asg5
(lp26
F0.0
aF0.0
aF0.012929183594009382
aF0.021900453842913854
aF0.03324647209888127
aF0.09459412894800741
aF0.012665322704335721
aF0.01504007071139867
aF0.06556943108390471
aF0.03192716765051296
aF0.21821295576011754
aF0.26082648944241377
aF0.06860383131515183
aF0.33615877344424394
aF0.3125432238184513
aF0.5826048443994432
aF0.27388760348125996
aF0.35133077460047946
aF0.25686857609730884
aF0.3674262888705728
aF0.3035719535695468
aF0.3168969284980667
aF0.5728419914815178
aF0.9430388196936639
aF0.4885384372307831
aF0.6799695126890241
aF0.4704639662881373
aF0.5767999048266226
aF0.2876083697442903
aF0.6178302731708769
aF0.5012037599351189
aF0.6505490234904108
aF0.7180974112468681
aF0.6556943108390472
aF0.4845805238856782
aF0.8570201696600506
aF0.8141427750880804
aF0.4708597576226478
aF0.5150564566429859
aF0.4172959970188947
aF0.4394603117514822
aF0.5632110690084291
aF0.5410467542758416
aF0.8013455219389081
aF0.46399937449113265
aF0.6711301728849564
aF0.9620368037501675
aF0.6405223096828118
aF0.7195486461400732
aF1.2857941153797494
aF0.5843199401823219
aF0.4764008363057947
aF1.92803152084544
aF0.9849889618057323
aF0.7461985959971128
aF0.6709982424401195
aF0.9202148527368921
aF1.5536037890908152
aF0.9336631899278508
aF0.7370953953033719
aF0.9930299153030717
asg7
(lp27
F1653272.6742379563
aF3329486.299125771
aF6640572.133640135
aF9177562.787303854
aF13684245.631154887
aF15212740.783843307
aF20006698.115125064
aF22516503.938957993
aF53469948.87824108
aF58818708.548689835
aF107327101.59060669
aF133084059.11895597
aF141373803.24370384
aF189857596.5596628
aF270800624.55620563
aF329724667.3929179
aF362574111.41030514
aF402680665.10332
aF448608015.7797825
aF515377862.78173715
aF568919180.4147446
aF628254264.2108359
aF815620259.4804509
aF820546708.8445925
aF874882401.1236697
aF965658595.3905799
aF1096949582.5303016
aF1259417833.7096133
aF1291960242.552003
aF1383543353.8677368
aF1473714730.8597827
aF1539790946.580061
aF1638174853.5931373
aF1701510421.5461915
aF1787635962.521401
aF1885280678.2467656
aF1976202869.3675714
aF2043288356.3025522
aF2140462870.5447881
aF2208413072.3947926
aF2299661954.93947
aF2377183802.294024
aF2428963954.2019544
aF2525570819.3751755
aF2608608487.015836
aF2678824988.818498
aF2790237794.8624725
aF2844337906.414497
aF2948762509.1678257
aF3136838554.2323003
aF3222587837.796007
aF3283313592.0723066
aF3528650840.5739098
aF3623378303.6792474
aF3780134842.8018565
aF3887541021.889852
aF4031862056.2710924
aF4245981415.2920437
aF4369062582.757506
aF4466454997.532333
aF4613262311.941577
asg9
(lp28
F0.0006493279631563905
aF0.0007517670329420299
aF0.000847797198240668
aF0.0009388424196903187
aF0.0010258674939513264
aF0.0011095656395524601
aF0.0011904571428480839
aF0.001268945914604129
aF0.0013453541050645389
aF0.0014199444051819904
aF0.0014929350223032726
aF0.001564510086545248
aF0.0016348270928902146
aF0.0017040223554380307
aF0.0017722150902644849
aF0.0018395105286445126
aF0.0019060023298138084
aF0.0019717744780354844
aF0.0020369027935475616
aF0.0021014561500142686
aF0.0021654974658337905
aF0.0022290845190420373
aF0.002292270623063398
aF0.002355105191523616
aF0.0024176342141006423
aF0.0024799006593660723
aF0.002541944819247279
aF0.0026038046040809345
aF0.002665515797437745
aF0.002727112277107124
aF0.0027886262076908036
aF0.0028500882092140625
aF0.0029115275053720564
aF0.0029729720543976174
aF0.0030344486650299702
aF0.0030959830996539987
aF0.003157600166346101
aF0.00321932380129252
aF0.003281177142814663
aF0.003343182598062219
aF0.00340536190326974
aF0.00346773617835039
aF0.003530325976490836
aF0.0035931513293208546
aF0.0036562317881547427
aF0.0037195864617365635
aF0.0037832340508660188
aF0.0038471928802343747
aF0.003911480927759549
aF0.003976115851674388
aF0.0040411150155922875
aF0.0041064955117482566
aF0.0041722741825909095
aF0.004238467640881319
aF0.004305092288437468
aF0.00437216433364821
aF0.004439699807867189
aF0.004507714580786093
aF0.004576224374876145
aF0.004645244778977709
aF0.004714791261110254
assS'g6.96e11'
p29
(dp30
g3
(lp31
F0.0
aF0.0
aF0.0
aF0.0
aF0.0
aF0.0
aF0.0
aF0.0
aF0.0
aF0.0
aF0.0
aF0.0
aF0.0
aF0.0
aF0.0
aF0.0
aF0.0
aF0.0
aF0.0
aF0.0
aF0.0
aF0.0
aF0.0
aF0.0
aF0.0
aF0.0
aF0.0
aF0.0
aF0.0
aF0.0
aF0.0
aF0.0
aF0.0
aF0.0
aF0.0
aF0.0
aF0.0
aF0.0
aF0.0
aF0.0
aF0.0
aF0.0
aF0.0
aF0.0
aF0.0
aF0.0
aF0.0
aF0.0
aF0.0
aF0.0
aF0.0
aF0.0
aF0.0
aF0.0
aF0.0
aF0.0
aF0.0
aF0.0
aF0.0
aF0.0
aF0.0
asg5
(lp32
F0.106599799428159
aF0.2965796399931948
aF0.08654637181296077
aF0.23853024426498942
aF0.30924496269753055
aF0.1266532270433572
aF0.21531048597370728
aF0.14354032398247152
aF0.17836996141939476
aF0.242752018499768
aF0.1234868963672733
aF0.08443548469557148
aF0.12770867060205185
aF0.49605847258648245
aF0.44328629465175023
aF0.3979022216278806
aF0.5878820621929164
aF0.5034465774973449
aF0.6058246026907254
aF0.7905272254622879
aF0.5678286345777183
aF0.9298457752099809
aF0.6227116996298396
aF0.7556975880253646
aF0.9509546463838738
aF2.2660373205173996
aF2.5277873230736714
aF3.8956421751419295
aF2.539397202219312
aF3.701440560342114
aF3.1673861196426247
aF1.9557369142611745
aF3.4914072921618806
aF0.9688971868816827
aF2.51617744392803
aF2.1721028437935765
aF1.7150957828787958
aF2.394801434678146
aF2.0275070762524097
aF1.1240473900097954
aF1.1757641243858328
aF3.130445595088312
aF2.08661191553931
aF3.5135716068944682
aF4.410687200780342
aF3.3825650976337247
aF2.1034990124784243
aF3.708828665252977
aF2.672383090614837
aF0.6227116996298396
aF0.8264123064579058
aF0.6723175468884879
aF1.192651221324947
aF0.5467197634038253
aF0.6227116996298396
aF0.22586492156065371
aF0.050661290817342886
aF0.1044889123107697
aF0.17731451786070013
aF0.0010554435586946434
aF0.013720766263030365
asg7
(lp33
F15119076.026325654
aF69795032.04941872
aF96114625.66093206
aF135648086.60622105
aF178869372.76876503
aF216416090.50511348
aF263309286.72948712
aF128798964.04592247
aF149993544.32191133
aF185411921.76056024
aF219022894.53214854
aF257252372.6217123
aF286146685.60410094
aF372971610.45329285
aF480406192.1946225
aF582747595.0565021
aF661839364.0765501
aF743260143.780355
aF866788474.830423
aF975395686.784534
aF1072796769.6343483
aF1185430713.007732
aF1348787263.7252102
aF1424534807.285466
aF1727654157.331356
aF2165607656.3215537
aF2586467743.8545036
aF3127562007.5416274
aF3525303481.6912155
aF3967152845.514277
aF4300900202.415564
aF4501822924.75774
aF4936179573.765003
aF5132896489.789036
aF5412807560.34281
aF5720777828.855102
aF5872554364.602336
aF6235514248.6078
aF6356262531.957608
aF6606531932.798882
aF6884277034.8448925
aF7212608486.325117
aF7493901779.146826
aF10161119574.454514
aF11054347493.439484
aF10375131971.630241
aF10899983714.670794
aF11296888763.465153
aF11386853936.962008
aF11421709732.755642
aF11644989780.95684
aF12657605662.579473
aF12917495420.930864
aF11976909719.009876
aF12166763930.517393
aF12467472004.893368
aF12622037900.464842
aF12428792062.573923
aF12356365977.892784
aF12380963565.118578
aF12367222088.61252
asg9
(lp34
F0.0006493279631563905
aF0.0007517670329420299
aF0.0008477971982406683
aF0.000938842419690319
aF0.0010258674939513264
aF0.0011095656395524601
aF0.0011904571428480839
aF0.001268945914604129
aF0.0013453541050645387
aF0.0014199444051819906
aF0.0014929350223032726
aF0.001564510086545248
aF0.0016348270928902146
aF0.0017040223554380307
aF0.0017722150902644853
aF0.0018395105286445126
aF0.0019060023298138084
aF0.001971774478035484
aF0.0020369027935475616
aF0.0021014561500142686
aF0.0021654974658337905
aF0.0022290845190420373
aF0.0022922706230633968
aF0.002355105191523616
aF0.0024176342141006423
aF0.0024799006593660736
aF0.002541944819247279
aF0.0026038046040809345
aF0.002665515797437745
aF0.002727112277107124
aF0.0027886262076908044
aF0.0028500882092140625
aF0.0029115275053720564
aF0.0029729720543976174
aF0.0030344486650299702
aF0.0030959830996539987
aF0.003157600166346101
aF0.0032193238012925194
aF0.0032811771428146626
aF0.003343182598062219
aF0.003405361903269738
aF0.00346773617835039
aF0.003530325976490836
aF0.0035931513293208533
aF0.0036562317881547427
aF0.0037195864617365635
aF0.0037832340508660188
aF0.0038471928802343747
aF0.003911480927759549
aF0.003976115851674387
aF0.0040411150155922875
aF0.004106495511748258
aF0.0041722741825909095
aF0.004238467640881319
aF0.004305092288437468
aF0.00437216433364821
aF0.004439699807867189
aF0.004507714580786093
aF0.004576224374876145
aF0.004645244778977709
aF0.004714791261110254
assS'g2.19e11'
p35
(dp36
g3
(lp37
F3.595906673044489
aF2.5044983646771204
aF2.3204055341209258
aF2.1580686303657295
aF2.01358955858286
aF1.883969369980917
aF1.766859980483272
aF1.6603944899299394
aF1.5630683748162801
aF1.4736545109946961
aF1.3911412352835413
aF1.3146864327771066
aF1.2435829846263102
aF1.1772324075636686
aF1.1151244920657106
aF1.056821395202224
aF1.001945084270368
aF0.9501673303644187
aF0.9012016643906815
aF0.8547968568831767
aF0.810731593960949
aF0.7688100988343307
aF0.7288585074728573
aF0.6907218501021457
aF0.6542615228075603
aF0.619353158234319
aF0.5858848232818783
aF0.5537554862750533
aF0.5228737074298768
aF0.4931565153057902
aF0.46452843892788787
aF0.4369206708132438
aF0.41027034055606837
aF0.38451988218441935
aF0.3596164813648439
aF0.33551159085792337
aF0.3121605045233309
aF0.2895219817258434
aF0.26755791527134787
aF0.24623303705755828
aF0.22551465650016955
aF0.20537242752475993
aF0.1857781405249741
aF0.16670553619946937
aF0.14813013861132895
aF0.13002910517796407
aF0.11238109160837317
aF0.09516613006722774
aF0.07836551906918454
aF0.0619617237984591
aF0.04593828571287295
aF0.030279740432948676
aF0.01497154303845405
aF1.5765166949677223e-14
asg5
(lp38
Fnan
aFnan
aF0.014248488042377688
aF0.030475932757307832
aF0.005673009127983709
aF0.012665322704335721
aF0.09433026805833376
aF0.009894783362762283
aF0.06926348353933598
aF0.14103364553057174
aF0.11082157366293754
aF0.16332989070799606
aF0.20356867638322934
aF0.07599193622601433
aF0.17322467407075837
aF0.08760181537165541
aF0.059764491511084185
aF0.0788944060124246
aF0.040502646564906944
aF0.07520035355699334
aF0.06121572640428932
aF0.12190373102923133
aF0.01781061005297211
aF0.25238294097285663
aF0.05422341282793731
aF0.09010849382355518
aF0.14881754177594472
aF0.25475768897991957
aF0.27520690792962826
aF0.36241293196677327
aF0.15976776869740167
aF0.08760181537165541
aF0.2695338988016446
aF0.29117049175488474
aF0.07480456222248286
aF0.24143271405139968
aF0.25660471520763517
aF0.2869487175201062
aF0.10158644252435943
aF0.18166822254031553
aF0.173488534960432
aF0.1794254049780894
aF0.1566014380213177
aF0.1391866193028561
aF0.213199598856318
aF0.0948579898376811
aF0.1314027230574831
aF0.3207229113983348
aF0.10264188608305408
aF0.1964444323620405
aF0.12177180058439449
aF0.18496648366123628
aF0.19063949278921996
aF0.14406804576181884
asg7
(lp39
F21613159.333148696
aF15866559.627038497
aF18421585.172659915
aF24410257.538849134
aF24768475.51910824
aF28875630.326588906
aF53165043.456592634
aF59273196.046254285
aF76627403.80007431
aF132449917.60546984
aF96140325.62417498
aF151722612.1252651
aF174566883.74627736
aF195208317.2247938
aF210647014.24536783
aF228650790.68120274
aF232241132.50553757
aF245491463.86862716
aF255851781.69867355
aF266245567.3996623
aF287057325.4888639
aF294972708.36774385
aF301893922.5316157
aF371672061.3404637
aF335010611.73437566
aF363365552.6701768
aF390280447.50003034
aF466890428.98540765
aF496280633.0311329
aF555696166.4560059
aF569349281.8966037
aF585524275.950741
aF633964025.7654545
aF666816408.6604931
aF678863861.6443096
aF707907802.9768217
aF750222737.4407045
aF773825377.9248418
aF794538081.810755
aF822761926.2903013
aF842473652.0553762
aF875221686.5567561
aF899740172.0451688
aF917396682.7217156
aF942158445.489891
aF970285253.6426467
aF981808154.4543669
aF1024503325.8498346
aF1030581782.5205535
aF1055041198.7412755
aF1061243151.503737
aF1087021450.5740771
aF1102174535.8334448
aF1114025021.6431916
asg9
(lp40
F1.7433955012426607
aF2.606473148046936
aF2.8222425597478225
aF3.03801197144886
aF3.253781383149898
aF3.469550794850935
aF3.68532020655197
aF3.9010896182530144
aF4.116859029954047
aF4.332628441655086
aF4.548397853356121
aF4.76416726505716
aF4.9799366767582
aF5.195706088459233
aF5.411475500160272
aF5.6272449118613
aF5.8430143234196965
aF6.058783735263374
aF6.274553146964404
aF6.490322558665462
aF6.706091970366524
aF6.921861382067592
aF7.13763079376867
aF7.353400205469769
aF7.569169617170884
aF7.784939028872027
aF8.000708440573206
aF8.216477852274423
aF8.432247263975684
aF8.648016675675684
aF8.863786087376704
aF9.079555499077735
aF9.295324910778769
aF9.511094322479797
aF9.726863734180817
aF9.942633145881851
aF10.15840255758288
aF10.374171969283916
aF10.589941380984925
aF10.805710792685963
aF11.021480204386982
aF11.237249616088
aF11.453019027789026
aF11.668788439490053
aF11.884557851191078
aF12.100327262892105
aF12.316096674593146
aF12.531866086294151
aF12.747635497995192
aF12.963404909696264
aF13.179174321397273
aF13.394943733098305
aF13.610713144799337
aF13.826482556500364
assS'g1.12e12'
p41
(dp42
g3
(lp43
F6.261032218898561
aF5.271612154445051
aF4.561225338906955
aF4.021919719675131
aF3.595906673044489
aF3.249222482242713
aF2.9604880271712473
aF2.71551790099832
aF2.504498364677121
aF2.3204055341209258
aF2.158068630365731
aF2.013589558582861
aF1.8839693699809175
aF1.7668599804832716
aF1.6603944899299399
aF1.5630683748162806
aF1.4736545109946966
aF1.3911412352835417
aF1.3146864327771066
aF1.2435829846263102
aF1.1772324075636686
aF1.1151244920657106
aF1.056821395202224
aF1.001945084270368
aF0.9501673303644187
aF0.9012016643906815
aF0.8547968568831767
aF0.810731593960949
aF0.7688100988343307
aF0.7288585074728573
aF0.6907218501021457
aF0.6542615228075603
aF0.619353158234319
aF0.5858848232818783
aF0.5537554862750533
aF0.5228737074298768
aF0.4931565153057902
aF0.46452843892788787
aF0.4369206708132438
aF0.41027034055606837
aF0.38451988218441935
aF0.3596164813648439
aF0.33551159085792337
aF0.3121605045233309
aF0.2895219817258434
aF0.26755791527134787
aF0.24623303705755828
aF0.22551465650016955
aF0.20537242752475993
aF0.1857781405249741
aF0.16670553619946937
aF0.14813013861132895
aF0.13002910517796407
aF0.11238109160837317
aF0.09516613006722774
aF0.07836551906918454
aF0.0619617237984591
aF0.04593828571287295
aF0.030279740432948676
aF0.01497154303845405
aF1.5765166949677223e-14
asg5
(lp44
Fnan
aF0.5361653278168789
aF0.9256240009752024
aF1.1240473900097954
aF3.8196502389159144
aF3.122002046618755
aF3.5790091075335355
aF3.16633067608393
aF4.32098592929587
aF6.041358929968138
aF8.288398266429034
aF13.134995087954838
aF17.181565691990098
aF21.706865525900678
aF20.497377964038467
aF19.489822463074244
aF18.642855196199495
aF18.329402122266586
aF16.175239112204757
aF9.636702078670673
aF4.71847705969635
aF1.8543120108598858
aF1.3752429569791205
aF0.6712621033297932
aF0.17625907430200546
aF0.0
aF0.0
aF0.0
aF0.0
aF0.0654375006390679
aF0.0
aF0.05171673437603753
aF0.0
aF0.0
aF0.0
aF0.0
aF0.0
aF0.0
aF0.0
aF0.006332661352167861
aF0.0010554435586946434
aF0.0
aF0.0052772177934732175
aF0.009498992028251791
aF0.0
aF0.06860383131515183
aF0.0
aF0.0
aF0.0
aF0.0
aF0.0
aF0.0
aF0.0
aF0.0
aF0.0
aF0.0
aF0.0
aF0.0
aF0.0
aF0.0
aF0.0
asg7
(lp45
F101441662.86100647
aF246685818.08263415
aF366887817.678714
aF542793571.6510714
aF974039700.2088443
aF1453476657.809516
aF2063263311.9053032
aF2559711545.156953
aF3214490543.6422763
aF4076829235.827123
aF5717604453.293852
aF7485127885.910201
aF10318534575.869886
aF13555928509.61692
aF16540155931.835794
aF19291786999.891888
aF21934955252.081985
aF24634031192.109966
aF26819228065.565784
aF28068672603.237095
aF28558496644.19264
aF28611667180.378746
aF28558680353.10295
aF28472951095.768696
aF28233707421.37315
aF28058843146.532135
aF27889719751.871067
aF27753305848.43471
aF27627339412.46615
aF28092389249.753666
aF27427616958.765923
aF27348952825.139236
aF27401305959.312096
aF27248817156.957268
aF27213852692.821594
aF27176228353.553493
aF27109328990.185787
aF27035278617.620125
aF26978199501.684334
aF26945569862.94012
aF26916702960.38508
aF26852849042.37958
aF26808921830.547493
aF26775368952.23867
aF26729033194.10014
aF26685312436.999012
aF26643244059.85693
aF26627552994.02412
aF26576826134.45531
aF26512820497.901524
aF26507628785.824604
aF26490685903.793354
aF26450869721.347115
aF26425594088.311172
aF26408935144.650993
aF26401337216.425724
aF26377798708.021347
aF26354605288.366875
aF26350529659.089767
aF26340640134.228985
aF26337593254.43051
asg9
(lp46
F0.8803178544385206
aF1.0960872661395555
aF1.3118566778405905
aF1.5276260895416252
aF1.7433955012426607
aF1.959164912943703
aF2.1749343246447546
aF2.390703736345835
aF2.606473148046933
aF2.8222425597478225
aF3.0380119714488574
aF3.253781383149897
aF3.4695507948509334
aF3.6853202065519723
aF3.90108961825301
aF4.116859029954044
aF4.332628441655085
aF4.548397853356118
aF4.76416726505716
aF4.9799366767582
aF5.195706088459233
aF5.411475500160272
aF5.6272449118613
aF5.8430143234196965
aF6.058783735263374
aF6.274553146964404
aF6.490322558665462
aF6.706091970366524
aF6.921861382067592
aF7.13763079376867
aF7.353400205469769
aF7.569169617170884
aF7.784939028872027
aF8.000708440573206
aF8.216477852274423
aF8.432247263975684
aF8.648016675675684
aF8.863786087376704
aF9.079555499077735
aF9.295324910778769
aF9.511094322479797
aF9.726863734180817
aF9.942633145881851
aF10.15840255758288
aF10.374171969283916
aF10.589941380984925
aF10.805710792685963
aF11.021480204386982
aF11.237249616088
aF11.453019027789026
aF11.668788439490053
aF11.884557851191078
aF12.100327262892105
aF12.316096674593146
aF12.531866086294151
aF12.747635497995192
aF12.963404909696264
aF13.179174321397273
aF13.394943733098305
aF13.610713144799337
aF13.826482556500364
assS'g1.05e11'
p47
(dp48
g3
(lp49
F0.0
aF0.0
aF0.0
aF0.0
aF0.0
aF0.0
aF0.0
aF0.0
aF0.0
aF0.0
aF0.0
aF0.0
aF0.0
aF0.0
aF0.0
aF0.0
aF0.0
aF0.0
aF0.0
aF0.0
aF0.0
aF0.0
aF0.0
aF0.0
aF0.0
aF0.0
aF0.0
aF0.0
aF0.0
aF0.0
aF0.0
aF0.0
aF0.0
aF0.0
aF0.0
aF0.0
aF0.0
aF0.0
aF0.0
aF0.0
aF0.0
aF0.0
aF0.0
aF0.0
aF0.0
aF0.0
aF0.0
aF0.0
aF0.0
aF0.0
aF0.0
aF0.0
aF0.0
aF0.0
aF0.0
aF0.0
aF0.0
aF0.0
aF0.0
aF0.0
aF0.0
asg5
(lp50
F0.006068800462494202
aF0.016887096939114294
aF0.010158644252435945
aF0.010950226921456927
aF0.051980595265711194
aF0.05118901259669021
aF0.0182064013874826
aF0.005541078683146879
aF0.007388104910862504
aF0.020185358060035057
aF0.07427684044313553
aF0.05923676973173686
aF0.0006596522241841522
aF0.006068800462494202
aF0.07506842311215652
aF0.07797089289856678
aF0.045911794803217
aF0.031003654536655153
aF0.004749496014125896
aF0.022032384287750683
aF0.027309602081223905
aF0.02176852339807702
aF0.02744153252606073
aF0.02387941051546631
aF0.04261353368229623
aF0.059500630621410526
aF0.057389743504021234
aF0.0593687001765737
aF0.04657144702740114
aF0.023615549625792646
aF0.07493649266731968
aF0.07045085754286745
aF0.000923513113857813
aF0.0010554435586946434
aF0.054487273717610966
aF0.02467099318448729
aF0.024407132294813626
aF0.055806578165979275
aF0.10435698186593287
aF0.06688873553227302
aF0.0963092247308862
aF0.16649622138408
aF0.23839831382015259
aF0.1105577127732639
aF0.036940524554312515
aF0.091823589606434
aF0.19670829325171416
aF0.07454070133280918
aF0.1716415087327164
aF0.10791910387652731
aF0.10673172987299583
aF0.11900126124282105
aF0.024011340960303138
aF0.06293082218716811
aF0.13404133195421972
aF0.15079649844849716
aF0.016623236049440635
aF0.036544733219802034
aF0.00870740935923081
aF0.04274546412713306
aF0.07612386667085116
asg7
(lp51
F1373773.9691000408
aF4287440.643750371
aF1933357.5326514698
aF4234323.394303603
aF13018435.116431061
aF17132255.755367335
aF13489086.893249268
aF15581438.409595598
aF18555752.94367871
aF28553447.063517045
aF49055848.253541395
aF45707749.37577753
aF46520004.57867621
aF50210294.86688577
aF69227887.2419033
aF71137435.46612395
aF76508879.92050892
aF85102950.0514341
aF84918174.27688451
aF92544031.9153719
aF93614328.21878545
aF99511221.06345451
aF106165860.79883349
aF109513586.87583089
aF115960057.31813765
aF122177711.40531299
aF126891913.56837499
aF133269805.43456167
aF136457862.31038958
aF139569128.12897167
aF147604927.5415974
aF153533432.34467396
aF156477893.34748912
aF4103568.5104140514
aF265270292.83887124
aF240481227.84895295
aF173968440.8430373
aF215320764.190868
aF302511302.5655028
aF336601845.9010823
aF339849473.4798668
aF358017947.50082433
aF394180087.5191118
aF403102921.9133604
aF411720292.2256632
aF439157687.4387305
aF453787639.3995145
aF460261532.05955803
aF475510097.8194119
aF484958327.8697742
aF497479942.28865725
aF509451788.86907375
aF519434682.83268344
aF535050516.12398076
aF545270972.0699542
aF557816634.094363
aF556714711.3460504
aF568085285.5957041
aF574362115.4364517
aF586569257.3070132
aF592747035.1611505
asg9
(lp52
F0.0006493279631563905
aF0.0007517670329420299
aF0.000847797198240668
aF0.0009388424196903187
aF0.0010258674939513264
aF0.0011095656395524601
aF0.0011904571428480839
aF0.001268945914604129
aF0.0013453541050645389
aF0.0014199444051819904
aF0.0014929350223032726
aF0.001564510086545248
aF0.0016348270928902146
aF0.0017040223554380307
aF0.0017722150902644849
aF0.0018395105286445126
aF0.0019060023298138084
aF0.0019717744780354844
aF0.0020369027935475616
aF0.0021014561500142686
aF0.0021654974658337905
aF0.0022290845190420373
aF0.002292270623063398
aF0.002355105191523616
aF0.0024176342141006423
aF0.0024799006593660723
aF0.002541944819247279
aF0.0026038046040809345
aF0.002665515797437745
aF0.002727112277107124
aF0.0027886262076908036
aF0.0028500882092140625
aF0.0029115275053720564
aF0.0029729720543976174
aF0.0030344486650299702
aF0.0030959830996539987
aF0.003157600166346101
aF0.00321932380129252
aF0.003281177142814663
aF0.003343182598062219
aF0.00340536190326974
aF0.00346773617835039
aF0.003530325976490836
aF0.0035931513293208546
aF0.0036562317881547427
aF0.0037195864617365635
aF0.0037832340508660188
aF0.0038471928802343747
aF0.003911480927759549
aF0.003976115851674388
aF0.0040411150155922875
aF0.0041064955117482566
aF0.0041722741825909095
aF0.004238467640881319
aF0.004305092288437468
aF0.00437216433364821
aF0.004439699807867189
aF0.004507714580786093
aF0.004576224374876145
aF0.004645244778977709
aF0.004714791261110254
assS'g5.55e11'
p53
(dp54
g3
(lp55
F0.0
aF0.0
aF0.0
aF0.0
aF0.0
aF0.0
aF0.0
aF0.0
aF0.0
aF0.0
aF0.0
aF0.0
aF0.0
aF0.0
aF0.0
aF0.0
aF0.0
aF0.0
aF0.0
aF0.0
aF0.0
aF0.0
aF0.0
aF0.0
aF0.0
aF0.0
aF0.0
aF0.0
aF0.0
aF0.0
aF0.0
aF0.0
aF0.0
aF0.0
aF0.0
aF0.0
aF0.0
aF0.0
aF0.0
aF0.0
aF0.0
aF0.0
aF0.0
aF0.0
aF0.0
aF0.0
aF0.0
aF0.0
aF0.0
aF0.0
aF0.0
aF0.0
aF0.0
aF0.0
aF0.0
aF0.0
aF0.0
aF0.0
aF0.0
aF0.0
aF0.0
aF0.0
aF0.0
asg5
(lp56
F0.004749496014125896
aF0.03760017677849667
aF0.04789075147576945
aF0.08298424980236634
aF0.15752495113517553
aF0.5366930495962262
aF0.4885384372307831
aF0.5409148238310048
aF0.4634716527117853
aF0.4480357906658761
aF0.5564826163217508
aF0.6509448148249213
aF0.40608190920776405
aF0.29275365709292667
aF0.5289091533508532
aF0.627197334754292
aF0.29816280533123674
aF0.4508063300074495
aF0.32837487719887093
aF0.2015897197106769
aF0.3300899729817497
aF0.31610534582904576
aF0.367294358425736
aF0.5101750301840232
aF0.7163823154639893
aF0.792770043024514
aF0.7816878856582202
aF1.0828850912207042
aF1.2210162669648656
aF0.5855073141858533
aF1.2914671245077332
aF1.3132356479058103
aF1.571687389341161
aF1.405059237512244
aF1.4206270300029902
aF1.752827890102129
aF1.2546585303982574
aF1.596490312970485
aF1.9930732301499972
aF2.1314682667838323
aF1.8652245167626398
aF2.0553444001129813
aF3.801443837528432
aF6.804409803872458
aF3.337698840729147
aF3.547855807256279
aF3.230922649275942
aF3.265501439805376
aF4.01495215615457
aF3.6412073289961575
aF2.9342409408387446
aF2.548364719400346
aF2.8417263189737607
aF2.319069671684045
aF2.534453179324504
aF2.6624189138642174
aF1.9016910111053624
aF2.7064630422366043
aF2.4813015307579525
aF2.876948170209811
aF2.4622992146685543
aF2.523573534970004
aF1.7442611989946766
asg7
(lp57
F589883.7856511469
aF8487759.091880284
aF17050854.22571922
aF29989115.054768503
aF50991161.15806794
aF115654796.16389923
aF195005283.76582938
aF267040856.26126087
aF333346767.40677977
aF414895531.18663746
aF499910599.33759344
aF575290372.714449
aF632861503.7635553
aF677306143.8799868
aF742858853.3507959
aF813371088.7095573
aF856484017.130063
aF915747213.5462761
aF777578799.2539742
aF818195064.75455
aF865401937.6352143
aF918627373.5950481
aF974419122.8109899
aF1027841728.5075939
aF1133195263.946465
aF1446410801.606785
aF1430262223.0427606
aF1695778312.3726752
aF1875268958.676569
aF1998402672.7815795
aF2247243094.558998
aF2414776048.638518
aF2672564817.004115
aF2872891022.6125283
aF3044870352.9316425
aF3307998040.801644
aF3477169433.7028856
aF4201102612.4877048
aF5248575244.641353
aF4216793587.5644455
aF4408060757.770523
aF4657391390.819464
aF6858493702.389453
aF7827728982.845264
aF8254632034.0745945
aF8936096201.405611
aF9447164666.636246
aF9935705080.618572
aF10492893107.238945
aF10903750622.021582
aF11336932212.024895
aF11661119223.604097
aF11996278959.617176
aF12307082860.64018
aF12607360049.664501
aF12956398697.56101
aF13223962451.590675
aF13559654145.860842
aF13902463691.696655
aF14226858169.173277
aF14536988389.055489
aF14837872085.923733
aF15043327539.20886
asg9
(lp58
F0.00041418339531783407
aF0.0005381944711023687
aF0.0006493279631563905
aF0.0007517670329420299
aF0.000847797198240668
aF0.0009388424196903187
aF0.0010258674939513264
aF0.0011095656395524601
aF0.0011904571428480839
aF0.001268945914604129
aF0.0013453541050645389
aF0.0014199444051819904
aF0.0014929350223032726
aF0.001564510086545248
aF0.0016348270928902146
aF0.0017040223554380307
aF0.0017722150902644849
aF0.0018395105286445126
aF0.0019060023298138084
aF0.0019717744780354844
aF0.0020369027935475616
aF0.0021014561500142686
aF0.0021654974658337905
aF0.0022290845190420373
aF0.002292270623063398
aF0.002355105191523616
aF0.0024176342141006423
aF0.0024799006593660723
aF0.002541944819247279
aF0.0026038046040809345
aF0.002665515797437745
aF0.002727112277107124
aF0.0027886262076908036
aF0.0028500882092140625
aF0.0029115275053720564
aF0.0029729720543976174
aF0.0030344486650299702
aF0.0030959830996539987
aF0.003157600166346101
aF0.00321932380129252
aF0.003281177142814663
aF0.003343182598062219
aF0.00340536190326974
aF0.00346773617835039
aF0.003530325976490836
aF0.0035931513293208546
aF0.0036562317881547427
aF0.0037195864617365635
aF0.0037832340508660188
aF0.0038471928802343747
aF0.003911480927759549
aF0.003976115851674388
aF0.0040411150155922875
aF0.0041064955117482566
aF0.0041722741825909095
aF0.004238467640881319
aF0.004305092288437468
aF0.00437216433364821
aF0.004439699807867189
aF0.004507714580786093
aF0.004576224374876145
aF0.004645244778977709
aF0.004714791261110254
assS'g2.79e12'
p59
(dp60
g3
(lp61
F7.760385909303661
aF6.261032218898559
aF5.271612154445051
aF4.561225338906955
aF4.021919719675131
aF3.595906673044489
aF3.249222482242713
aF2.9604880271712473
aF2.71551790099832
aF2.504498364677121
aF2.3204055341209258
aF2.158068630365731
aF2.013589558582861
aF1.8839693699809175
aF1.7668599804832716
aF1.6603944899299399
aF1.5630683748162806
aF1.4736545109946966
aF1.3911412352835417
aF1.3146864327771066
aF1.2435829846263102
aF1.1772324075636686
aF1.1151244920657106
aF1.0568213952022236
aF1.001945084270368
aF0.9501673303644187
aF0.9012016643906815
aF0.8547968568831767
aF0.810731593960949
aF0.7688100988343307
aF0.7288585074728573
aF0.6907218501021457
aF0.6542615228075603
aF0.619353158234319
aF0.5858848232818783
aF0.5537554862750533
aF0.5228737074298768
aF0.4931565153057902
aF0.46452843892788787
aF0.4369206708132438
aF0.41027034055606837
aF0.38451988218441935
aF0.3596164813648439
aF0.33551159085792337
aF0.3121605045233291
aF0.2895219817258434
aF0.26755791527134565
aF0.2462330370575576
aF0.225514656500168
aF0.2053724275247586
aF0.185778140524973
aF0.16670553619946804
aF0.14813013861132673
aF0.1300291051779625
aF0.11238109160837184
aF0.09516613006722618
aF0.07836551906918254
aF0.0619617237984591
aF0.04593828571287162
aF0.030279740432946678
aF0.014971543038452717
aF1.4654943925052066e-14
asg5
(lp62
Fnan
aFnan
aFnan
aFnan
aFnan
aFnan
aFnan
aFnan
aFnan
aFnan
aFnan
aFnan
aFnan
aFnan
aFnan
aFnan
aFnan
aFnan
aFnan
aFnan
aFnan
aFnan
aFnan
aFnan
aFnan
aFnan
aFnan
aFnan
aFnan
aF4.176304558221155
aF9.922865191216218
aF5.773107888155782
aF5.352020478441403
aF0.0
aF0.0
aF0.0
aF0.0
aF0.0
aF0.0
aF0.0
aF0.0
aF0.0
aF0.0
aF0.0
aFnan
aF0.0
aF1.6032187656571633
aF1.7034859037331544
aF1.6749889276483991
aF1.7245947749070478
aF1.605280637891482
aF1.5851546006710868
aF2.0496713909849973
aF1.2517238661839432
aF1.0615952380300924
aF1.0016159372012168
aF1.3699657391856475
aF1.4786764257311955
aF1.0743626904507086
aF2.1129384324277667
aF1.253702899576273
aF1.0469717165136494
asg7
(lp63
F27218142.11238412
aF155037612.01946646
aF474107291.26340747
aF1309911421.1697876
aF2366633156.623529
aF3925262763.6929793
aF5955334663.333966
aF7674266609.356303
aF11723824209.20127
aF16794057414.998558
aF22701463423.221764
aF27834800873.72939
aF35550053055.60348
aF40701076805.7671
aF47024795898.47644
aF52076972343.37002
aF56698574988.158035
aF60174125503.77167
aF62980711731.28689
aF65566647309.24479
aF67182403193.912895
aF68826287094.91391
aF70267087118.25082
aF71310557951.12143
aF71751432004.6632
aF72085384714.50372
aF72499950009.01245
aF72856491187.24762
aF73260660011.27611
aF73664934553.91798
aF79837083057.78246
aF74567611396.59488
aF74856617761.16235
aF75600027545.44583
aF77340677822.74461
aF80504620504.01332
aF78660562883.99353
aF80287450202.7864
aF81976436230.08292
aF81752994037.04012
aF82221577826.996
aF82384658797.02377
aF82808531285.35774
aF82734271458.19278
aF82796065095.88307
aF82646025347.92921
aF83287108324.18956
aF83047262909.19884
aF83156581254.68102
aF83704240862.03233
aF83848813254.05325
aF83871907432.4325
aF84006311659.54391
aF84215759351.80002
aF84355352155.99825
aF84537462533.70152
aF84588342623.6097
aF84888469915.87886
aF85042302656.81358
aF85399559459.43773
aF85479096223.19084
aF85506941509.91154
asg9
(lp64
F0.6645484427374854
aF0.8803178544385202
aF1.0960872661395555
aF1.3118566778405905
aF1.5276260895416252
aF1.7433955012426607
aF1.959164912943703
aF2.1749343246447546
aF2.390703736345835
aF2.606473148046933
aF2.8222425597478225
aF3.0380119714488574
aF3.253781383149897
aF3.4695507948509334
aF3.6853202065519723
aF3.90108961825301
aF4.116859029954044
aF4.332628441655085
aF4.548397853356118
aF4.76416726505716
aF4.9799366767582
aF5.195706088459233
aF5.411475500160272
aF5.6272449118613
aF5.8430143234196965
aF6.058783735263374
aF6.274553146964404
aF6.490322558665462
aF6.706091970366524
aF6.921861382067592
aF7.13763079376867
aF7.353400205469769
aF7.569169617170884
aF7.784939028872027
aF8.000708440573206
aF8.216477852274423
aF8.432247263975684
aF8.648016675675684
aF8.863786087376704
aF9.079555499077735
aF9.295324910778769
aF9.511094322479797
aF9.726863734180817
aF9.942633145881851
aF10.158402557582884
aF10.374171969283916
aF10.589941380984952
aF10.805710792685968
aF11.021480204386991
aF11.237249616088018
aF11.453019027789033
aF11.668788439490074
aF11.884557851191108
aF12.100327262892122
aF12.316096674593162
aF12.531866086294169
aF12.747635497995228
aF12.963404909696264
aF13.179174321397301
aF13.394943733098321
aF13.610713144799359
aF13.826482556500375
assS'g2.64e10'
p65
(dp66
g3
(lp67
sg5
(lp68
sg7
(lp69
sg9
(lp70
ssS'g2.39e11'
p71
(dp72
g3
(lp73
F0.0
aF0.0
aF0.0
aF0.0
aF0.0
aF0.0
aF0.0
aF0.0
aF0.0
aF0.0
aF0.0
aF0.0
aF0.0
aF0.0
aF0.0
aF0.0
aF0.0
aF0.0
aF0.0
aF0.0
aF0.0
aF0.0
aF0.0
aF0.0
aF0.0
aF0.0
aF0.0
aF0.0
aF0.0
aF0.0
aF0.0
aF0.0
aF0.0
aF0.0
aF0.0
aF0.0
aF0.0
aF0.0
aF0.0
aF0.0
aF0.0
aF0.0
aF0.0
aF0.0
aF0.0
aF0.0
aF0.0
aF0.0
aF0.0
aF0.0
aF0.0
aF0.0
aF0.0
aF0.0
aF0.0
aF0.0
aF0.0
aF0.0
aF0.0
aF0.0
aF0.0
aF0.0
asg5
(lp74
F0.003430191565757592
aF0.030344002312471
aF0.031531376316002474
aF0.013324974928519875
aF0.03469770699208641
aF0.04868233414479042
aF0.10857875610071145
aF0.2273161564538588
aF0.10132258163468577
aF0.10343346875207506
aF0.2370790093717843
aF0.17889768319874208
aF0.40832472676999015
aF0.04340511635131721
aF0.1886605361166675
aF0.07665158845019848
aF0.28299080417500133
aF0.16332989070799606
aF0.24037727049270502
aF0.1918268667927514
aF0.31795237205676136
aF0.20884589417670257
aF0.1733566045155952
aF0.29763508355188945
aF0.22692036511934832
aF0.2099013377353972
aF0.22494140844679586
aF0.05264024748989535
aF0.17493976985363716
aF0.2328572351370057
aF0.08417162380589781
aF0.07612386667085116
aF0.5299645969095478
aF0.4624162091530906
aF0.34288722613092226
aF1.0987167446011237
aF2.1780397138112337
aF1.3261648314998196
aF0.8992379120078361
aF0.6828719824754342
aF0.7798408594305046
aF0.9400044194624168
aF0.7993665652663555
aF0.802137104607929
aF1.0392161139797131
aF1.2076912920363458
aF0.6994952185248751
aF0.6902600873862969
aF1.1849906455482675
aF1.323779171250495
aF0.9591327214865125
aF1.1165018048512838
aF1.2488459232254403
aF1.3438013403305211
aF1.109385452470873
aF1.1295536620380406
aF1.2159634513647135
aF1.0738706951811445
aF1.249299071882352
aF0.8627774495737579
aF1.153288892411415
aF1.0366056772127579
asg7
(lp75
F751468.6509876876
aF4054347.330577102
aF8655102.20017473
aF4949999.3515420165
aF7993847.186424224
aF18155259.496935073
aF51262416.25234592
aF90263590.90371257
aF123319139.07013914
aF147011599.95336574
aF197625033.9251531
aF252604568.31599253
aF304885317.9260676
aF186489916.18324873
aF214266182.20836508
aF232238639.20795816
aF275801263.3327762
aF298556188.35231584
aF334021406.12815356
aF366323558.7634718
aF408146869.08284634
aF432783966.2892527
aF455880779.86851615
aF483903692.2015396
aF522874916.95971483
aF543435281.8575758
aF571467920.3527023
aF578430449.8637778
aF611555441.1572547
aF630871960.4275525
aF654025913.3278404
aF340987771.4251314
aF1579148101.6310687
aF1637867959.0004241
aF1676068998.3687265
aF1846053206.636171
aF2143137925.5838678
aF2325971722.9870453
aF2476944521.15436
aF2602510249.2613297
aF2710986215.681857
aF2837343624.253167
aF2928506864.8587036
aF3042739321.14104
aF3169897547.671627
aF3322784293.3180165
aF3503337355.143811
aF3668239994.208986
aF3814246306.942854
aF3961209691.0753813
aF4105504278.856751
aF4237073842.515242
aF4409418708.809371
aF4564456605.33416
aF4710809209.6198435
aF4876485936.594777
aF5014373062.669258
aF5159233567.31431
aF5323123951.902123
aF5454233515.572296
aF5597244869.305023
aF5721309917.48275
asg9
(lp76
F0.0005381944711023687
aF0.0006493279631563905
aF0.0007517670329420299
aF0.000847797198240668
aF0.0009388424196903187
aF0.0010258674939513264
aF0.0011095656395524601
aF0.0011904571428480839
aF0.001268945914604129
aF0.0013453541050645389
aF0.0014199444051819904
aF0.0014929350223032726
aF0.001564510086545248
aF0.0016348270928902146
aF0.0017040223554380307
aF0.0017722150902644849
aF0.0018395105286445126
aF0.0019060023298138084
aF0.0019717744780354844
aF0.0020369027935475616
aF0.0021014561500142686
aF0.0021654974658337905
aF0.0022290845190420373
aF0.002292270623063398
aF0.002355105191523616
aF0.0024176342141006423
aF0.0024799006593660723
aF0.002541944819247279
aF0.0026038046040809345
aF0.002665515797437745
aF0.002727112277107124
aF0.0027886262076908036
aF0.0028500882092140625
aF0.0029115275053720564
aF0.0029729720543976174
aF0.0030344486650299702
aF0.0030959830996539987
aF0.003157600166346101
aF0.00321932380129252
aF0.003281177142814663
aF0.003343182598062219
aF0.00340536190326974
aF0.00346773617835039
aF0.003530325976490836
aF0.0035931513293208546
aF0.0036562317881547427
aF0.0037195864617365635
aF0.0037832340508660188
aF0.0038471928802343747
aF0.003911480927759549
aF0.003976115851674388
aF0.0040411150155922875
aF0.0041064955117482566
aF0.0041722741825909095
aF0.004238467640881319
aF0.004305092288437468
aF0.00437216433364821
aF0.004439699807867189
aF0.004507714580786093
aF0.004576224374876145
aF0.004645244778977709
aF0.004714791261110254
assS'g7.44e11'
p77
(dp78
g3
(lp79
F0.0
aF0.0
aF0.0
aF0.0
aF0.0
aF0.0
aF0.0
aF0.0
aF0.0
aF0.0
aF0.0
aF0.0
aF0.0
aF0.0
aF0.0
aF0.0
aF0.0
aF0.0
aF0.0
aF0.0
aF0.0
aF0.0
aF0.0
aF0.0
aF0.0
aF0.0
aF0.0
aF0.0
aF0.0
aF0.0
aF0.0
aF0.0
aF0.0
aF0.0
aF0.0
aF0.0
aF0.0
aF0.0
aF0.0
aF0.0
aF0.0
aF0.0
aF0.0
aF0.0
aF0.0
aF0.0
aF0.0
aF0.0
aF0.0
aF0.0
aF0.0
aF0.0
aF0.0
aF0.0
aF0.0
aF0.0
aF0.0
aF0.0
aF0.0
aF0.0
asg5
(lp80
F0.18575806633025724
aF0.03588508099561788
aF0.12032056569118936
aF0.029552419643450026
aF0.20581149394545548
aF0.44434173821044487
aF0.5636068603429396
aF0.42323286703655205
aF0.6005473848972521
aF0.393680447393102
aF0.3187439547257824
aF0.8338004113687684
aF0.3767933504539877
aF0.6163790382776718
aF0.5277217793473217
aF0.33035383387142336
aF0.6754838775645718
aF0.19842338903459295
aF0.6037137155733361
aF0.834855854927463
aF1.0522772280185595
aF0.5235000051125431
aF0.5688840781364128
aF0.08865725893035006
aF0.3757379068952931
aF1.1768195679445272
aF0.6944818616210754
aF1.5420030392528739
aF0.66598488553632
aF1.5588901361919882
aF0.9657308562055987
aF1.0607207764881166
aF0.5235000051125431
aF1.8871330829460224
aF1.6253830803897509
aF1.6201058625962776
aF0.8665191616883023
aF1.9610141320546477
aF0.876018153716554
aF1.426959691355158
aF1.9187925039114164
aF1.474454651496417
aF1.1113820673054597
aF0.9678417433229881
aF1.121936502892406
aF1.831194574335206
aF1.2063719875879773
aF0.5541078683146878
aF0.926679444533897
aF1.4216824735616849
aF2.321975829128215
aF2.034895181163272
aF0.4559516173560859
aF0.4147893185669949
aF0.0654375006390679
aF0.07177016199123576
aF0.10237802519338042
aF0.0
aF0.0010554435586946434
aF0.6575413370667629
asg7
(lp81
F37427218.18141223
aF41976859.837444365
aF58950547.55385457
aF80996994.39518641
aF129052946.02329092
aF191596873.48000032
aF274433888.3342495
aF322991640.1825149
aF398968157.77923393
aF437291410.9547614
aF500156541.77223
aF617353242.4298799
aF677878595.2239561
aF739450033.9263027
aF830503958.0899923
aF898052727.3313224
aF988397304.0982599
aF384372429.6594324
aF874503379.3025503
aF958627330.7001259
aF1153214562.65728
aF1346148090.367809
aF1499267009.3788662
aF1478649184.0038111
aF1571362142.4696398
aF1781423369.1603665
aF1878336666.6703
aF2191762369.6651273
aF2363822217.156926
aF2607288450.7147446
aF2716842431.2253747
aF2922658232.0146766
aF3154361416.4869018
aF3340302445.9277954
aF3556474398.620928
aF3745003666.2129917
aF3998686382.6088443
aF4189114155.335503
aF4322049044.235088
aF4513905102.408248
aF4808516180.300245
aF5039378085.457132
aF5142854672.856849
aF5329331580.987924
aF5460628811.603299
aF5719037429.869681
aF5820126478.578959
aF6025629745.80099
aF4636719182.276451
aF6492993910.285807
aF10075841685.948364
aF7833443592.677862
aF6936525177.03392
aF6919683422.248188
aF6804097934.345081
aF6785618077.692621
aF6785973969.587984
aF6812336737.9755335
aF6861178873.336699
aF10846960887.177958
asg9
(lp82
F0.0007517670329420299
aF0.000847797198240668
aF0.0009388424196903187
aF0.0010258674939513264
aF0.0011095656395524601
aF0.0011904571428480839
aF0.001268945914604129
aF0.0013453541050645389
aF0.0014199444051819904
aF0.0014929350223032726
aF0.001564510086545248
aF0.0016348270928902146
aF0.0017040223554380307
aF0.0017722150902644849
aF0.0018395105286445126
aF0.0019060023298138084
aF0.0019717744780354844
aF0.0020369027935475616
aF0.0021014561500142686
aF0.0021654974658337905
aF0.0022290845190420373
aF0.002292270623063398
aF0.002355105191523616
aF0.0024176342141006423
aF0.0024799006593660723
aF0.002541944819247279
aF0.0026038046040809345
aF0.002665515797437745
aF0.002727112277107124
aF0.0027886262076908036
aF0.0028500882092140625
aF0.0029115275053720564
aF0.0029729720543976174
aF0.0030344486650299702
aF0.0030959830996539987
aF0.003157600166346101
aF0.00321932380129252
aF0.003281177142814663
aF0.003343182598062219
aF0.00340536190326974
aF0.00346773617835039
aF0.003530325976490836
aF0.0035931513293208546
aF0.0036562317881547427
aF0.0037195864617365635
aF0.0037832340508660188
aF0.0038471928802343747
aF0.003911480927759549
aF0.003976115851674388
aF0.0040411150155922875
aF0.0041064955117482566
aF0.0041722741825909095
aF0.004238467640881319
aF0.004305092288437468
aF0.00437216433364821
aF0.004439699807867189
aF0.004507714580786093
aF0.004576224374876145
aF0.004645244778977709
aF0.004714791261110254
assS'g8.89e10'
p83
(dp84
g3
(lp85
F0.0
aF0.0
aF0.0
aF0.0
aF0.0
aF0.0
aF0.0
aF0.0
aF0.0
aF0.0
aF0.0
aF0.0
aF0.0
aF0.0
aF0.0
aF0.0
aF0.0
aF0.0
aF0.0
aF0.0
aF0.0
aF0.0
aF0.0
aF0.0
aF0.0
aF0.0
aF0.0
aF0.0
aF0.0
aF0.0
aF0.0
aF0.0
aF0.0
aF0.0
aF0.0
aF0.0
aF0.0
aF0.0
aF0.0
aF0.0
aF0.0
aF0.0
aF0.0
aF0.0
aF0.0
aF0.0
aF0.0
aF0.0
aF0.0
aF0.0
aF0.0
aF0.0
aF0.0
aF0.0
aF0.0
aF0.0
aF0.0
aF0.0
aF0.0
aF0.0
aF0.0
aF0.0
asg5
(lp86
F0.036544733219802034
aF0.022032384287750683
aF0.04604372524805382
aF0.04709916880674846
aF0.04103036834425426
aF0.04103036834425426
aF0.06306275263200495
aF0.07599193622601433
aF0.06002835240075785
aF0.05000163859315873
aF0.11583493056673712
aF0.06754838775645718
aF0.10871068654554829
aF0.07084664887737793
aF0.08509513691975563
aF0.07163823154639892
aF0.030871724091818323
aF0.08997656337871837
aF0.02308782784644533
aF0.04894619503446408
aF0.04815461236544311
aF0.03008014142279734
aF0.0637224048561891
aF0.010422505142109606
aF0.01767867960813528
aF0.04129422923392792
aF0.05686202172467392
aF0.04366897724099088
aF0.020976940729056037
aF0.05514692594179512
aF0.018734123166829923
aF0.04709916880674846
aF0.006596522241841522
aF0.13588835818193534
aF0.0532998997140795
aF0.07031892709803063
aF0.05554271727630561
aF0.10171837296919625
aF0.06306275263200495
aF0.05250831704505852
aF0.029948210977960507
aF0.056466230390163415
aF0.03733631588882301
aF0.050661290817342886
aF0.022032384287750683
aF0.03179523720567613
aF0.05277217793473218
aF0.04973777770348507
aF0.0407665074545806
aF0.024275201849976797
aF0.016359375159766973
aF0.05699395216951074
aF0.01767867960813528
aF0.005673009127983709
aF0.013193044483683044
aF0.04142615967876475
aF0.003957913345104915
aF0.0589729088420632
aF0.013061114038846213
aF0.004749496014125896
aF0.009762852917925452
aF0.005936870017657371
asg7
(lp87
F3242043.5193615546
aF6727984.304244444
aF23164222.060667556
aF33115309.48006192
aF38669504.77932334
aF48257372.36502677
aF58125811.75973432
aF67031766.913227335
aF77414619.62967387
aF88610826.4842633
aF104880037.38971636
aF114296537.31495088
aF128864109.9724624
aF135910290.0198028
aF145911200.5844496
aF155107458.50922853
aF163093793.19196513
aF174175715.7720135
aF176580734.3175488
aF182504649.7133202
aF189768049.37488288
aF193997177.15015388
aF201361970.4695796
aF203909051.85861862
aF209974844.50712448
aF214450218.7662853
aF220848189.96231976
aF229701664.6860427
aF232479142.31733775
aF238221139.32939333
aF243099730.7578
aF249377291.4884105
aF258025215.45469597
aF297146082.4635373
aF289139772.1511572
aF300964658.62284523
aF308510942.68998814
aF316777275.8406327
aF324756650.6146838
aF325158993.17138875
aF334339541.1226572
aF340602319.7179875
aF344350760.7176171
aF352905840.2412168
aF359702027.21855557
aF364042366.0692461
aF370536689.7730152
aF376086506.5005647
aF382484670.2999877
aF384900079.0890493
aF395841695.77393943
aF404503101.77524215
aF406143325.50377935
aF407941409.4367963
aF413292050.1859125
aF418203216.2966949
aF419706857.1571749
aF424729069.3310282
aF426196619.41331804
aF426207876.73800766
aF427987743.5659772
aF428843311.5600381
asg9
(lp88
F0.0005381944711023687
aF0.0006493279631563905
aF0.0007517670329420299
aF0.000847797198240668
aF0.0009388424196903187
aF0.0010258674939513264
aF0.0011095656395524601
aF0.0011904571428480839
aF0.001268945914604129
aF0.0013453541050645389
aF0.0014199444051819904
aF0.0014929350223032726
aF0.001564510086545248
aF0.0016348270928902146
aF0.0017040223554380307
aF0.0017722150902644849
aF0.0018395105286445126
aF0.0019060023298138084
aF0.0019717744780354844
aF0.0020369027935475616
aF0.0021014561500142686
aF0.0021654974658337905
aF0.0022290845190420373
aF0.002292270623063398
aF0.002355105191523616
aF0.0024176342141006423
aF0.0024799006593660723
aF0.002541944819247279
aF0.0026038046040809345
aF0.002665515797437745
aF0.002727112277107124
aF0.0027886262076908036
aF0.0028500882092140625
aF0.0029115275053720564
aF0.0029729720543976174
aF0.0030344486650299702
aF0.0030959830996539987
aF0.003157600166346101
aF0.00321932380129252
aF0.003281177142814663
aF0.003343182598062219
aF0.00340536190326974
aF0.00346773617835039
aF0.003530325976490836
aF0.0035931513293208546
aF0.0036562317881547427
aF0.0037195864617365635
aF0.0037832340508660188
aF0.0038471928802343747
aF0.003911480927759549
aF0.003976115851674388
aF0.0040411150155922875
aF0.0041064955117482566
aF0.0041722741825909095
aF0.004238467640881319
aF0.004305092288437468
aF0.00437216433364821
aF0.004439699807867189
aF0.004507714580786093
aF0.004576224374876145
aF0.004645244778977709
aF0.004714791261110254
assS'g5.38e11'
p89
(dp90
g3
(lp91
F0.0
aF0.0
aF0.0
aF0.0
aF0.0
aF0.0
aF0.0
aF0.0
aF0.0
aF0.0
aF0.0
aF0.0
aF0.0
aF0.0
aF0.0
aF0.0
aF0.0
aF0.0
aF0.0
aF0.0
aF0.0
aF0.0
aF0.0
aF0.0
aF0.0
aF0.0
aF0.0
aF0.0
aF0.0
aF0.0
aF0.0
aF0.0
aF0.0
aF0.0
aF0.0
aF0.0
aF0.0
aF0.0
aF0.0
aF0.0
aF0.0
aF0.0
aF0.0
aF0.0
aF0.0
aF0.0
aF0.0
aF0.0
aF0.0
aF0.0
aF0.0
aF0.0
aF0.0
aF0.0
aF0.0
aF0.0
aF0.0
aF0.0
aF0.0
aF0.0
aF0.0
aF0.0
asg5
(lp92
F0.02977564039945267
aF0.025778972040968864
aF0.05553811356308155
aF0.0906121881854811
aF0.11838022635880481
aF0.27121331697065737
aF0.617009684504833
aF0.6958811747500742
aF1.5870430434839031
aF1.886982649398523
aF2.4595525938109506
aF2.2678943383815633
aF2.029317721085785
aF2.6686755337428916
aF2.7372683830343103
aF2.434337810911622
aF1.678746996854389
aF1.9098674383207792
aF2.9680018768188186
aF3.7833249916801246
aF4.03510181718125
aF4.298812117754492
aF4.530303907472366
aF4.42817327578714
aF3.2815758886770516
aF4.470479730311121
aF4.808262355660498
aF4.667484664311691
aF4.814816880181783
aF5.3203421925235
aF5.094985238157478
aF2.6629535829606934
aF3.4246566887571395
aF3.400067488510001
aF2.808360046813463
aF2.6005088648210832
aF4.233946316527185
aF4.457127908634196
aF3.538472461896772
aF3.978190903895868
aF3.1284229833297372
aF3.2219679726429575
aF3.4432291660133743
aF3.5278132352357274
aF3.7283871471646775
aF3.094904703702721
aF2.102843445803495
aF3.3751081005295527
aF2.9574188713215226
aF3.3171184249129397
aF2.1882911518787678
aF2.3894343633055826
aF2.2217937922384405
aF2.291329471414585
aF2.7199917287397426
aF1.6719577607154998
aF2.512234387572493
aF2.282118073124967
aF1.6125044972949436
aF1.8895268120415059
aF2.4057982399234734
aF1.8456085444906205
asg7
(lp93
F4585178.8186525935
aF8862794.328846727
aF12305694.359531447
aF25646380.32591414
aF27562263.89927229
aF69080030.87019344
aF214258281.03729248
aF328092546.15119636
aF559472846.8514417
aF812438290.7155002
aF1172744420.8757396
aF1524899866.4766026
aF1807056721.0433354
aF2141284282.3458834
aF2523763141.369715
aF2851017144.530209
aF3087779403.7814517
aF3391447412.693772
aF3799451419.245128
aF4336332327.999515
aF4975695421.589398
aF5459104401.578861
aF6188497451.044889
aF6904066044.371963
aF7501885084.385308
aF8217705978.537621
aF8959963785.704786
aF9606217194.004652
aF10306068303.051214
aF10964059791.415344
aF11508442572.55587
aF12039840472.798435
aF12536137448.223293
aF13106584105.583838
aF13508526675.602888
aF14003748355.944714
aF14504080107.768549
aF15080990629.306576
aF15512304640.362492
aF15944423316.195524
aF16342614314.089825
aF16801731746.447208
aF17270769860.905216
aF17730562489.49779
aF18226024635.035454
aF18605531186.383694
aF18994244335.187214
aF19444310529.955135
aF19771329393.8313
aF20129588320.08957
aF20370142991.903187
aF20696275922.317665
aF20995819640.81952
aF21254967264.52558
aF21567284016.995663
aF21763090983.58828
aF22044258975.579357
aF22264194767.863567
aF22455349615.343628
aF22708438812.926785
aF22986115487.016964
aF23125677875.40505
asg9
(lp94
F0.0005381944711023687
aF0.0006493279631563905
aF0.0007517670329420299
aF0.000847797198240668
aF0.0009388424196903187
aF0.0010258674939513264
aF0.0011095656395524601
aF0.0011904571428480839
aF0.001268945914604129
aF0.0013453541050645389
aF0.0014199444051819904
aF0.0014929350223032726
aF0.001564510086545248
aF0.0016348270928902146
aF0.0017040223554380307
aF0.0017722150902644849
aF0.0018395105286445126
aF0.0019060023298138084
aF0.0019717744780354844
aF0.0020369027935475616
aF0.0021014561500142686
aF0.0021654974658337905
aF0.0022290845190420373
aF0.002292270623063398
aF0.002355105191523616
aF0.0024176342141006423
aF0.0024799006593660723
aF0.002541944819247279
aF0.0026038046040809345
aF0.002665515797437745
aF0.002727112277107124
aF0.0027886262076908036
aF0.0028500882092140625
aF0.0029115275053720564
aF0.0029729720543976174
aF0.0030344486650299702
aF0.0030959830996539987
aF0.003157600166346101
aF0.00321932380129252
aF0.003281177142814663
aF0.003343182598062219
aF0.00340536190326974
aF0.00346773617835039
aF0.003530325976490836
aF0.0035931513293208546
aF0.0036562317881547427
aF0.0037195864617365635
aF0.0037832340508660188
aF0.0038471928802343747
aF0.003911480927759549
aF0.003976115851674388
aF0.0040411150155922875
aF0.0041064955117482566
aF0.0041722741825909095
aF0.004238467640881319
aF0.004305092288437468
aF0.00437216433364821
aF0.004439699807867189
aF0.004507714580786093
aF0.004576224374876145
aF0.004645244778977709
aF0.004714791261110254
assS'g4.90e11'
p95
(dp96
g3
(lp97
F0.0
aF0.0
aF0.0
aF0.0
aF0.0
aF0.0
aF0.0
aF0.0
aF0.0
aF0.0
aF0.0
aF0.0
aF0.0
aF0.0
aF0.0
aF0.0
aF0.0
aF0.0
aF0.0
aF0.0
aF0.0
aF0.0
aF0.0
aF0.0
aF0.0
aF0.0
aF0.0
aF0.0
aF0.0
aF0.0
aF0.0
aF0.0
aF0.0
aF0.0
aF0.0
aF0.0
aF0.0
aF0.0
aF0.0
aF0.0
aF0.0
aF0.0
aF0.0
aF0.0
aF0.0
aF0.0
aF0.0
aF0.0
aF0.0
aF0.0
aF0.0
aF0.0
aF0.0
aF0.0
aF0.0
aF0.0
aF0.0
aF0.0
aF0.0
aF0.0
aF0.0
aF0.0
asg5
(lp98
F0.013456905373356705
aF0.029552419643450015
aF0.0035621220105944225
aF0.08575478914393979
aF0.0637224048561891
aF0.4921005592413776
aF0.18918825789601482
aF0.4738941578538949
aF0.3183481633912718
aF0.25647278476279833
aF0.4188791623569366
aF0.2928855875377635
aF0.4517298431213073
aF0.42376058881589934
aF0.5753486699334175
aF0.6905239482759705
aF0.4921005592413776
aF0.5055574646147342
aF0.2883999524133113
aF0.3380057996719596
aF0.43233606773029337
aF0.6157193860534876
aF0.6622908330808887
aF0.7253535857128939
aF0.5130774999704335
aF0.5794385137233592
aF0.630231734985539
aF0.6250864476369026
aF0.6012070371214363
aF0.5085918648459813
aF0.4008046914142908
aF0.743032265321029
aF0.713479845677579
aF0.5922357668725318
aF0.5670370519086972
aF0.6820803998064133
aF0.5359014669272052
aF0.605296880911378
aF0.6414458227966696
aF0.4369509338128679
aF0.6468549710349796
aF0.5679605650225551
aF0.5643984430119606
aF0.546983624293499
aF0.5707311043641284
aF0.3600381839597103
aF0.6886769220482549
aF0.5008079686006084
aF0.5791746528336855
aF0.3898544644928339
aF0.38167477691295043
aF0.43352344173382484
aF0.3829940813613187
aF0.3628087233012837
aF0.48919808945496723
aF0.49051739390333554
aF0.5169034828707015
aF0.46729763561205334
aF0.4368217028547456
aF0.3405124781238593
aF0.26821459435327627
aF0.20871396373186574
asg7
(lp99
F1711796.8546964668
aF9363750.315605449
aF1949560.5057041263
aF25470605.483336322
aF45935977.89060959
aF112208013.87637626
aF155535478.06337804
aF228387635.88975
aF178005302.01472434
aF188556005.49740958
aF400834826.5128651
aF449678353.8144851
aF521901160.9042926
aF583311695.8588203
aF658572230.2457004
aF776107784.1557037
aF844874566.0280019
aF928943635.7206203
aF453971404.0227695
aF642208277.6962256
aF676945780.3772162
aF795799496.907246
aF908628492.5368905
aF1016708291.2743666
aF1092552530.8947208
aF1179837886.943245
aF1275967138.125908
aF1360686998.212009
aF1434431546.4147713
aF1501172650.0717642
aF1561119624.8422759
aF1656038118.8284144
aF1744496621.427331
aF1825302165.945435
aF1900257648.88354
aF1990086540.3364577
aF2068240544.6574628
aF2236422092.6273923
aF2317231647.5138373
aF2277622223.6214314
aF2390086313.3058763
aF2512251793.87696
aF2566426233.7584643
aF2628607431.6449833
aF2716990089.3836007
aF2765068346.101505
aF2843280420.621676
aF2896866421.830405
aF2959576367.625375
aF3002932362.150467
aF3068679618.0779204
aF3134728627.1496496
aF3186787354.054579
aF3226700739.4858217
aF3328085481.3709817
aF3373843733.1778345
aF3428822536.7338953
aF3480143900.7174015
aF3531246690.3358116
aF3595734217.0458417
aF3647622301.102764
aF3701069595.556231
asg9
(lp100
F0.000538194471102369
aF0.0006493279631563905
aF0.0007517670329420299
aF0.0008477971982406683
aF0.000938842419690319
aF0.0010258674939513264
aF0.0011095656395524601
aF0.0011904571428480839
aF0.001268945914604129
aF0.0013453541050645387
aF0.0014199444051819906
aF0.0014929350223032726
aF0.001564510086545248
aF0.0016348270928902146
aF0.0017040223554380307
aF0.0017722150902644853
aF0.0018395105286445126
aF0.0019060023298138084
aF0.001971774478035484
aF0.0020369027935475616
aF0.0021014561500142686
aF0.0021654974658337905
aF0.0022290845190420373
aF0.0022922706230633968
aF0.002355105191523616
aF0.0024176342141006423
aF0.0024799006593660736
aF0.002541944819247279
aF0.0026038046040809345
aF0.002665515797437745
aF0.002727112277107124
aF0.0027886262076908044
aF0.0028500882092140625
aF0.0029115275053720564
aF0.0029729720543976174
aF0.0030344486650299702
aF0.0030959830996539987
aF0.003157600166346101
aF0.0032193238012925194
aF0.0032811771428146626
aF0.003343182598062219
aF0.003405361903269738
aF0.00346773617835039
aF0.003530325976490836
aF0.0035931513293208533
aF0.0036562317881547427
aF0.0037195864617365635
aF0.0037832340508660188
aF0.0038471928802343747
aF0.003911480927759549
aF0.003976115851674387
aF0.0040411150155922875
aF0.004106495511748258
aF0.0041722741825909095
aF0.004238467640881319
aF0.004305092288437468
aF0.00437216433364821
aF0.004439699807867189
aF0.004507714580786093
aF0.004576224374876145
aF0.004645244778977709
aF0.004714791261110254
assS'g7.55e11'
p101
(dp102
g3
(lp103
F4.0219197196751315
aF3.595906673044488
aF3.249222482242712
aF2.9604880271712455
aF2.715517900998321
aF2.5044983646771186
aF2.3204055341209258
aF2.1580686303657295
aF2.01358955858286
aF1.883969369980917
aF1.766859980483272
aF1.6603944899299394
aF1.5630683748162801
aF1.4736545109946961
aF1.3911412352835413
aF1.3146864327771066
aF1.2435829846263102
aF1.1772324075636686
aF1.1151244920657106
aF1.056821395202224
aF1.001945084270368
aF0.9501673303644187
aF0.9012016643906815
aF0.8547968568831767
aF0.810731593960949
aF0.7688100988343307
aF0.7288585074728573
aF0.6907218501021457
aF0.6542615228075603
aF0.619353158234319
aF0.5858848232818783
aF0.5537554862750533
aF0.5228737074298768
aF0.4931565153057902
aF0.46452843892788787
aF0.4369206708132438
aF0.41027034055606837
aF0.38451988218441935
aF0.3596164813648439
aF0.33551159085792337
aF0.3121605045233309
aF0.2895219817258434
aF0.26755791527134787
aF0.24623303705755828
aF0.22551465650016955
aF0.20537242752475993
aF0.1857781405249741
aF0.16670553619946937
aF0.14813013861132895
aF0.13002910517796407
aF0.11238109160837317
aF0.09516613006722774
aF0.07836551906918454
aF0.0619617237984591
aF0.04593828571287295
aF0.030279740432948676
aF0.01497154303845405
aF1.5765166949677223e-14
asg5
(lp104
Fnan
aF0.14459576754116615
aF0.5372207713755734
aF1.3203598919269988
aF2.098221794684951
aF1.8301391307765114
aF2.347306474536887
aF2.795869986982111
aF2.056004052337165
aF2.1953226020848584
aF4.358981897408878
aF2.771594785132134
aF4.73471980430417
aF4.609122020819508
aF2.991127045340619
aF3.761600843187709
aF4.3188750421784805
aF7.345805114684319
aF8.386554517387635
aF7.858672141000203
aF9.016400116442018
aF8.113990797302463
aF8.75567907893182
aF6.964535017523663
aF7.111872927422688
aF5.985208780769531
aF6.548300791724084
aF3.7731170016950752
aF3.564849652867919
aF2.9540407390808583
aF2.4420688438364935
aF2.0179465607282974
aF1.6633790485027582
aF1.5504465877224312
aF1.4259042477964634
aF0.9762852917925453
aF0.6490881001857681
aF0.5951926246917952
aF0.2860252044062484
aF0.07810282334340361
aF0.5709949652538021
aF0.4137338750083002
aF0.4823377063234521
aF0.6406542401276486
aF0.24802923629324122
aF0.5403871020516574
aF0.23219758291282155
aF0.3440746001344538
aF0.7440030160284847
aF0.42745464127133065
aF0.36518347130834666
aF0.6037137155733361
aF0.4950030290277878
aF0.2353639135889055
aF0.565717747460329
aF0.14987298533463939
aF0.2786370994953859
aF0.5910483928690002
asg7
(lp105
F67077366.07249853
aF104531397.59954363
aF230985490.6191193
aF465393554.37999636
aF823227295.103599
aF1095756691.8012035
aF1472776719.3679948
aF1847557423.778386
aF2058150453.668326
aF2349474973.9248657
aF2969468718.2224464
aF3627019889.4853973
aF4229483040.825997
aF4883628151.426446
aF5258663493.965345
aF5789747732.421882
aF6370724107.834638
aF7531137671.506417
aF8685212305.400341
aF9851275236.697971
aF11100420553.47848
aF12274149738.17165
aF13431454926.779646
aF14840527868.459486
aF16080836805.734196
aF16535186240.98161
aF17851377268.848324
aF17905376387.810432
aF18338071982.503498
aF18825285758.930504
aF19133033132.80304
aF19373698550.407043
aF19568091516.17927
aF19730133673.418224
aF19845098144.728935
aF19885275124.395588
aF19929887048.79724
aF19950474661.927246
aF19973596117.22949
aF19941651598.22137
aF19943209147.56843
aF19943403207.6011
aF19981967065.42947
aF20013474702.46901
aF20047533776.25713
aF20118980903.586533
aF20132849108.055695
aF20118599545.862854
aF20181420535.127705
aF20213370755.503624
aF20245666331.21188
aF20288449388.377613
aF20316239530.96463
aF20331738968.79074
aF20387321130.080418
aF20407096707.38779
aF20403914661.108128
aF20463667049.602303
asg9
(lp106
F1.5276260895416247
aF1.7433955012426618
aF1.9591649129437048
aF2.174934324644757
aF2.390703736345834
aF2.6064731480469367
aF2.8222425597478225
aF3.03801197144886
aF3.253781383149898
aF3.469550794850935
aF3.68532020655197
aF3.9010896182530144
aF4.116859029954047
aF4.332628441655086
aF4.548397853356121
aF4.76416726505716
aF4.9799366767582
aF5.195706088459233
aF5.411475500160272
aF5.6272449118613
aF5.8430143234196965
aF6.058783735263374
aF6.274553146964404
aF6.490322558665462
aF6.706091970366524
aF6.921861382067592
aF7.13763079376867
aF7.353400205469769
aF7.569169617170884
aF7.784939028872027
aF8.000708440573206
aF8.216477852274423
aF8.432247263975684
aF8.648016675675684
aF8.863786087376704
aF9.079555499077735
aF9.295324910778769
aF9.511094322479797
aF9.726863734180817
aF9.942633145881851
aF10.15840255758288
aF10.374171969283916
aF10.589941380984925
aF10.805710792685963
aF11.021480204386982
aF11.237249616088
aF11.453019027789026
aF11.668788439490053
aF11.884557851191078
aF12.100327262892105
aF12.316096674593146
aF12.531866086294151
aF12.747635497995192
aF12.963404909696264
aF13.179174321397273
aF13.394943733098305
aF13.610713144799337
aF13.826482556500364
assS'g8.26e11'
p107
(dp108
g3
(lp109
F7.760385909303661
aF6.261032218898559
aF5.271612154445051
aF4.561225338906955
aF4.021919719675131
aF3.595906673044489
aF3.249222482242713
aF2.9604880271712473
aF2.71551790099832
aF2.504498364677121
aF2.3204055341209258
aF2.158068630365731
aF2.013589558582861
aF1.8839693699809175
aF1.7668599804832716
aF1.6603944899299399
aF1.5630683748162806
aF1.4736545109946966
aF1.3911412352835417
aF1.3146864327771066
aF1.2435829846263102
aF1.1772324075636686
aF1.1151244920657106
aF1.056821395202224
aF1.001945084270368
aF0.9501673303644187
aF0.9012016643906815
aF0.8547968568831767
aF0.810731593960949
aF0.7688100988343307
aF0.7288585074728573
aF0.6907218501021457
aF0.6542615228075603
aF0.619353158234319
aF0.5858848232818783
aF0.5537554862750533
aF0.5228737074298768
aF0.4931565153057902
aF0.46452843892788787
aF0.4369206708132438
aF0.41027034055606837
aF0.38451988218441935
aF0.3596164813648439
aF0.33551159085792337
aF0.3121605045233309
aF0.2895219817258434
aF0.26755791527134787
aF0.24623303705755828
aF0.22551465650016955
aF0.2053724275247586
aF0.1857781405249741
aF0.16670553619946937
aF0.14813013861132895
aF0.13002910517796407
aF0.11238109160837317
aF0.09516613006722774
aF0.07836551906918454
aF0.0619617237984591
aF0.04593828571287295
aF0.030279740432948676
aF0.01497154303845405
aF1.5765166949677223e-14
asg5
(lp110
Fnan
aF1.801642154691756
aF2.14571675482621
aF2.996404263134093
aF4.947919403160489
aF6.947984946886839
aF6.6091875645458575
aF9.569706746684332
aF8.96915936178708
aF12.871134198281176
aF17.953794043086027
aF15.297254813300944
aF13.456235978287381
aF13.1060312609702
aF9.0822650963804
aF9.74209141749883
aF8.675195474385356
aF7.718146961279089
aF4.575937166420282
aF5.522485297373862
aF4.542324589084972
aF3.693893714738125
aF1.9481987754379309
aF0.860131766667659
aF1.4257151840370614
aF1.4237396232203963
aF1.0406396635854567
aF0.6670403290950147
aF0.6322106916580914
aF0.4137338750083002
aF0.16570463871505903
aF0.02849697608475538
aF0.03694052455431253
aF0.0010554435586946434
aF0.0
aF0.007388104910862504
aF0.012665322704335721
aF0.006332661352167861
aF0.006332661352167861
aF0.006332661352167861
aF0.0
aF0.0
aF0.0
aF0.0
aF0.0
aF0.0
aF0.0
aF0.006332661352167861
aF0.0
aFnan
aF0.0031663306760839303
aF0.008443548469557147
aF0.0042217742347785735
aF0.0031663306760839303
aF0.0
aF0.0
aF0.0042217742347785735
aF0.0
aF0.0
aF0.0031663306760839303
aF0.0
aF0.0
asg7
(lp111
F109152255.76780081
aF387390298.6449244
aF635006608.1624898
aF1055420895.2005794
aF1677489242.6460037
aF2676795509.28899
aF3503789365.0009756
aF4611531559.913493
aF6172286176.4190645
aF8243070972.726303
aF10882224904.311424
aF13246094880.440504
aF15061744140.667673
aF16966570631.626184
aF18601539961.29694
aF20048013385.680775
aF21233733940.076057
aF22469066627.295082
aF23204654804.840103
aF23825993611.84311
aF24304580809.189598
aF24670628594.151527
aF27520171175.502605
aF26965331024.476627
aF27440756157.6379
aF27466209642.746265
aF27457455891.73271
aF27433779415.600853
aF27392863436.633663
aF27359616783.99965
aF27318070939.47218
aF27225362703.568676
aF27161650403.431335
aF27091250416.766262
aF27036365242.571686
aF26936307536.008984
aF26896493611.532925
aF26838543544.596184
aF26783245542.803005
aF26719640153.23432
aF26666070472.78946
aF26626279114.020218
aF26577024687.62477
aF26530248755.522385
aF26490230428.593346
aF26465851984.35225
aF26434184379.08159
aF26394377675.74503
aF26370495320.35643
aF26498430072.0727
aF26346448689.452194
aF26285537278.546146
aF26263991737.452526
aF26279122029.141876
aF26261689500.74446
aF26232948286.413216
aF26222649995.871117
aF26210307347.83499
aF26303251315.816452
aF26291129092.263844
aF26199032484.650574
aF26184374824.268814
asg9
(lp112
F0.6645484427374854
aF0.8803178544385202
aF1.0960872661395555
aF1.3118566778405905
aF1.5276260895416252
aF1.7433955012426607
aF1.959164912943703
aF2.1749343246447546
aF2.390703736345835
aF2.606473148046933
aF2.8222425597478225
aF3.0380119714488574
aF3.253781383149897
aF3.4695507948509334
aF3.6853202065519723
aF3.90108961825301
aF4.116859029954044
aF4.332628441655085
aF4.548397853356118
aF4.76416726505716
aF4.9799366767582
aF5.195706088459233
aF5.411475500160272
aF5.6272449118613
aF5.8430143234196965
aF6.058783735263374
aF6.274553146964404
aF6.490322558665462
aF6.706091970366524
aF6.921861382067592
aF7.13763079376867
aF7.353400205469769
aF7.569169617170884
aF7.784939028872027
aF8.000708440573206
aF8.216477852274423
aF8.432247263975684
aF8.648016675675684
aF8.863786087376704
aF9.079555499077735
aF9.295324910778769
aF9.511094322479797
aF9.726863734180817
aF9.942633145881851
aF10.15840255758288
aF10.374171969283916
aF10.589941380984925
aF10.805710792685963
aF11.021480204386982
aF11.237249616088018
aF11.453019027789026
aF11.668788439490053
aF11.884557851191078
aF12.100327262892105
aF12.316096674593146
aF12.531866086294151
aF12.747635497995192
aF12.963404909696264
aF13.179174321397273
aF13.394943733098305
aF13.610713144799337
aF13.826482556500364
assS'g8.06e11'
p113
(dp114
g3
(lp115
F0.0
aF0.0
aF0.0
aF0.0
aF0.0
aF0.0
aF0.0
aF0.0
aF0.0
aF0.0
aF0.0
aF0.0
aF0.0
aF0.0
aF0.0
aF0.0
aF0.0
aF0.0
aF0.0
aF0.0
aF0.0
aF0.0
aF0.0
aF0.0
aF0.0
aF0.0
aF0.0
aF0.0
aF0.0
aF0.0
aF0.0
aF0.0
aF0.0
aF0.0
aF0.0
aF0.0
aF0.0
aF0.0
aF0.0
aF0.0
aF0.0
aF0.0
aF0.0
aF0.0
aF0.0
aF0.0
aF0.0
aF0.0
aF0.0
aF0.0
aF0.0
aF0.0
aF0.0
aF0.0
aF0.0
aF0.0
aF0.0
aF0.0
aF0.0
aF0.0
aF0.0
asg5
(lp116
F0.018997984056503582
aF0.13720766263030365
aF0.17836996141939476
aF0.2332530264715162
aF0.38840322959962875
aF0.2089778246215394
aF0.13298588839552508
aF0.9646754126469042
aF1.130380051361963
aF0.7620302493775325
aF0.8432994033970201
aF1.0459445666663916
aF0.7778619027579522
aF0.6037137155733361
aF0.9857842838207971
aF1.1335463820380471
aF0.9097923475947826
aF1.565222797544156
aF1.3689102956269525
aF1.8860776393873278
aF2.0496713909849973
aF0.3810151246887663
aF1.1071602930706812
aF1.8195846951895651
aF1.7868659448700313
aF0.8696854923643863
aF0.9446219850317058
aF1.216926423174924
aF2.9774062790775897
aF3.7172722137225342
aF4.64395165825643
aF3.7182799879002286
aF2.560506073393205
aF3.288762128892509
aF4.04129338624179
aF4.395853720758683
aF6.763282324115276
aF8.134164615163948
aF5.678120217955639
aF4.281793701438093
aF3.9430282444429703
aF3.449139445887822
aF1.1567365091046884
aF0.8316895242513791
aF0.3398528258996752
aF0.42745464127133065
aF0.08654637181296077
aF0.03799596811300717
aF0.0021108871173892868
aF0.0
aF0.0
aF0.10554435586946435
aF0.0
aF0.5319435535821003
aF0.09393447672382327
aF0.0
aF0.0654375006390679
aF0.06016028284559468
aF0.0
aF0.27335988170191267
aF1.0490846652493555
asg7
(lp117
F2060685.6706359715
aF18434025.252915308
aF52274057.42545658
aF88338098.69030699
aF130001113.98505814
aF122109627.18646538
aF162545921.71888903
aF313221003.0784529
aF556564573.781708
aF637788985.7012266
aF799120464.2147663
aF971772578.1362932
aF1080032702.8487344
aF1220357742.5821216
aF1358564462.219613
aF1493757387.9412794
aF1658142495.8348498
aF1877906200.3942275
aF2064209030.698448
aF2302387509.27831
aF2485568868.313987
aF2586890945.2483163
aF2708504059.7815914
aF3818885272.194003
aF3112279694.324936
aF3189099915.6214395
aF3393312108.8099923
aF4704757931.206404
aF5068619124.29129
aF5556071160.302827
aF6149584397.109248
aF6707463901.669889
aF7367284374.008089
aF7870822961.80599
aF8371951114.503982
aF9099004579.261255
aF9949455933.522577
aF11114566772.101559
aF12013448529.12308
aF12596239172.385859
aF13083719845.95138
aF13452398390.067064
aF13700340199.426174
aF13804729710.793077
aF13814919802.08136
aF13763692275.226583
aF13673632487.090683
aF13626137896.24721
aF13578217819.032837
aF13529083003.469316
aF13488488834.038902
aF13456821283.62951
aF13422404913.233341
aF15671028619.056728
aF13551637557.101273
aF13301065065.400944
aF13233756149.96038
aF13219386611.332703
aF13218505411.3969
aF14375506727.58232
aF15737929753.54874
asg9
(lp118
F0.0006493279631563905
aF0.0007517670329420299
aF0.000847797198240668
aF0.0009388424196903187
aF0.0010258674939513264
aF0.0011095656395524601
aF0.0011904571428480839
aF0.001268945914604129
aF0.0013453541050645389
aF0.0014199444051819904
aF0.0014929350223032726
aF0.001564510086545248
aF0.0016348270928902146
aF0.0017040223554380307
aF0.0017722150902644849
aF0.0018395105286445126
aF0.0019060023298138084
aF0.0019717744780354844
aF0.0020369027935475616
aF0.0021014561500142686
aF0.0021654974658337905
aF0.0022290845190420373
aF0.002292270623063398
aF0.002355105191523616
aF0.0024176342141006423
aF0.0024799006593660723
aF0.002541944819247279
aF0.0026038046040809345
aF0.002665515797437745
aF0.002727112277107124
aF0.0027886262076908036
aF0.0028500882092140625
aF0.0029115275053720564
aF0.0029729720543976174
aF0.0030344486650299702
aF0.0030959830996539987
aF0.003157600166346101
aF0.00321932380129252
aF0.003281177142814663
aF0.003343182598062219
aF0.00340536190326974
aF0.00346773617835039
aF0.003530325976490836
aF0.0035931513293208546
aF0.0036562317881547427
aF0.0037195864617365635
aF0.0037832340508660188
aF0.0038471928802343747
aF0.003911480927759549
aF0.003976115851674388
aF0.0040411150155922875
aF0.0041064955117482566
aF0.0041722741825909095
aF0.004238467640881319
aF0.004305092288437468
aF0.00437216433364821
aF0.004439699807867189
aF0.004507714580786093
aF0.004576224374876145
aF0.004645244778977709
aF0.004714791261110254
ass.