(lp0
(lp1
cnumpy.core.multiarray
_reconstruct
p2
(cpynbody.array
SimArray
p3
(I0
tp4
S'b'
p5
tp6
Rp7
(ccopy_reg
_reconstructor
p8
(cpynbody.units
CompositeUnit
p9
c__builtin__
object
p10
Ntp11
Rp12
(dp13
S'_powers'
p14
(lp15
I1
asS'_scale'
p16
I1
sS'_bases'
p17
(lp18
cpynbody.units
_resurrect_named_unit
p19
(S'Msol'
p20
S'M_{\\odot}'
p21
g8
(g9
g10
Ntp22
Rp23
(dp24
g14
(lp25
I1
asg16
F1.98892e+30
sg17
(lp26
g19
(S'kg'
p27
NNtp28
Rp29
asbtp30
Rp31
asbI1
(tcnumpy
dtype
p32
(S'f8'
p33
I0
I1
tp34
Rp35
(I3
S'<'
p36
NNNI-1
I-1
I0
tp37
bI00
S'\x00\x81\xc4\xba\xadf\xc1A'
p38
tp39
bag2
(g3
(I0
tp40
g5
tp41
Rp42
(g8
(g9
g10
Ntp43
Rp44
(dp45
g14
(lp46
I1
asg16
I1
sg17
(lp47
g31
asbI1
(tg35
I00
S'\xe0\xe8@\x02\x13\x96\xcaA'
p48
tp49
bag2
(g3
(I0
tp50
g5
tp51
Rp52
(g8
(g9
g10
Ntp53
Rp54
(dp55
g14
(lp56
I1
asg16
I1
sg17
(lp57
g31
asbI1
(tg35
I00
S'l_w\x15KL\\A'
p58
tp59
bag2
(g3
(I0
tp60
g5
tp61
Rp62
(g8
(g9
g10
Ntp63
Rp64
(dp65
g14
(lp66
I1
asg16
I1
sg17
(lp67
g31
asbI1
(tg35
I00
S'\xe9;\xde{7\x053B'
p68
tp69
bag2
(g3
(I0
tp70
g5
tp71
Rp72
(g8
(g9
g10
Ntp73
Rp74
(dp75
g14
(lp76
I1
asg16
I1
sg17
(lp77
g31
asbI1
(tg35
I00
S'\x87\xe4\xa8\t\x97\x83RA'
p78
tp79
bag2
(g3
(I0
tp80
g5
tp81
Rp82
(g8
(g9
g10
Ntp83
Rp84
(dp85
g14
(lp86
I1
asg16
I1
sg17
(lp87
g31
asbI1
(tg35
I00
S'\xf0U/s\xec!BA'
p88
tp89
bag2
(g3
(I0
tp90
g5
tp91
Rp92
(g8
(g9
g10
Ntp93
Rp94
(dp95
g14
(lp96
I1
asg16
I1
sg17
(lp97
g31
asbI1
(tg35
I00
S'\xa3\xfc\x9a\x07bH\xdeA'
p98
tp99
bag2
(g3
(I0
tp100
g5
tp101
Rp102
(g8
(g9
g10
Ntp103
Rp104
(dp105
g14
(lp106
I1
asg16
I1
sg17
(lp107
g31
asbI1
(tg35
I00
S'p\xc3\x98\x1e\xd0\xa1fA'
p108
tp109
bag2
(g3
(I0
tp110
g5
tp111
Rp112
(g8
(g9
g10
Ntp113
Rp114
(dp115
g14
(lp116
I1
asg16
I1
sg17
(lp117
g31
asbI1
(tg35
I00
S'\xbed+__kmA'
p118
tp119
bag2
(g3
(I0
tp120
g5
tp121
Rp122
(g8
(g9
g10
Ntp123
Rp124
(dp125
g14
(lp126
I1
asg16
I1
sg17
(lp127
g31
asbI1
(tg35
I00
S'\x94!\xa5\xe2rjJA'
p128
tp129
bag2
(g3
(I0
tp130
g5
tp131
Rp132
(g8
(g9
g10
Ntp133
Rp134
(dp135
g14
(lp136
I1
asg16
I1
sg17
(lp137
g31
asbI1
(tg35
I00
S'\x87\xbd\xae\x00"\xe2\xd9A'
p138
tp139
bag2
(g3
(I0
tp140
g5
tp141
Rp142
(g8
(g9
g10
Ntp143
Rp144
(dp145
g14
(lp146
I1
asg16
I1
sg17
(lp147
g31
asbI1
(tg35
I00
S'\xbc\xe0:\xbb\xf4\x10aA'
p148
tp149
bag2
(g3
(I0
tp150
g5
tp151
Rp152
(g8
(g9
g10
Ntp153
Rp154
(dp155
g14
(lp156
I1
asg16
I1
sg17
(lp157
g31
asbI1
(tg35
I00
S'\x85#u"\x8c"\xd3A'
p158
tp159
bag2
(g3
(I0
tp160
g5
tp161
Rp162
(g8
(g9
g10
Ntp163
Rp164
(dp165
g14
(lp166
I1
asg16
I1
sg17
(lp167
g31
asbI1
(tg35
I00
S'\x83\xd4\x1f\xaf\xbd\xfd\xc7A'
p168
tp169
bag2
(g3
(I0
tp170
g5
tp171
Rp172
(g8
(g9
g10
Ntp173
Rp174
(dp175
g14
(lp176
I1
asg16
I1
sg17
(lp177
g31
asbI1
(tg35
I00
S'Mb|\xa3C+\xcfA'
p178
tp179
bag2
(g3
(I0
tp180
g5
tp181
Rp182
(g8
(g9
g10
Ntp183
Rp184
(dp185
g14
(lp186
I1
asg16
I1
sg17
(lp187
g31
asbI1
(tg35
I00
S'\x86\r\xb4\xa9\x03P@B'
p188
tp189
bag2
(g3
(I0
tp190
g5
tp191
Rp192
(g8
(g9
g10
Ntp193
Rp194
(dp195
g14
(lp196
I1
asg16
I1
sg17
(lp197
g31
asbI1
(tg35
I00
S'\x8d:\xc2\xa4M~rA'
p198
tp199
bag2
(g3
(I0
tp200
g5
tp201
Rp202
(g8
(g9
g10
Ntp203
Rp204
(dp205
g14
(lp206
I1
asg16
I1
sg17
(lp207
g31
asbI1
(tg35
I00
S'pI\xd7\x13\x00PrA'
p208
tp209
bag2
(g3
(I0
tp210
g5
tp211
Rp212
(g8
(g9
g10
Ntp213
Rp214
(dp215
g14
(lp216
I1
asg16
I1
sg17
(lp217
g31
asbI1
(tg35
I00
S'b\x0cc\x986amA'
p218
tp219
bag2
(g3
(I0
tp220
g5
tp221
Rp222
(g8
(g9
g10
Ntp223
Rp224
(dp225
g14
(lp226
I1
asg16
I1
sg17
(lp227
g31
asbI1
(tg35
I00
S'\xdd!\xc1\xa2/B[A'
p228
tp229
bag2
(g3
(I0
tp230
g5
tp231
Rp232
(g8
(g9
g10
Ntp233
Rp234
(dp235
g14
(lp236
I1
asg16
I1
sg17
(lp237
g31
asbI1
(tg35
I00
S'+\x8d3\x8e|\x8dBB'
p238
tp239
bag2
(g3
(I0
tp240
g5
tp241
Rp242
(g8
(g9
g10
Ntp243
Rp244
(dp245
g14
(lp246
I1
asg16
I1
sg17
(lp247
g31
asbI1
(tg35
I00
S'\xf0\xe0\xd7\x98\x17\x8bRA'
p248
tp249
bag2
(g3
(I0
tp250
g5
tp251
Rp252
(g8
(g9
g10
Ntp253
Rp254
(dp255
g14
(lp256
I1
asg16
I1
sg17
(lp257
g31
asbI1
(tg35
I00
S'\x04\x89\x9c{J\xdd\xf1A'
p258
tp259
bag2
(g3
(I0
tp260
g5
tp261
Rp262
(g8
(g9
g10
Ntp263
Rp264
(dp265
g14
(lp266
I1
asg16
I1
sg17
(lp267
g31
asbI1
(tg35
I00
S'\x84\t\x0b\xdeg\xa5fA'
p268
tp269
bag2
(g3
(I0
tp270
g5
tp271
Rp272
(g8
(g9
g10
Ntp273
Rp274
(dp275
g14
(lp276
I1
asg16
I1
sg17
(lp277
g31
asbI1
(tg35
I00
S'\xcc0\xe6q\xd3\xef\xd3A'
p278
tp279
bag2
(g3
(I0
tp280
g5
tp281
Rp282
(g8
(g9
g10
Ntp283
Rp284
(dp285
g14
(lp286
I1
asg16
I1
sg17
(lp287
g31
asbI1
(tg35
I00
S'"L\xd2\xfd\x00\x8epA'
p288
tp289
bag2
(g3
(I0
tp290
g5
tp291
Rp292
(g8
(g9
g10
Ntp293
Rp294
(dp295
g14
(lp296
I1
asg16
I1
sg17
(lp297
g31
asbI1
(tg35
I00
S'h\xc1Gf{KqA'
p298
tp299
bag2
(g3
(I0
tp300
g5
tp301
Rp302
(g8
(g9
g10
Ntp303
Rp304
(dp305
g14
(lp306
I1
asg16
I1
sg17
(lp307
g31
asbI1
(tg35
I00
S'\xa4 \xba}\x94\x95pA'
p308
tp309
bag2
(g3
(I0
tp310
g5
tp311
Rp312
(g8
(g9
g10
Ntp313
Rp314
(dp315
g14
(lp316
I1
asg16
I1
sg17
(lp317
g31
asbI1
(tg35
I00
S'\xbe\xf2\xfc+\x88\xcd\xf5A'
p318
tp319
bag2
(g3
(I0
tp320
g5
tp321
Rp322
(g8
(g9
g10
Ntp323
Rp324
(dp325
g14
(lp326
I1
asg16
I1
sg17
(lp327
g31
asbI1
(tg35
I00
S'\xb5Q\xa8\t]h\xefA'
p328
tp329
bag2
(g3
(I0
tp330
g5
tp331
Rp332
(g8
(g9
g10
Ntp333
Rp334
(dp335
g14
(lp336
I1
asg16
I1
sg17
(lp337
g31
asbI1
(tg35
I00
S'\xd84)\xb0\x01#\xf5A'
p338
tp339
bag2
(g3
(I0
tp340
g5
tp341
Rp342
(g8
(g9
g10
Ntp343
Rp344
(dp345
g14
(lp346
I1
asg16
I1
sg17
(lp347
g31
asbI1
(tg35
I00
S'\xa2\xed\xb34f\xa9\xebA'
p348
tp349
bag2
(g3
(I0
tp350
g5
tp351
Rp352
(g8
(g9
g10
Ntp353
Rp354
(dp355
g14
(lp356
I1
asg16
I1
sg17
(lp357
g31
asbI1
(tg35
I00
S'\t\xb1`\x00|:\x05B'
p358
tp359
bag2
(g3
(I0
tp360
g5
tp361
Rp362
(g8
(g9
g10
Ntp363
Rp364
(dp365
g14
(lp366
I1
asg16
I1
sg17
(lp367
g31
asbI1
(tg35
I00
S'\x85\xb5\x16v\xdac\x8aA'
p368
tp369
bag2
(g3
(I0
tp370
g5
tp371
Rp372
(g8
(g9
g10
Ntp373
Rp374
(dp375
g14
(lp376
I1
asg16
I1
sg17
(lp377
g31
asbI1
(tg35
I00
S'R(\xc9,\xca\x01}A'
p378
tp379
bag2
(g3
(I0
tp380
g5
tp381
Rp382
(g8
(g9
g10
Ntp383
Rp384
(dp385
g14
(lp386
I1
asg16
I1
sg17
(lp387
g31
asbI1
(tg35
I00
S'2\xd8\x82-\x8f\xc2GB'
p388
tp389
bag2
(g3
(I0
tp390
g5
tp391
Rp392
(g8
(g9
g10
Ntp393
Rp394
(dp395
g14
(lp396
I1
asg16
I1
sg17
(lp397
g31
asbI1
(tg35
I00
S'kH\xa3\x10{\xfc\x92A'
p398
tp399
bag2
(g3
(I0
tp400
g5
tp401
Rp402
(g8
(g9
g10
Ntp403
Rp404
(dp405
g14
(lp406
I1
asg16
I1
sg17
(lp407
g31
asbI1
(tg35
I00
S'\xa30\xe5K\x94S\x7fA'
p408
tp409
bag2
(g3
(I0
tp410
g5
tp411
Rp412
(g8
(g9
g10
Ntp413
Rp414
(dp415
g14
(lp416
I1
asg16
I1
sg17
(lp417
g31
asbI1
(tg35
I00
S'G@hv8\x94\x8cA'
p418
tp419
bag2
(g3
(I0
tp420
g5
tp421
Rp422
(g8
(g9
g10
Ntp423
Rp424
(dp425
g14
(lp426
I1
asg16
I1
sg17
(lp427
g31
asbI1
(tg35
I00
S'}p\xb0\xca\xc0\x19\xfdA'
p428
tp429
bag2
(g3
(I0
tp430
g5
tp431
Rp432
(g8
(g9
g10
Ntp433
Rp434
(dp435
g14
(lp436
I1
asg16
I1
sg17
(lp437
g31
asbI1
(tg35
I00
S'a(`\x9d\x1e\xa0\x90A'
p438
tp439
bag2
(g3
(I0
tp440
g5
tp441
Rp442
(g8
(g9
g10
Ntp443
Rp444
(dp445
g14
(lp446
I1
asg16
I1
sg17
(lp447
g31
asbI1
(tg35
I00
S'\xe28\xb0R\x9f\x1c\xeeA'
p448
tp449
bag2
(g3
(I0
tp450
g5
tp451
Rp452
(g8
(g9
g10
Ntp453
Rp454
(dp455
g14
(lp456
I1
asg16
I1
sg17
(lp457
g31
asbI1
(tg35
I00
S'\x86\xc1)\xb4\xd0\x9e\xbeA'
p458
tp459
bag2
(g3
(I0
tp460
g5
tp461
Rp462
(g8
(g9
g10
Ntp463
Rp464
(dp465
g14
(lp466
I1
asg16
I1
sg17
(lp467
g31
asbI1
(tg35
I00
S'<\x12\xf6\xb6\x82\xf6\x9fA'
p468
tp469
bag2
(g3
(I0
tp470
g5
tp471
Rp472
(g8
(g9
g10
Ntp473
Rp474
(dp475
g14
(lp476
I1
asg16
I1
sg17
(lp477
g31
asbI1
(tg35
I00
S'\x81\xe1P?\x8b\x06\xf2A'
p478
tp479
bag2
(g3
(I0
tp480
g5
tp481
Rp482
(g8
(g9
g10
Ntp483
Rp484
(dp485
g14
(lp486
I1
asg16
I1
sg17
(lp487
g31
asbI1
(tg35
I00
S'\x13[B\xb4\xb9:\xde@'
p488
tp489
bag2
(g3
(I0
tp490
g5
tp491
Rp492
(g8
(g9
g10
Ntp493
Rp494
(dp495
g14
(lp496
I1
asg16
I1
sg17
(lp497
g31
asbI1
(tg35
I00
S'BCB@\x9c\x95\xeeA'
p498
tp499
bag2
(g3
(I0
tp500
g5
tp501
Rp502
(g8
(g9
g10
Ntp503
Rp504
(dp505
g14
(lp506
I1
asg16
I1
sg17
(lp507
g31
asbI1
(tg35
I00
S'l\x84\xbcn\x9c\x90\xf1A'
p508
tp509
bag2
(g3
(I0
tp510
g5
tp511
Rp512
(g8
(g9
g10
Ntp513
Rp514
(dp515
g14
(lp516
I1
asg16
I1
sg17
(lp517
g31
asbI1
(tg35
I00
S'\x11I#\x01\x8a\x1f\x14B'
p518
tp519
bag2
(g3
(I0
tp520
g5
tp521
Rp522
(g8
(g9
g10
Ntp523
Rp524
(dp525
g14
(lp526
I1
asg16
I1
sg17
(lp527
g31
asbI1
(tg35
I00
S'\xb2O0\x8f\x1e\x02\x90A'
p528
tp529
bag2
(g3
(I0
tp530
g5
tp531
Rp532
(g8
(g9
g10
Ntp533
Rp534
(dp535
g14
(lp536
I1
asg16
I1
sg17
(lp537
g31
asbI1
(tg35
I00
S'i\x9a0\xa1\xb3\xb8\x07B'
p538
tp539
bag2
(g3
(I0
tp540
g5
tp541
Rp542
(g8
(g9
g10
Ntp543
Rp544
(dp545
g14
(lp546
I1
asg16
I1
sg17
(lp547
g31
asbI1
(tg35
I00
S'R\xdbX\x8d\xe7M\x92A'
p548
tp549
bag2
(g3
(I0
tp550
g5
tp551
Rp552
(g8
(g9
g10
Ntp553
Rp554
(dp555
g14
(lp556
I1
asg16
I1
sg17
(lp557
g31
asbI1
(tg35
I00
S'\x88\xd8\xb8rs\xca\x94A'
p558
tp559
bag2
(g3
(I0
tp560
g5
tp561
Rp562
(g8
(g9
g10
Ntp563
Rp564
(dp565
g14
(lp566
I1
asg16
I1
sg17
(lp567
g31
asbI1
(tg35
I00
S'\n\xcbxl\xbb\xba\xf0@'
p568
tp569
bag2
(g3
(I0
tp570
g5
tp571
Rp572
(g8
(g9
g10
Ntp573
Rp574
(dp575
g14
(lp576
I1
asg16
I1
sg17
(lp577
g31
asbI1
(tg35
I00
S'\xf7\xfb\xa6|\xac\xe7\xa0A'
p578
tp579
bag2
(g3
(I0
tp580
g5
tp581
Rp582
(g8
(g9
g10
Ntp583
Rp584
(dp585
g14
(lp586
I1
asg16
I1
sg17
(lp587
g31
asbI1
(tg35
I00
S'\x96\xae\xd5\xcf+\xd5\x9fA'
p588
tp589
bag2
(g3
(I0
tp590
g5
tp591
Rp592
(g8
(g9
g10
Ntp593
Rp594
(dp595
g14
(lp596
I1
asg16
I1
sg17
(lp597
g31
asbI1
(tg35
I00
S' \xf1\xa3;\xf9)\xfaA'
p598
tp599
bag2
(g3
(I0
tp600
g5
tp601
Rp602
(g8
(g9
g10
Ntp603
Rp604
(dp605
g14
(lp606
I1
asg16
I1
sg17
(lp607
g31
asbI1
(tg35
I00
S'\x9c\xa6\xae\xb2"A\xa0A'
p608
tp609
bag2
(g3
(I0
tp610
g5
tp611
Rp612
(g8
(g9
g10
Ntp613
Rp614
(dp615
g14
(lp616
I1
asg16
I1
sg17
(lp617
g31
asbI1
(tg35
I00
S'`\xd9\x81\n\x83\x9c\x18A'
p618
tp619
bag2
(g3
(I0
tp620
g5
tp621
Rp622
(g8
(g9
g10
Ntp623
Rp624
(dp625
g14
(lp626
I1
asg16
I1
sg17
(lp627
g31
asbI1
(tg35
I00
S'H\xf8%\x9f\x83\x85\xa2A'
p628
tp629
bag2
(g3
(I0
tp630
g5
tp631
Rp632
(g8
(g9
g10
Ntp633
Rp634
(dp635
g14
(lp636
I1
asg16
I1
sg17
(lp637
g31
asbI1
(tg35
I00
S'I\x05\xde\xf7\x9b\xb5\x0bB'
p638
tp639
bag2
(g3
(I0
tp640
g5
tp641
Rp642
(g8
(g9
g10
Ntp643
Rp644
(dp645
g14
(lp646
I1
asg16
I1
sg17
(lp647
g31
asbI1
(tg35
I00
S',\xbf\xf2\x12=\x1a\x97A'
p648
tp649
bag2
(g3
(I0
tp650
g5
tp651
Rp652
(g8
(g9
g10
Ntp653
Rp654
(dp655
g14
(lp656
I1
asg16
I1
sg17
(lp657
g31
asbI1
(tg35
I00
S'\x8c\xadW~\x8d\x03\xfd@'
p658
tp659
bag2
(g3
(I0
tp660
g5
tp661
Rp662
(g8
(g9
g10
Ntp663
Rp664
(dp665
g14
(lp666
I1
asg16
I1
sg17
(lp667
g31
asbI1
(tg35
I00
S'E\x15\xc4\xcaq\xd2\x15B'
p668
tp669
bag2
(g3
(I0
tp670
g5
tp671
Rp672
(g8
(g9
g10
Ntp673
Rp674
(dp675
g14
(lp676
I1
asg16
I1
sg17
(lp677
g31
asbI1
(tg35
I00
S'\x90\xba-\x82P\x88\x07B'
p678
tp679
bag2
(g3
(I0
tp680
g5
tp681
Rp682
(g8
(g9
g10
Ntp683
Rp684
(dp685
g14
(lp686
I1
asg16
I1
sg17
(lp687
g31
asbI1
(tg35
I00
S'\xb1md4\xca\x8b\x11B'
p688
tp689
bag2
(g3
(I0
tp690
g5
tp691
Rp692
(g8
(g9
g10
Ntp693
Rp694
(dp695
g14
(lp696
I1
asg16
I1
sg17
(lp697
g31
asbI1
(tg35
I00
S'\xaa.q\x97(\x942A'
p698
tp699
bag2
(g3
(I0
tp700
g5
tp701
Rp702
(g8
(g9
g10
Ntp703
Rp704
(dp705
g14
(lp706
I1
asg16
I1
sg17
(lp707
g31
asbI1
(tg35
I00
S'\xd6\x90mG\xdf\x04\xfbA'
p708
tp709
bag2
(g3
(I0
tp710
g5
tp711
Rp712
(g8
(g9
g10
Ntp713
Rp714
(dp715
g14
(lp716
I1
asg16
I1
sg17
(lp717
g31
asbI1
(tg35
I00
S':\x8a0\x83/\xb5\x10B'
p718
tp719
bag2
(g3
(I0
tp720
g5
tp721
Rp722
(g8
(g9
g10
Ntp723
Rp724
(dp725
g14
(lp726
I1
asg16
I1
sg17
(lp727
g31
asbI1
(tg35
I00
S'\xf1\xefy\xab\xd5\x8c:A'
p728
tp729
bag2
(g3
(I0
tp730
g5
tp731
Rp732
(g8
(g9
g10
Ntp733
Rp734
(dp735
g14
(lp736
I1
asg16
I1
sg17
(lp737
g31
asbI1
(tg35
I00
S'i9\x84O\x13\x9e\xfc@'
p738
tp739
bag2
(g3
(I0
tp740
g5
tp741
Rp742
(g8
(g9
g10
Ntp743
Rp744
(dp745
g14
(lp746
I1
asg16
I1
sg17
(lp747
g31
asbI1
(tg35
I00
S'\x19\x8a\xa1\xaa\xed\xb6\xa7A'
p748
tp749
bag2
(g3
(I0
tp750
g5
tp751
Rp752
(g8
(g9
g10
Ntp753
Rp754
(dp755
g14
(lp756
I1
asg16
I1
sg17
(lp757
g31
asbI1
(tg35
I00
S'\xfeEcX\xc5\xcc\xabA'
p758
tp759
bag2
(g3
(I0
tp760
g5
tp761
Rp762
(g8
(g9
g10
Ntp763
Rp764
(dp765
g14
(lp766
I1
asg16
I1
sg17
(lp767
g31
asbI1
(tg35
I00
S'\xec\x14\xc2^!X\xbeA'
p768
tp769
bag2
(g3
(I0
tp770
g5
tp771
Rp772
(g8
(g9
g10
Ntp773
Rp774
(dp775
g14
(lp776
I1
asg16
I1
sg17
(lp777
g31
asbI1
(tg35
I00
S'e\xc8\xe2\xefu\xee\xadA'
p778
tp779
bag2
(g3
(I0
tp780
g5
tp781
Rp782
(g8
(g9
g10
Ntp783
Rp784
(dp785
g14
(lp786
I1
asg16
I1
sg17
(lp787
g31
asbI1
(tg35
I00
S'2\x7f\x99P\x1eT\xb9A'
p788
tp789
bag2
(g3
(I0
tp790
g5
tp791
Rp792
(g8
(g9
g10
Ntp793
Rp794
(dp795
g14
(lp796
I1
asg16
I1
sg17
(lp797
g31
asbI1
(tg35
I00
S'%\x8c\x8b\xfd\x8bw B'
p798
tp799
bag2
(g3
(I0
tp800
g5
tp801
Rp802
(g8
(g9
g10
Ntp803
Rp804
(dp805
g14
(lp806
I1
asg16
I1
sg17
(lp807
g31
asbI1
(tg35
I00
S'-\x97S\xaaMtAA'
p808
tp809
bag2
(g3
(I0
tp810
g5
tp811
Rp812
(g8
(g9
g10
Ntp813
Rp814
(dp815
g14
(lp816
I1
asg16
I1
sg17
(lp817
g31
asbI1
(tg35
I00
S'\xa9q|>\x19\xc0\x1dB'
p818
tp819
bag2
(g3
(I0
tp820
g5
tp821
Rp822
(g8
(g9
g10
Ntp823
Rp824
(dp825
g14
(lp826
I1
asg16
I1
sg17
(lp827
g31
asbI1
(tg35
I00
S'\xe9\xe5\xecLhl\xc8A'
p828
tp829
bag2
(g3
(I0
tp830
g5
tp831
Rp832
(g8
(g9
g10
Ntp833
Rp834
(dp835
g14
(lp836
I1
asg16
I1
sg17
(lp837
g31
asbI1
(tg35
I00
S'\x86E%\xa4\x04\xd9!A'
p838
tp839
bag2
(g3
(I0
tp840
g5
tp841
Rp842
(g8
(g9
g10
Ntp843
Rp844
(dp845
g14
(lp846
I1
asg16
I1
sg17
(lp847
g31
asbI1
(tg35
I00
S'\xceN\xe6\xae\xf7n\x12B'
p848
tp849
bag2
(g3
(I0
tp850
g5
tp851
Rp852
(g8
(g9
g10
Ntp853
Rp854
(dp855
g14
(lp856
I1
asg16
I1
sg17
(lp857
g31
asbI1
(tg35
I00
S'\xdd\xe6\xb8\x18E#\x1eB'
p858
tp859
bag2
(g3
(I0
tp860
g5
tp861
Rp862
(g8
(g9
g10
Ntp863
Rp864
(dp865
g14
(lp866
I1
asg16
I1
sg17
(lp867
g31
asbI1
(tg35
I00
S'\xc0\x1dmy\x1b\xf5+B'
p868
tp869
bag2
(g3
(I0
tp870
g5
tp871
Rp872
(g8
(g9
g10
Ntp873
Rp874
(dp875
g14
(lp876
I1
asg16
I1
sg17
(lp877
g31
asbI1
(tg35
I00
S'\r\xfa\xbe<\xe0\x07%B'
p878
tp879
bag2
(g3
(I0
tp880
g5
tp881
Rp882
(g8
(g9
g10
Ntp883
Rp884
(dp885
g14
(lp886
I1
asg16
I1
sg17
(lp887
g31
asbI1
(tg35
I00
S'\xd3b\xa4\xb6\xf3\xd3/B'
p888
tp889
bag2
(g3
(I0
tp890
g5
tp891
Rp892
(g8
(g9
g10
Ntp893
Rp894
(dp895
g14
(lp896
I1
asg16
I1
sg17
(lp897
g31
asbI1
(tg35
I00
S'\xd69\x11\t\xbe8&B'
p898
tp899
bag2
(g3
(I0
tp900
g5
tp901
Rp902
(g8
(g9
g10
Ntp903
Rp904
(dp905
g14
(lp906
I1
asg16
I1
sg17
(lp907
g31
asbI1
(tg35
I00
S'\xba-\xbdPV\xcd\x11B'
p908
tp909
bag2
(g3
(I0
tp910
g5
tp911
Rp912
(g8
(g9
g10
Ntp913
Rp914
(dp915
g14
(lp916
I1
asg16
I1
sg17
(lp917
g31
asbI1
(tg35
I00
S'\xcdO\x0f\xdb\xdef\xbdA'
p918
tp919
bag2
(g3
(I0
tp920
g5
tp921
Rp922
(g8
(g9
g10
Ntp923
Rp924
(dp925
g14
(lp926
I1
asg16
I1
sg17
(lp927
g31
asbI1
(tg35
I00
S'\x06\xd3QWag\xef@'
p928
tp929
bag2
(g3
(I0
tp930
g5
tp931
Rp932
(g8
(g9
g10
Ntp933
Rp934
(dp935
g14
(lp936
I1
asg16
I1
sg17
(lp937
g31
asbI1
(tg35
I00
S'\x98\x07\xdc\xeb\xfd\x1d\xb8A'
p938
tp939
baa(lp940
cnumpy.core.multiarray
scalar
p941
(g35
S'\xd4\x92\xf66\x01\xef\x8eA'
p942
tp943
Rp944
ag941
(g35
S'\x85\xcf~\xf0\x96\xe9\x81A'
p945
tp946
Rp947
aF0.0
ag941
(g35
S'\xa6\xe8l\x02\x1a\x0c\xecA'
p948
tp949
Rp950
aF0.0
aF0.0
ag941
(g35
S'f\xfcr\x95y\xe8pA'
p951
tp952
Rp953
ag941
(g35
S'\xae\x85\r\xd4\x01\xd6=A'
p954
tp955
Rp956
ag941
(g35
S'_k=\xdc\xd0L.A'
p957
tp958
Rp959
aF0.0
ag941
(g35
S'\x15\xc6}\xc4\t\xac\x93A'
p960
tp961
Rp962
aF0.0
ag941
(g35
S'-d\xd7\x84I\xa8\x90A'
p963
tp964
Rp965
ag941
(g35
S'\xfe\x99\x86\x00\x14\x12sA'
p966
tp967
Rp968
ag941
(g35
S'?\xbckv\x8a\x1a\xb7A'
p969
tp970
Rp971
ag941
(g35
S'\x89s\xfe\x00\x0e\x85\xfcA'
p972
tp973
Rp974
ag941
(g35
S'\xc6P\xe9\xa5\x7f\xaeAA'
p975
tp976
Rp977
ag941
(g35
S'H\x08\xc0\x81\x97\x83RA'
p978
tp979
Rp980
ag941
(g35
S'\\\\[\x98\x16Q:A'
p981
tp982
Rp983
ag941
(g35
S'\x15\x03\x8a\x9f]\x9cOA'
p984
tp985
Rp986
ag941
(g35
S'\xb9\x88\x18\xa6\xed\xb4\xfbA'
p987
tp988
Rp989
aF0.0
ag941
(g35
S'\xf9\x86\x90\x90\x1b8\xccA'
p990
tp991
Rp992
ag941
(g35
S'\xee\xcd\xb1[\x8fQ\x07A'
p993
tp994
Rp995
ag941
(g35
S'A\xdaA\xd8\xb7\xe0\x98A'
p996
tp997
Rp998
ag941
(g35
S'_\xebJF\xa6l"A'
p999
tp1000
Rp1001
aF0.0
ag941
(g35
S'\xa2\x03\xc9o\xb2^\tA'
p1002
tp1003
Rp1004
ag941
(g35
S'\xf4\xf8Us\xe4\xb5\xc1A'
p1005
tp1006
Rp1007
ag941
(g35
S'_\xe6\xaaYU\xd8\xbeA'
p1008
tp1009
Rp1010
ag941
(g35
S'\xfe\xdd\x82.\xe3x\xb9A'
p1011
tp1012
Rp1013
ag941
(g35
S'\xfav8d+F\xc9A'
p1014
tp1015
Rp1016
ag941
(g35
S'\xa6\xe5\xdaG1u\xbfA'
p1017
tp1018
Rp1019
aF0.0
aF0.0
ag941
(g35
S'\x91\xa4\xa9\xdb\x17\xf9\x02B'
p1020
tp1021
Rp1022
ag941
(g35
S'Fh\x89g=\x9cJA'
p1023
tp1024
Rp1025
ag941
(g35
S'\x9a\xa5Y\xa0\xba\x19?A'
p1026
tp1027
Rp1028
ag941
(g35
S'v\xa4\x04\x10\x14?\xef@'
p1029
tp1030
Rp1031
ag941
(g35
S'-\x1f\xff\xaa\xb1\xd5\xcdA'
p1032
tp1033
Rp1034
aF0.0
ag941
(g35
S'?.\xdb7x\x85\xd7A'
p1035
tp1036
Rp1037
ag941
(g35
S'\xc7]\x9c\xe5\xc1J\x90A'
p1038
tp1039
Rp1040
ag941
(g35
S'\x17\x96\xbb\xe7\xa8\xebsA'
p1041
tp1042
Rp1043
ag941
(g35
S'\xc0l\n\xb2\x95\xcb\xc1A'
p1044
tp1045
Rp1046
aF0.0
ag941
(g35
S'\xf8\xfb\x0c\x10\xdf\xa3\xbdA'
p1047
tp1048
Rp1049
ag941
(g35
S'\x12\x00a\xc8\xc1\x10\xa0A'
p1050
tp1051
Rp1052
ag941
(g35
S'_\xd7\xd8\x04\x1b&\xbcA'
p1053
tp1054
Rp1055
aF0.0
ag941
(g35
S'\xbc\x0f\xc3\xac\x83\x0b\xceA'
p1056
tp1057
Rp1058
ag941
(g35
S'\xbd\x90\x8b\xf4\x93\xec?A'
p1059
tp1060
Rp1061
ag941
(g35
S'dx\x03\'"\x0e]A'
p1062
tp1063
Rp1064
aF0.0
aF0.0
ag941
(g35
S'\xdb\xb7\xb7\xd6^\xafXA'
p1065
tp1066
Rp1067
ag941
(g35
S'\xf5:\xc6\x1d\x0e\xe4\xc1A'
p1068
tp1069
Rp1070
ag941
(g35
S'O\xc4\x03\xb7\xa2DiA'
p1071
tp1072
Rp1073
ag941
(g35
S'\xc6l\xe3\xdf\x1d+\xf4@'
p1074
tp1075
Rp1076
ag941
(g35
S'\xb47*\x1e\xfc\xdc}A'
p1077
tp1078
Rp1079
ag941
(g35
S'_z\xfd\t\x1c\xe9\xc8A'
p1080
tp1081
Rp1082
aF0.0
ag941
(g35
S'\x00\xd6\xbb\xaeze\xd1@'
p1083
tp1084
Rp1085
ag941
(g35
S'=\xa4\xb2KD\xb9\xe3A'
p1086
tp1087
Rp1088
ag941
(g35
S'\xe3D\xcd\xad\x97K\xecA'
p1089
tp1090
Rp1091
ag941
(g35
S'\x86)\x9c\x1b\x00\x99\xc8A'
p1092
tp1093
Rp1094
aF0.0
ag941
(g35
S'\xdd\x0e\xc1\xed\xaer\xcbA'
p1095
tp1096
Rp1097
ag941
(g35
S'\xce\xf9\x87\x07\xd7\xb1\xdfA'
p1098
tp1099
Rp1100
ag941
(g35
S'\xe0J\x0e\xf7\xb5,\x11A'
p1101
tp1102
Rp1103
ag941
(g35
S'KK\xe6?\xfb\xcb\xf6@'
p1104
tp1105
Rp1106
ag941
(g35
S'\xea+A\x15\x1c\xde<A'
p1107
tp1108
Rp1109
ag941
(g35
S'\xa4\x05\xdd-\x82\xa7rA'
p1110
tp1111
Rp1112
ag941
(g35
S'I\xbeH\x9d\xa3\xf7\x9bA'
p1113
tp1114
Rp1115
ag941
(g35
S'\n\x950\xc3*H>A'
p1116
tp1117
Rp1118
ag941
(g35
S'\xb1\x8e38JQrA'
p1119
tp1120
Rp1121
ag941
(g35
S'\xc0\xf7\x0b\x03\x95\x9e\xf2A'
p1122
tp1123
Rp1124
aF0.0
ag941
(g35
S'F\x1bB\x0ezj\xe5A'
p1125
tp1126
Rp1127
ag941
(g35
S'#\xf8?3\xd9&\x8fA'
p1128
tp1129
Rp1130
aF0.0
ag941
(g35
S'\x15\x07\xe6\xce(\xd9\xe4A'
p1131
tp1132
Rp1133
ag941
(g35
S'!\xe7\x1c\xfbjr\xe0A'
p1134
tp1135
Rp1136
ag941
(g35
S'Oi\x80\xc2\xba\xc8\xe2A'
p1137
tp1138
Rp1139
ag941
(g35
S'\xcf\x92\x88e\xdc\xc1\x08B'
p1140
tp1141
Rp1142
ag941
(g35
S'\xbd8y&\x99\x85\xe8A'
p1143
tp1144
Rp1145
ag941
(g35
S'\xac\xbb\xc5u\x18x\xddA'
p1146
tp1147
Rp1148
ag941
(g35
S'k\x10\xe5\xf4\x9c\x06\x04B'
p1149
tp1150
Rp1151
ag941
(g35
S'G\xad\xb8Q\x89\x86\x85A'
p1152
tp1153
Rp1154
aF0.0
ag941
(g35
S'\xe3\xf4\x95|\x8f\x1d\x93A'
p1155
tp1156
Rp1157
aa.