(lp0
(lp1
cnumpy.core.multiarray
_reconstruct
p2
(cpynbody.array
SimArray
p3
(I0
tp4
S'b'
p5
tp6
Rp7
(ccopy_reg
_reconstructor
p8
(cpynbody.units
CompositeUnit
p9
c__builtin__
object
p10
Ntp11
Rp12
(dp13
S'_powers'
p14
(lp15
I1
asS'_scale'
p16
I1
sS'_bases'
p17
(lp18
cpynbody.units
_resurrect_named_unit
p19
(S'Msol'
p20
S'M_{\\odot}'
p21
g8
(g9
g10
Ntp22
Rp23
(dp24
g14
(lp25
I1
asg16
F1.98892e+30
sg17
(lp26
g19
(S'kg'
p27
NNtp28
Rp29
asbtp30
Rp31
asbI1
(tcnumpy
dtype
p32
(S'f8'
p33
I0
I1
tp34
Rp35
(I3
S'<'
p36
NNNI-1
I-1
I0
tp37
bI00
S'U\xf0B\xd3\xae\x97TB'
p38
tp39
bag2
(g3
(I0
tp40
g5
tp41
Rp42
(g8
(g9
g10
Ntp43
Rp44
(dp45
g14
(lp46
I1
asg16
I1
sg17
(lp47
g31
asbI1
(tg35
I00
S'\x86\xa5\x87\x89qZ\x16B'
p48
tp49
bag2
(g3
(I0
tp50
g5
tp51
Rp52
(g8
(g9
g10
Ntp53
Rp54
(dp55
g14
(lp56
I1
asg16
I1
sg17
(lp57
g31
asbI1
(tg35
I00
S'K]\xb5\x9d\xeb\xc4RB'
p58
tp59
bag2
(g3
(I0
tp60
g5
tp61
Rp62
(g8
(g9
g10
Ntp63
Rp64
(dp65
g14
(lp66
I1
asg16
I1
sg17
(lp67
g31
asbI1
(tg35
I00
S'\xf1s>\xfc5Q\xd6A'
p68
tp69
bag2
(g3
(I0
tp70
g5
tp71
Rp72
(g8
(g9
g10
Ntp73
Rp74
(dp75
g14
(lp76
I1
asg16
I1
sg17
(lp77
g31
asbI1
(tg35
I00
S'\xa7\xe4\xe4-3\xc2\x11B'
p78
tp79
bag2
(g3
(I0
tp80
g5
tp81
Rp82
(g8
(g9
g10
Ntp83
Rp84
(dp85
g14
(lp86
I1
asg16
I1
sg17
(lp87
g31
asbI1
(tg35
I00
S'\xc2\x1e\xba\xc4\xe9ZOB'
p88
tp89
bag2
(g3
(I0
tp90
g5
tp91
Rp92
(g8
(g9
g10
Ntp93
Rp94
(dp95
g14
(lp96
I1
asg16
I1
sg17
(lp97
g31
asbI1
(tg35
I00
S'\x1aG\x81\xf0o-\x14B'
p98
tp99
baa(lp100
cnumpy.core.multiarray
scalar
p101
(g35
S'\xfa\xa1\xb9\xc2\x1b\xa2\xb3A'
p102
tp103
Rp104
ag101
(g35
S'\x89\xc9\xd8\x04\xcd(\xa9A'
p105
tp106
Rp107
ag101
(g35
S'c_|\x88#k\xaeA'
p108
tp109
Rp110
ag101
(g35
S'\xc25\xb0\xe8\x00\xf0\xb0A'
p111
tp112
Rp113
ag101
(g35
S'\xd9\x03 r\xb4\xd4\xb5A'
p114
tp115
Rp116
ag101
(g35
S'&&\xbf>\xc7\x0e\xcaA'
p117
tp118
Rp119
ag101
(g35
S'\x8f_\x02\x0b\x14a\x96A'
p120
tp121
Rp122
aa.