(dp0
S'g2.34e10'
p1
(lp2
I1
aI1
aI1
aI1
aI1
aI1
aI1
aI1
aI1
aI1
aI1
aI1
aI1
aI1
aI1
aI1
aI1
aI1
aI1
aI1
aI1
aI1
aI1
aI1
aI1
aI1
aI1
aI1
aI1
aI1
aI1
aI1
aI1
aI1
aI1
aI1
aI1
aI1
aI1
aI1
aI1
aI1
aI1
aI1
aI1
aI1
aI1
aI1
aI1
aI1
aI1
aI1
aI1
aI1
aI2
aI2
aI2
aI2
aI2
aI714
aI652
asS'g2.37e10'
p3
(lp4
I1
aI1
aI1
aI1
aI1
aI1
aI1
aI1
aI1
aI1
aI1
aI1
aI1
aI1
aI1
aI1
aI1
aI1
aI1
aI1
aI1
aI1
aI1
aI1
aI1
aI1
aI1
aI1
aI1
aI1
aI1
aI1
aI1
aI1
aI1
aI1
aI1
aI1
aI1
aI1
aI1
aI1
aI1
aI1
aI1
aI1
aI2
aI2
aI2
aI2
aI2
aI2
aI2
aI2
aI2
aI2
aI2
aI2
aI2
aI2
aI1
aI2
aI2
asS'g1.23e10'
p5
(lp6
I1
aI1
aI1
aI1
aI1
aI1
aI1
aI1
aI1
aI1
aI2
aI2
aI2
aI2
aI1
aI1
aI1
aI1
aI1
aI1
aI1
aI1
aI1
aI1
aI1
aI1
aI1
aI1
aI1
aI1
aI1
aI1
aI1
aI1
aI1
aI1
aI1
aI1
aI1
aI1
aI1
aI1
aI1
aI1
aI1
aI1
aI1
aI1
aI1
aI1
aI1
aI1
aI1
aI1
aI1
aI1
aI1
aI1
aI1
aI1
aI1
aI1
aI1
aI5
aI1
asS'g3.67e10'
p7
(lp8
I0
asS'g2.09e10'
p9
(lp10
I0
asS'g4.94e10'
p11
(lp12
I0
asS'g1.52e11'
p13
(lp14
I0
asS'g4.99e09'
p15
(lp16
I0
asS'g1.88e10'
p17
(lp18
I0
asS'g1.50e10'
p19
(lp20
I0
asS'g1.09e10'
p21
(lp22
I0
asS'g1.92e12'
p23
(lp24
I0
asS'g1.92e10'
p25
(lp26
I0
asS'g1.77e12'
p27
(lp28
I0
asS'g4.99e10'
p29
(lp30
I0
asS'g1.05e11'
p31
(lp32
I0
asS'g1.57e10'
p33
(lp34
I0
asS'g1.57e11'
p35
(lp36
I0
asS'g1.44e10'
p37
(lp38
I0
asS'g1.47e10'
p39
(lp40
I0
asS'g4.27e10'
p41
(lp42
I0
asS'g1.89e10'
p43
(lp44
I0
asS'g1.08e11'
p45
(lp46
I0
asS'g1.95e10'
p47
(lp48
I0
asS'g5.36e11'
p49
(lp50
I0
asS'g4.86e10'
p51
(lp52
I0
asS'g4.48e10'
p53
(lp54
I0
asS'g4.36e09'
p55
(lp56
I0
asS'g2.39e10'
p57
(lp58
I0
asS'g3.93e10'
p59
(lp60
I0
asS'g5.02e11'
p61
(lp62
I0
asS'g5.22e09'
p63
(lp64
I0
asS'g1.59e11'
p65
(lp66
I0
asS'g1.64e11'
p67
(lp68
I0
asS'g2.19e11'
p69
(lp70
I0
asS'g1.12e12'
p71
(lp72
I0
asS'g2.04e11'
p73
(lp74
I0
asS'g1.37e11'
p75
(lp76
I0
asS'g2.42e11'
p77
(lp78
I0
asS'g1.18e10'
p79
(lp80
I0
asS'g2.41e11'
p81
(lp82
I0
asS'g4.90e11'
p83
(lp84
I0
asS'g3.71e11'
p85
(lp86
I0
asS'g1.90e10'
p87
(lp88
I0
asS'g5.05e10'
p89
(lp90
I0
as.