(dp0
S'mstar'
p1
(lp2
cnumpy.core.multiarray
_reconstruct
p3
(cpynbody.array
SimArray
p4
(I0
tp5
S'b'
p6
tp7
Rp8
(ccopy_reg
_reconstructor
p9
(cpynbody.units
CompositeUnit
p10
c__builtin__
object
p11
Ntp12
Rp13
(dp14
S'_powers'
p15
(lp16
I1
asS'_scale'
p17
I1
sS'_bases'
p18
(lp19
cpynbody.units
_resurrect_named_unit
p20
(S'Msol'
p21
S'M_{\\odot}'
p22
g9
(g10
g11
Ntp23
Rp24
(dp25
g15
(lp26
I1
asg17
F1.98892e+30
sg18
(lp27
g20
(S'kg'
p28
NNtp29
Rp30
asbtp31
Rp32
asbI1
(tcnumpy
dtype
p33
(S'f8'
p34
I0
I1
tp35
Rp36
(I3
S'<'
p37
NNNI-1
I-1
I0
tp38
bI00
S'\x00\x00\x00\x00\x00\x00\x00\x00'
p39
tp40
bag3
(g4
(I0
tp41
g6
tp42
Rp43
(g9
(g10
g11
Ntp44
Rp45
(dp46
g15
(lp47
I1
asg17
I1
sg18
(lp48
g32
asbI1
(tg36
I00
S'\x00\x00\x00\x00\x00\x00\x00\x00'
p49
tp50
bag3
(g4
(I0
tp51
g6
tp52
Rp53
(g9
(g10
g11
Ntp54
Rp55
(dp56
g15
(lp57
I1
asg17
I1
sg18
(lp58
g32
asbI1
(tg36
I00
S'\x00\x00\x00\x00\x00\x00\x00\x00'
p59
tp60
bag3
(g4
(I0
tp61
g6
tp62
Rp63
(g9
(g10
g11
Ntp64
Rp65
(dp66
g15
(lp67
I1
asg17
I1
sg18
(lp68
g32
asbI1
(tg36
I00
S'\x00\x00\x00\x00\x00\x00\x00\x00'
p69
tp70
bag3
(g4
(I0
tp71
g6
tp72
Rp73
(g9
(g10
g11
Ntp74
Rp75
(dp76
g15
(lp77
I1
asg17
I1
sg18
(lp78
g32
asbI1
(tg36
I00
S'\x00\x00\x00\x00\x00\x00\x00\x00'
p79
tp80
bag3
(g4
(I0
tp81
g6
tp82
Rp83
(g9
(g10
g11
Ntp84
Rp85
(dp86
g15
(lp87
I1
asg17
I1
sg18
(lp88
g32
asbI1
(tg36
I00
S'\x00\x00\x00\x00\x00\x00\x00\x00'
p89
tp90
bag3
(g4
(I0
tp91
g6
tp92
Rp93
(g9
(g10
g11
Ntp94
Rp95
(dp96
g15
(lp97
I1
asg17
I1
sg18
(lp98
g32
asbI1
(tg36
I00
S'\x00\x00\x00\x00\x00\x00\x00\x00'
p99
tp100
bag3
(g4
(I0
tp101
g6
tp102
Rp103
(g9
(g10
g11
Ntp104
Rp105
(dp106
g15
(lp107
I1
asg17
I1
sg18
(lp108
g32
asbI1
(tg36
I00
S'\x00\x00\x00\x00\x00\x00\x00\x00'
p109
tp110
bag3
(g4
(I0
tp111
g6
tp112
Rp113
(g9
(g10
g11
Ntp114
Rp115
(dp116
g15
(lp117
I1
asg17
I1
sg18
(lp118
g32
asbI1
(tg36
I00
S'\x00\x00\x00\x00\x00\x00\x00\x00'
p119
tp120
bag3
(g4
(I0
tp121
g6
tp122
Rp123
(g9
(g10
g11
Ntp124
Rp125
(dp126
g15
(lp127
I1
asg17
I1
sg18
(lp128
g32
asbI1
(tg36
I00
S'\x00\x00\x00\x00\x00\x00\x00\x00'
p129
tp130
bag3
(g4
(I0
tp131
g6
tp132
Rp133
(g9
(g10
g11
Ntp134
Rp135
(dp136
g15
(lp137
I1
asg17
I1
sg18
(lp138
g32
asbI1
(tg36
I00
S'\x00\x00\x00\x00\x00\x00\x00\x00'
p139
tp140
bag3
(g4
(I0
tp141
g6
tp142
Rp143
(g9
(g10
g11
Ntp144
Rp145
(dp146
g15
(lp147
I1
asg17
I1
sg18
(lp148
g32
asbI1
(tg36
I00
S'\x00\x00\x00\x00\x00\x00\x00\x00'
p149
tp150
bag3
(g4
(I0
tp151
g6
tp152
Rp153
(g9
(g10
g11
Ntp154
Rp155
(dp156
g15
(lp157
I1
asg17
I1
sg18
(lp158
g32
asbI1
(tg36
I00
S'\x00\x00\x00\x00\x00\x00\x00\x00'
p159
tp160
bag3
(g4
(I0
tp161
g6
tp162
Rp163
(g9
(g10
g11
Ntp164
Rp165
(dp166
g15
(lp167
I1
asg17
I1
sg18
(lp168
g32
asbI1
(tg36
I00
S'\x00\x00\x00\x00\x00\x00\x00\x00'
p169
tp170
bag3
(g4
(I0
tp171
g6
tp172
Rp173
(g9
(g10
g11
Ntp174
Rp175
(dp176
g15
(lp177
I1
asg17
I1
sg18
(lp178
g32
asbI1
(tg36
I00
S'\x00\x00\x00\x00\x00\x00\x00\x00'
p179
tp180
bag3
(g4
(I0
tp181
g6
tp182
Rp183
(g9
(g10
g11
Ntp184
Rp185
(dp186
g15
(lp187
I1
asg17
I1
sg18
(lp188
g32
asbI1
(tg36
I00
S'\x00\x00\x00\x00\x00\x00\x00\x00'
p189
tp190
bag3
(g4
(I0
tp191
g6
tp192
Rp193
(g9
(g10
g11
Ntp194
Rp195
(dp196
g15
(lp197
I1
asg17
I1
sg18
(lp198
g32
asbI1
(tg36
I00
S'\x00\x00\x00\x00\x00\x00\x00\x00'
p199
tp200
bag3
(g4
(I0
tp201
g6
tp202
Rp203
(g9
(g10
g11
Ntp204
Rp205
(dp206
g15
(lp207
I1
asg17
I1
sg18
(lp208
g32
asbI1
(tg36
I00
S'\x00\x00\x00\x00\x00\x00\x00\x00'
p209
tp210
bag3
(g4
(I0
tp211
g6
tp212
Rp213
(g9
(g10
g11
Ntp214
Rp215
(dp216
g15
(lp217
I1
asg17
I1
sg18
(lp218
g32
asbI1
(tg36
I00
S'\x00\x00\x00\x00\x00\x00\x00\x00'
p219
tp220
bag3
(g4
(I0
tp221
g6
tp222
Rp223
(g9
(g10
g11
Ntp224
Rp225
(dp226
g15
(lp227
I1
asg17
I1
sg18
(lp228
g32
asbI1
(tg36
I00
S'\x00\x00\x00\x00\x00\x00\x00\x00'
p229
tp230
bag3
(g4
(I0
tp231
g6
tp232
Rp233
(g9
(g10
g11
Ntp234
Rp235
(dp236
g15
(lp237
I1
asg17
I1
sg18
(lp238
g32
asbI1
(tg36
I00
S'\x00\x00\x00\x00\x00\x00\x00\x00'
p239
tp240
bag3
(g4
(I0
tp241
g6
tp242
Rp243
(g9
(g10
g11
Ntp244
Rp245
(dp246
g15
(lp247
I1
asg17
I1
sg18
(lp248
g32
asbI1
(tg36
I00
S'\x00\x00\x00\x00\x00\x00\x00\x00'
p249
tp250
bag3
(g4
(I0
tp251
g6
tp252
Rp253
(g9
(g10
g11
Ntp254
Rp255
(dp256
g15
(lp257
I1
asg17
I1
sg18
(lp258
g32
asbI1
(tg36
I00
S'\x00\x00\x00\x00\x00\x00\x00\x00'
p259
tp260
bag3
(g4
(I0
tp261
g6
tp262
Rp263
(g9
(g10
g11
Ntp264
Rp265
(dp266
g15
(lp267
I1
asg17
I1
sg18
(lp268
g32
asbI1
(tg36
I00
S'\x00\x00\x00\x00\x00\x00\x00\x00'
p269
tp270
bag3
(g4
(I0
tp271
g6
tp272
Rp273
(g9
(g10
g11
Ntp274
Rp275
(dp276
g15
(lp277
I1
asg17
I1
sg18
(lp278
g32
asbI1
(tg36
I00
S'\x00\x00\x00\x00\x00\x00\x00\x00'
p279
tp280
bag3
(g4
(I0
tp281
g6
tp282
Rp283
(g9
(g10
g11
Ntp284
Rp285
(dp286
g15
(lp287
I1
asg17
I1
sg18
(lp288
g32
asbI1
(tg36
I00
S'\x00\x00\x00\x00\x00\x00\x00\x00'
p289
tp290
bag3
(g4
(I0
tp291
g6
tp292
Rp293
(g9
(g10
g11
Ntp294
Rp295
(dp296
g15
(lp297
I1
asg17
I1
sg18
(lp298
g32
asbI1
(tg36
I00
S'\x00\x00\x00\x00\x00\x00\x00\x00'
p299
tp300
basS'mbh'
p301
(lp302
I0
aI0
aI0
aI0
aI0
ag3
(g4
(I0
tp303
g6
tp304
Rp305
(g9
(g10
g11
Ntp306
Rp307
(dp308
g15
(lp309
I1
asg17
I1
sg18
(lp310
g32
asbI1
(tg36
I00
S'o\xc5\x01B\x81~\xe3@'
p311
tp312
bag3
(g4
(I0
tp313
g6
tp314
Rp315
(g9
(g10
g11
Ntp316
Rp317
(dp318
g15
(lp319
I1
asg17
I1
sg18
(lp320
g32
asbI1
(tg36
I00
S'9p\xef\x1cP\x0e\xe4@'
p321
tp322
bag3
(g4
(I0
tp323
g6
tp324
Rp325
(g9
(g10
g11
Ntp326
Rp327
(dp328
g15
(lp329
I1
asg17
I1
sg18
(lp330
g32
asbI1
(tg36
I00
S'\xe0[8\x9ar\x07\xe5@'
p331
tp332
bag3
(g4
(I0
tp333
g6
tp334
Rp335
(g9
(g10
g11
Ntp336
Rp337
(dp338
g15
(lp339
I1
asg17
I1
sg18
(lp340
g32
asbI1
(tg36
I00
S'7\xdc\x17|O\xad\xe5@'
p341
tp342
bag3
(g4
(I0
tp343
g6
tp344
Rp345
(g9
(g10
g11
Ntp346
Rp347
(dp348
g15
(lp349
I1
asg17
I1
sg18
(lp350
g32
asbI1
(tg36
I00
S'\xbe\xe5\x0f\xd9\x84\x0b\xe7@'
p351
tp352
bag3
(g4
(I0
tp353
g6
tp354
Rp355
(g9
(g10
g11
Ntp356
Rp357
(dp358
g15
(lp359
I1
asg17
I1
sg18
(lp360
g32
asbI1
(tg36
I00
S'\x08\x88\x0b\xb2b0\xe8@'
p361
tp362
bag3
(g4
(I0
tp363
g6
tp364
Rp365
(g9
(g10
g11
Ntp366
Rp367
(dp368
g15
(lp369
I1
asg17
I1
sg18
(lp370
g32
asbI1
(tg36
I00
S'\x9d\xc7\x0f\xe7@\x8f\xe8@'
p371
tp372
bag3
(g4
(I0
tp373
g6
tp374
Rp375
(g9
(g10
g11
Ntp376
Rp377
(dp378
g15
(lp379
I1
asg17
I1
sg18
(lp380
g32
asbI1
(tg36
I00
S'\xd4\xdcj\xb9\xc7*\xea@'
p381
tp382
bag3
(g4
(I0
tp383
g6
tp384
Rp385
(g9
(g10
g11
Ntp386
Rp387
(dp388
g15
(lp389
I1
asg17
I1
sg18
(lp390
g32
asbI1
(tg36
I00
S':\x19")\xf2\x16\xeb@'
p391
tp392
bag3
(g4
(I0
tp393
g6
tp394
Rp395
(g9
(g10
g11
Ntp396
Rp397
(dp398
g15
(lp399
I1
asg17
I1
sg18
(lp400
g32
asbI1
(tg36
I00
S'G\x00W\xfa\xe5\xb4\xed@'
p401
tp402
bag3
(g4
(I0
tp403
g6
tp404
Rp405
(g9
(g10
g11
Ntp406
Rp407
(dp408
g15
(lp409
I1
asg17
I1
sg18
(lp410
g32
asbI1
(tg36
I00
S'^\xff\x00\xea6\x16\xef@'
p411
tp412
bag3
(g4
(I0
tp413
g6
tp414
Rp415
(g9
(g10
g11
Ntp416
Rp417
(dp418
g15
(lp419
I1
asg17
I1
sg18
(lp420
g32
asbI1
(tg36
I00
S'\xbcC\x84\x13\xf0\x11\xf0@'
p421
tp422
bag3
(g4
(I0
tp423
g6
tp424
Rp425
(g9
(g10
g11
Ntp426
Rp427
(dp428
g15
(lp429
I1
asg17
I1
sg18
(lp430
g32
asbI1
(tg36
I00
S'\xc5\xdf\xdb\xa4]9\xf1@'
p431
tp432
bag3
(g4
(I0
tp433
g6
tp434
Rp435
(g9
(g10
g11
Ntp436
Rp437
(dp438
g15
(lp439
I1
asg17
I1
sg18
(lp440
g32
asbI1
(tg36
I00
S'\x11u\xf3\x0c\x04\xb2\xfd@'
p441
tp442
bag3
(g4
(I0
tp443
g6
tp444
Rp445
(g9
(g10
g11
Ntp446
Rp447
(dp448
g15
(lp449
I1
asg17
I1
sg18
(lp450
g32
asbI1
(tg36
I00
S'z\xd4\xdc\x00\xd8\n\x00A'
p451
tp452
bag3
(g4
(I0
tp453
g6
tp454
Rp455
(g9
(g10
g11
Ntp456
Rp457
(dp458
g15
(lp459
I1
asg17
I1
sg18
(lp460
g32
asbI1
(tg36
I00
S'\x01C\xd2s\xe4\x9b\x00A'
p461
tp462
bag3
(g4
(I0
tp463
g6
tp464
Rp465
(g9
(g10
g11
Ntp466
Rp467
(dp468
g15
(lp469
I1
asg17
I1
sg18
(lp470
g32
asbI1
(tg36
I00
S'\x9b\xd3~7\xad9\x01A'
p471
tp472
bag3
(g4
(I0
tp473
g6
tp474
Rp475
(g9
(g10
g11
Ntp476
Rp477
(dp478
g15
(lp479
I1
asg17
I1
sg18
(lp480
g32
asbI1
(tg36
I00
S'"\xd0>\x9c\xf9\x08\x02A'
p481
tp482
bag3
(g4
(I0
tp483
g6
tp484
Rp485
(g9
(g10
g11
Ntp486
Rp487
(dp488
g15
(lp489
I1
asg17
I1
sg18
(lp490
g32
asbI1
(tg36
I00
S'\xa6\xe0#\x7f\xac!\x03A'
p491
tp492
bag3
(g4
(I0
tp493
g6
tp494
Rp495
(g9
(g10
g11
Ntp496
Rp497
(dp498
g15
(lp499
I1
asg17
I1
sg18
(lp500
g32
asbI1
(tg36
I00
S'\xef\x00er+X\x04A'
p501
tp502
bag3
(g4
(I0
tp503
g6
tp504
Rp505
(g9
(g10
g11
Ntp506
Rp507
(dp508
g15
(lp509
I1
asg17
I1
sg18
(lp510
g32
asbI1
(tg36
I00
S'\xbc\x0e\xc9J\x862\x05A'
p511
tp512
bag3
(g4
(I0
tp513
g6
tp514
Rp515
(g9
(g10
g11
Ntp516
Rp517
(dp518
g15
(lp519
I1
asg17
I1
sg18
(lp520
g32
asbI1
(tg36
I00
S'^*\xd2\xd9\xd1\xce\x05A'
p521
tp522
basS'time'
p523
(lp524
F0.23300961933541556
aF0.4487790310364503
aF0.6645484427374855
aF0.8803178544385206
aF1.0960872661395555
aF1.3118566778405905
aF1.5276260895416252
aF1.7433955012426607
aF1.959164912943703
aF2.1749343246447546
aF2.390703736345835
aF2.606473148046933
aF2.8222425597478225
aF3.0380119714488574
aF3.253781383149897
aF3.4695507948509334
aF3.6853202065519723
aF3.90108961825301
aF4.116859029954044
aF4.332628441655085
aF4.548397853356118
aF4.76416726505716
aF4.9799366767582
aF5.195706088459233
aF5.411475500160272
aF5.6272449118613
aF5.8430143234196965
as.