(dp0
S'mstar'
p1
(lp2
cnumpy.core.multiarray
_reconstruct
p3
(cpynbody.array
SimArray
p4
(I0
tp5
S'b'
p6
tp7
Rp8
(ccopy_reg
_reconstructor
p9
(cpynbody.units
CompositeUnit
p10
c__builtin__
object
p11
Ntp12
Rp13
(dp14
S'_powers'
p15
(lp16
I1
asS'_scale'
p17
I1
sS'_bases'
p18
(lp19
cpynbody.units
_resurrect_named_unit
p20
(S'Msol'
p21
S'M_{\\odot}'
p22
g9
(g10
g11
Ntp23
Rp24
(dp25
g15
(lp26
I1
asg17
F1.98892e+30
sg18
(lp27
g20
(S'kg'
p28
NNtp29
Rp30
asbtp31
Rp32
asbI1
(tcnumpy
dtype
p33
(S'f8'
p34
I0
I1
tp35
Rp36
(I3
S'<'
p37
NNNI-1
I-1
I0
tp38
bI00
S'\x00\x00\x00\x00\x00\x00\x00\x00'
p39
tp40
bag3
(g4
(I0
tp41
g6
tp42
Rp43
(g9
(g10
g11
Ntp44
Rp45
(dp46
g15
(lp47
I1
asg17
I1
sg18
(lp48
g32
asbI1
(tg36
I00
S'\xa3\xb6\xe8\x97=\xf1`A'
p49
tp50
bag3
(g4
(I0
tp51
g6
tp52
Rp53
(g9
(g10
g11
Ntp54
Rp55
(dp56
g15
(lp57
I1
asg17
I1
sg18
(lp58
g32
asbI1
(tg36
I00
S'\x01\x92\xe5\x0e.z\xb1A'
p59
tp60
bag3
(g4
(I0
tp61
g6
tp62
Rp63
(g9
(g10
g11
Ntp64
Rp65
(dp66
g15
(lp67
I1
asg17
I1
sg18
(lp68
g32
asbI1
(tg36
I00
S'\xb4\x1a\xffh=\xfb\xe3A'
p69
tp70
bag3
(g4
(I0
tp71
g6
tp72
Rp73
(g9
(g10
g11
Ntp74
Rp75
(dp76
g15
(lp77
I1
asg17
I1
sg18
(lp78
g32
asbI1
(tg36
I00
S'`W\xa6\xdf<]\xffA'
p79
tp80
bag3
(g4
(I0
tp81
g6
tp82
Rp83
(g9
(g10
g11
Ntp84
Rp85
(dp86
g15
(lp87
I1
asg17
I1
sg18
(lp88
g32
asbI1
(tg36
I00
S'\x0b"KQq\x85$B'
p89
tp90
bag3
(g4
(I0
tp91
g6
tp92
Rp93
(g9
(g10
g11
Ntp94
Rp95
(dp96
g15
(lp97
I1
asg17
I1
sg18
(lp98
g32
asbI1
(tg36
I00
S'\x96\x90\x16\xd5\xe2\x8c3B'
p99
tp100
bag3
(g4
(I0
tp101
g6
tp102
Rp103
(g9
(g10
g11
Ntp104
Rp105
(dp106
g15
(lp107
I1
asg17
I1
sg18
(lp108
g32
asbI1
(tg36
I00
S'\xa4\xfa\xec;,:;B'
p109
tp110
bag3
(g4
(I0
tp111
g6
tp112
Rp113
(g9
(g10
g11
Ntp114
Rp115
(dp116
g15
(lp117
I1
asg17
I1
sg18
(lp118
g32
asbI1
(tg36
I00
S'\xd6D!8\xf3\xdb@B'
p119
tp120
bag3
(g4
(I0
tp121
g6
tp122
Rp123
(g9
(g10
g11
Ntp124
Rp125
(dp126
g15
(lp127
I1
asg17
I1
sg18
(lp128
g32
asbI1
(tg36
I00
S'\xdc\xc7\xce\x8e\x9f\xd3@B'
p129
tp130
bag3
(g4
(I0
tp131
g6
tp132
Rp133
(g9
(g10
g11
Ntp134
Rp135
(dp136
g15
(lp137
I1
asg17
I1
sg18
(lp138
g32
asbI1
(tg36
I00
S'a\xe5")\xff\x9c@B'
p139
tp140
bag3
(g4
(I0
tp141
g6
tp142
Rp143
(g9
(g10
g11
Ntp144
Rp145
(dp146
g15
(lp147
I1
asg17
I1
sg18
(lp148
g32
asbI1
(tg36
I00
S'4\xe6i\x7f\xf0\xd1@B'
p149
tp150
bag3
(g4
(I0
tp151
g6
tp152
Rp153
(g9
(g10
g11
Ntp154
Rp155
(dp156
g15
(lp157
I1
asg17
I1
sg18
(lp158
g32
asbI1
(tg36
I00
S'G\xe4W\x95\xb8\xd1AB'
p159
tp160
bag3
(g4
(I0
tp161
g6
tp162
Rp163
(g9
(g10
g11
Ntp164
Rp165
(dp166
g15
(lp167
I1
asg17
I1
sg18
(lp168
g32
asbI1
(tg36
I00
S'\xeaY\xb2Nf\xfeAB'
p169
tp170
bag3
(g4
(I0
tp171
g6
tp172
Rp173
(g9
(g10
g11
Ntp174
Rp175
(dp176
g15
(lp177
I1
asg17
I1
sg18
(lp178
g32
asbI1
(tg36
I00
S'\xb4)\\\xf9\xf1OBB'
p179
tp180
bag3
(g4
(I0
tp181
g6
tp182
Rp183
(g9
(g10
g11
Ntp184
Rp185
(dp186
g15
(lp187
I1
asg17
I1
sg18
(lp188
g32
asbI1
(tg36
I00
S'5\xd1[rc\x90BB'
p189
tp190
bag3
(g4
(I0
tp191
g6
tp192
Rp193
(g9
(g10
g11
Ntp194
Rp195
(dp196
g15
(lp197
I1
asg17
I1
sg18
(lp198
g32
asbI1
(tg36
I00
S'J7\x90\x08\xd3\xa8BB'
p199
tp200
bag3
(g4
(I0
tp201
g6
tp202
Rp203
(g9
(g10
g11
Ntp204
Rp205
(dp206
g15
(lp207
I1
asg17
I1
sg18
(lp208
g32
asbI1
(tg36
I00
S'\x1c\xc0C#\xe7\xcbBB'
p209
tp210
bag3
(g4
(I0
tp211
g6
tp212
Rp213
(g9
(g10
g11
Ntp214
Rp215
(dp216
g15
(lp217
I1
asg17
I1
sg18
(lp218
g32
asbI1
(tg36
I00
S'd0\xcf!\xf4\xcaBB'
p219
tp220
bag3
(g4
(I0
tp221
g6
tp222
Rp223
(g9
(g10
g11
Ntp224
Rp225
(dp226
g15
(lp227
I1
asg17
I1
sg18
(lp228
g32
asbI1
(tg36
I00
S'\x8d0\x11\x82\x85\xc2BB'
p229
tp230
bag3
(g4
(I0
tp231
g6
tp232
Rp233
(g9
(g10
g11
Ntp234
Rp235
(dp236
g15
(lp237
I1
asg17
I1
sg18
(lp238
g32
asbI1
(tg36
I00
S'\xb7"\xceb\xc8\xabBB'
p239
tp240
bag3
(g4
(I0
tp241
g6
tp242
Rp243
(g9
(g10
g11
Ntp244
Rp245
(dp246
g15
(lp247
I1
asg17
I1
sg18
(lp248
g32
asbI1
(tg36
I00
S'\xf9\xa6\x8e\r\xb7\xb3DB'
p249
tp250
bag3
(g4
(I0
tp251
g6
tp252
Rp253
(g9
(g10
g11
Ntp254
Rp255
(dp256
g15
(lp257
I1
asg17
I1
sg18
(lp258
g32
asbI1
(tg36
I00
S']\xac~u\x08\xddDB'
p259
tp260
bag3
(g4
(I0
tp261
g6
tp262
Rp263
(g9
(g10
g11
Ntp264
Rp265
(dp266
g15
(lp267
I1
asg17
I1
sg18
(lp268
g32
asbI1
(tg36
I00
S'\xcf\xd4?\xcf\xa7\xf7DB'
p269
tp270
bag3
(g4
(I0
tp271
g6
tp272
Rp273
(g9
(g10
g11
Ntp274
Rp275
(dp276
g15
(lp277
I1
asg17
I1
sg18
(lp278
g32
asbI1
(tg36
I00
S'\x1b\xe5\xa1\x1c\x99\xf4DB'
p279
tp280
bag3
(g4
(I0
tp281
g6
tp282
Rp283
(g9
(g10
g11
Ntp284
Rp285
(dp286
g15
(lp287
I1
asg17
I1
sg18
(lp288
g32
asbI1
(tg36
I00
S'\x01\x8e\xf8\x13b\xe6DB'
p289
tp290
bag3
(g4
(I0
tp291
g6
tp292
Rp293
(g9
(g10
g11
Ntp294
Rp295
(dp296
g15
(lp297
I1
asg17
I1
sg18
(lp298
g32
asbI1
(tg36
I00
S'\x03\xddg*\xef^BB'
p299
tp300
bag3
(g4
(I0
tp301
g6
tp302
Rp303
(g9
(g10
g11
Ntp304
Rp305
(dp306
g15
(lp307
I1
asg17
I1
sg18
(lp308
g32
asbI1
(tg36
I00
S'l\x81\xfc`lHBB'
p309
tp310
bag3
(g4
(I0
tp311
g6
tp312
Rp313
(g9
(g10
g11
Ntp314
Rp315
(dp316
g15
(lp317
I1
asg17
I1
sg18
(lp318
g32
asbI1
(tg36
I00
S':jp$/EBB'
p319
tp320
bag3
(g4
(I0
tp321
g6
tp322
Rp323
(g9
(g10
g11
Ntp324
Rp325
(dp326
g15
(lp327
I1
asg17
I1
sg18
(lp328
g32
asbI1
(tg36
I00
S'\xd5Y_\x92\xe89BB'
p329
tp330
bag3
(g4
(I0
tp331
g6
tp332
Rp333
(g9
(g10
g11
Ntp334
Rp335
(dp336
g15
(lp337
I1
asg17
I1
sg18
(lp338
g32
asbI1
(tg36
I00
S'.\x90\xd0=F:BB'
p339
tp340
bag3
(g4
(I0
tp341
g6
tp342
Rp343
(g9
(g10
g11
Ntp344
Rp345
(dp346
g15
(lp347
I1
asg17
I1
sg18
(lp348
g32
asbI1
(tg36
I00
S'\xca\xe5\xe0}\x9fhDB'
p349
tp350
bag3
(g4
(I0
tp351
g6
tp352
Rp353
(g9
(g10
g11
Ntp354
Rp355
(dp356
g15
(lp357
I1
asg17
I1
sg18
(lp358
g32
asbI1
(tg36
I00
S'\x99V\xdcRQ\x9bDB'
p359
tp360
bag3
(g4
(I0
tp361
g6
tp362
Rp363
(g9
(g10
g11
Ntp364
Rp365
(dp366
g15
(lp367
I1
asg17
I1
sg18
(lp368
g32
asbI1
(tg36
I00
S'q\x9b# \xed\xa5DB'
p369
tp370
bag3
(g4
(I0
tp371
g6
tp372
Rp373
(g9
(g10
g11
Ntp374
Rp375
(dp376
g15
(lp377
I1
asg17
I1
sg18
(lp378
g32
asbI1
(tg36
I00
S"Qt'\x11\x9b\x9eDB"
p379
tp380
bag3
(g4
(I0
tp381
g6
tp382
Rp383
(g9
(g10
g11
Ntp384
Rp385
(dp386
g15
(lp387
I1
asg17
I1
sg18
(lp388
g32
asbI1
(tg36
I00
S'\xbd\xe3$x\r\x9dDB'
p389
tp390
bag3
(g4
(I0
tp391
g6
tp392
Rp393
(g9
(g10
g11
Ntp394
Rp395
(dp396
g15
(lp397
I1
asg17
I1
sg18
(lp398
g32
asbI1
(tg36
I00
S'A3t\xd4\x00\x8dDB'
p399
tp400
bag3
(g4
(I0
tp401
g6
tp402
Rp403
(g9
(g10
g11
Ntp404
Rp405
(dp406
g15
(lp407
I1
asg17
I1
sg18
(lp408
g32
asbI1
(tg36
I00
S'\x87\x80\xcd\xad\x10\x83DB'
p409
tp410
bag3
(g4
(I0
tp411
g6
tp412
Rp413
(g9
(g10
g11
Ntp414
Rp415
(dp416
g15
(lp417
I1
asg17
I1
sg18
(lp418
g32
asbI1
(tg36
I00
S'V+Q\xaeRxDB'
p419
tp420
bag3
(g4
(I0
tp421
g6
tp422
Rp423
(g9
(g10
g11
Ntp424
Rp425
(dp426
g15
(lp427
I1
asg17
I1
sg18
(lp428
g32
asbI1
(tg36
I00
S'\xaeq\x13\x9c\xbffDB'
p429
tp430
bag3
(g4
(I0
tp431
g6
tp432
Rp433
(g9
(g10
g11
Ntp434
Rp435
(dp436
g15
(lp437
I1
asg17
I1
sg18
(lp438
g32
asbI1
(tg36
I00
S'\xeb\xe0\x120\x08JDB'
p439
tp440
bag3
(g4
(I0
tp441
g6
tp442
Rp443
(g9
(g10
g11
Ntp444
Rp445
(dp446
g15
(lp447
I1
asg17
I1
sg18
(lp448
g32
asbI1
(tg36
I00
S'\x8cP06\xd5\x81\x02B'
p449
tp450
bag3
(g4
(I0
tp451
g6
tp452
Rp453
(g9
(g10
g11
Ntp454
Rp455
(dp456
g15
(lp457
I1
asg17
I1
sg18
(lp458
g32
asbI1
(tg36
I00
S'\x05\xddU\xd3\xa9;\x02B'
p459
tp460
bag3
(g4
(I0
tp461
g6
tp462
Rp463
(g9
(g10
g11
Ntp464
Rp465
(dp466
g15
(lp467
I1
asg17
I1
sg18
(lp468
g32
asbI1
(tg36
I00
S'\x01\x0e\x89(%k\x01B'
p469
tp470
bag3
(g4
(I0
tp471
g6
tp472
Rp473
(g9
(g10
g11
Ntp474
Rp475
(dp476
g15
(lp477
I1
asg17
I1
sg18
(lp478
g32
asbI1
(tg36
I00
S'\x19\xb6\x1fX\xbb3\x01B'
p479
tp480
bag3
(g4
(I0
tp481
g6
tp482
Rp483
(g9
(g10
g11
Ntp484
Rp485
(dp486
g15
(lp487
I1
asg17
I1
sg18
(lp488
g32
asbI1
(tg36
I00
S"'\xea\x93]\xa8\xa6\x01B"
p489
tp490
bag3
(g4
(I0
tp491
g6
tp492
Rp493
(g9
(g10
g11
Ntp494
Rp495
(dp496
g15
(lp497
I1
asg17
I1
sg18
(lp498
g32
asbI1
(tg36
I00
S'\xb2\x12Q\xc6\xd0\x95\x01B'
p499
tp500
bag3
(g4
(I0
tp501
g6
tp502
Rp503
(g9
(g10
g11
Ntp504
Rp505
(dp506
g15
(lp507
I1
asg17
I1
sg18
(lp508
g32
asbI1
(tg36
I00
S'\xc2\xa3q{\x93\x1b\x01B'
p509
tp510
bag3
(g4
(I0
tp511
g6
tp512
Rp513
(g9
(g10
g11
Ntp514
Rp515
(dp516
g15
(lp517
I1
asg17
I1
sg18
(lp518
g32
asbI1
(tg36
I00
S'\x01\xf8/\x13\xea\x12\x01B'
p519
tp520
bag3
(g4
(I0
tp521
g6
tp522
Rp523
(g9
(g10
g11
Ntp524
Rp525
(dp526
g15
(lp527
I1
asg17
I1
sg18
(lp528
g32
asbI1
(tg36
I00
S'\x96\xa0i\xd0\xb9\x8e\x01B'
p529
tp530
bag3
(g4
(I0
tp531
g6
tp532
Rp533
(g9
(g10
g11
Ntp534
Rp535
(dp536
g15
(lp537
I1
asg17
I1
sg18
(lp538
g32
asbI1
(tg36
I00
S'\xb6\xed\xf3\xaa\x1f\xe4\x01B'
p539
tp540
bag3
(g4
(I0
tp541
g6
tp542
Rp543
(g9
(g10
g11
Ntp544
Rp545
(dp546
g15
(lp547
I1
asg17
I1
sg18
(lp548
g32
asbI1
(tg36
I00
S'\x00\x00\x00\x00\x00\x00\x00\x00'
p549
tp550
bag3
(g4
(I0
tp551
g6
tp552
Rp553
(g9
(g10
g11
Ntp554
Rp555
(dp556
g15
(lp557
I1
asg17
I1
sg18
(lp558
g32
asbI1
(tg36
I00
S'\xd9\xae\x90\x0f\xc8:\x05B'
p559
tp560
bag3
(g4
(I0
tp561
g6
tp562
Rp563
(g9
(g10
g11
Ntp564
Rp565
(dp566
g15
(lp567
I1
asg17
I1
sg18
(lp568
g32
asbI1
(tg36
I00
S"\x16\x17'\xfe\x1d\x9e\x05B"
p569
tp570
bag3
(g4
(I0
tp571
g6
tp572
Rp573
(g9
(g10
g11
Ntp574
Rp575
(dp576
g15
(lp577
I1
asg17
I1
sg18
(lp578
g32
asbI1
(tg36
I00
S'\xf1\xe0\xffi \xa1\x05B'
p579
tp580
bag3
(g4
(I0
tp581
g6
tp582
Rp583
(g9
(g10
g11
Ntp584
Rp585
(dp586
g15
(lp587
I1
asg17
I1
sg18
(lp588
g32
asbI1
(tg36
I00
S'n\xbap\xb2\xdeO\x05B'
p589
tp590
bag3
(g4
(I0
tp591
g6
tp592
Rp593
(g9
(g10
g11
Ntp594
Rp595
(dp596
g15
(lp597
I1
asg17
I1
sg18
(lp598
g32
asbI1
(tg36
I00
S'D\xe20vN0\x05B'
p599
tp600
bag3
(g4
(I0
tp601
g6
tp602
Rp603
(g9
(g10
g11
Ntp604
Rp605
(dp606
g15
(lp607
I1
asg17
I1
sg18
(lp608
g32
asbI1
(tg36
I00
S'\xc4\xff2\xaeo%\x05B'
p609
tp610
bag3
(g4
(I0
tp611
g6
tp612
Rp613
(g9
(g10
g11
Ntp614
Rp615
(dp616
g15
(lp617
I1
asg17
I1
sg18
(lp618
g32
asbI1
(tg36
I00
S'\x9b%z \xe4\x8d\x02B'
p619
tp620
bag3
(g4
(I0
tp621
g6
tp622
Rp623
(g9
(g10
g11
Ntp624
Rp625
(dp626
g15
(lp627
I1
asg17
I1
sg18
(lp628
g32
asbI1
(tg36
I00
S'\x0c\x1d\xf9\xebzK\x01B'
p629
tp630
bag3
(g4
(I0
tp631
g6
tp632
Rp633
(g9
(g10
g11
Ntp634
Rp635
(dp636
g15
(lp637
I1
asg17
I1
sg18
(lp638
g32
asbI1
(tg36
I00
S'\t\xbb6\x96\x99\xb8\xfeA'
p639
tp640
bag3
(g4
(I0
tp641
g6
tp642
Rp643
(g9
(g10
g11
Ntp644
Rp645
(dp646
g15
(lp647
I1
asg17
I1
sg18
(lp648
g32
asbI1
(tg36
I00
S'`\xb4\xb3\x92\xe0\xb3\xfcA'
p649
tp650
bag3
(g4
(I0
tp651
g6
tp652
Rp653
(g9
(g10
g11
Ntp654
Rp655
(dp656
g15
(lp657
I1
asg17
I1
sg18
(lp658
g32
asbI1
(tg36
I00
S'\xce\xb7=\x18l\x90\x00B'
p659
tp660
bag3
(g4
(I0
tp661
g6
tp662
Rp663
(g9
(g10
g11
Ntp664
Rp665
(dp666
g15
(lp667
I1
asg17
I1
sg18
(lp668
g32
asbI1
(tg36
I00
S'hd(+\x81{\x02B'
p669
tp670
basS'mbh'
p671
(lp672
I0
aI0
ag3
(g4
(I0
tp673
g6
tp674
Rp675
(g9
(g10
g11
Ntp676
Rp677
(dp678
g15
(lp679
I1
asg17
I1
sg18
(lp680
g32
asbI1
(tg36
I00
S'\xf6\x0bA\xd9\x82\x1f\xf9@'
p681
tp682
bag3
(g4
(I0
tp683
g6
tp684
Rp685
(g9
(g10
g11
Ntp686
Rp687
(dp688
g15
(lp689
I1
asg17
I1
sg18
(lp690
g32
asbI1
(tg36
I00
S'pu\x99\rNG\xfb@'
p691
tp692
bag3
(g4
(I0
tp693
g6
tp694
Rp695
(g9
(g10
g11
Ntp696
Rp697
(dp698
g15
(lp699
I1
asg17
I1
sg18
(lp700
g32
asbI1
(tg36
I00
S'\xe9\xa2\x01\xd2\x11X\xfe@'
p701
tp702
bag3
(g4
(I0
tp703
g6
tp704
Rp705
(g9
(g10
g11
Ntp706
Rp707
(dp708
g15
(lp709
I1
asg17
I1
sg18
(lp710
g32
asbI1
(tg36
I00
S'\xd2\xf6W\xf5\xc5\xdd\x16A'
p711
tp712
bag3
(g4
(I0
tp713
g6
tp714
Rp715
(g9
(g10
g11
Ntp716
Rp717
(dp718
g15
(lp719
I1
asg17
I1
sg18
(lp720
g32
asbI1
(tg36
I00
S'|Q\xc6\x9dV\x151A'
p721
tp722
bag3
(g4
(I0
tp723
g6
tp724
Rp725
(g9
(g10
g11
Ntp726
Rp727
(dp728
g15
(lp729
I1
asg17
I1
sg18
(lp730
g32
asbI1
(tg36
I00
S'b\x1b\xd4\xc6+\xedHA'
p731
tp732
bag3
(g4
(I0
tp733
g6
tp734
Rp735
(g9
(g10
g11
Ntp736
Rp737
(dp738
g15
(lp739
I1
asg17
I1
sg18
(lp740
g32
asbI1
(tg36
I00
S'#\x06\xb1\xeb!M\x8bA'
p741
tp742
bag3
(g4
(I0
tp743
g6
tp744
Rp745
(g9
(g10
g11
Ntp746
Rp747
(dp748
g15
(lp749
I1
asg17
I1
sg18
(lp750
g32
asbI1
(tg36
I00
S's\x00!S\x8e\r\xb3A'
p751
tp752
bag3
(g4
(I0
tp753
g6
tp754
Rp755
(g9
(g10
g11
Ntp756
Rp757
(dp758
g15
(lp759
I1
asg17
I1
sg18
(lp760
g32
asbI1
(tg36
I00
S'Y\x8d\x18\x81\x14J\xb9A'
p761
tp762
bag3
(g4
(I0
tp763
g6
tp764
Rp765
(g9
(g10
g11
Ntp766
Rp767
(dp768
g15
(lp769
I1
asg17
I1
sg18
(lp770
g32
asbI1
(tg36
I00
S'\xeeI\r\xa6\xe2\xeb\xbfA'
p771
tp772
bag3
(g4
(I0
tp773
g6
tp774
Rp775
(g9
(g10
g11
Ntp776
Rp777
(dp778
g15
(lp779
I1
asg17
I1
sg18
(lp780
g32
asbI1
(tg36
I00
S'\xefm\x04\xd2\xf3Q\xc2A'
p781
tp782
bag3
(g4
(I0
tp783
g6
tp784
Rp785
(g9
(g10
g11
Ntp786
Rp787
(dp788
g15
(lp789
I1
asg17
I1
sg18
(lp790
g32
asbI1
(tg36
I00
S'\xe6\x14w*\x98\xdd\xc3A'
p791
tp792
bag3
(g4
(I0
tp793
g6
tp794
Rp795
(g9
(g10
g11
Ntp796
Rp797
(dp798
g15
(lp799
I1
asg17
I1
sg18
(lp800
g32
asbI1
(tg36
I00
S'\xf7mJT\xfdA\xc7A'
p801
tp802
bag3
(g4
(I0
tp803
g6
tp804
Rp805
(g9
(g10
g11
Ntp806
Rp807
(dp808
g15
(lp809
I1
asg17
I1
sg18
(lp810
g32
asbI1
(tg36
I00
S'\x08V%\xa8L\xdf\xc8A'
p811
tp812
bag3
(g4
(I0
tp813
g6
tp814
Rp815
(g9
(g10
g11
Ntp816
Rp817
(dp818
g15
(lp819
I1
asg17
I1
sg18
(lp820
g32
asbI1
(tg36
I00
S'_(q\x1cm\xb9\xcbA'
p821
tp822
bag3
(g4
(I0
tp823
g6
tp824
Rp825
(g9
(g10
g11
Ntp826
Rp827
(dp828
g15
(lp829
I1
asg17
I1
sg18
(lp830
g32
asbI1
(tg36
I00
S'\xd6\x97\x02z\xe5\xb6\xceA'
p831
tp832
bag3
(g4
(I0
tp833
g6
tp834
Rp835
(g9
(g10
g11
Ntp836
Rp837
(dp838
g15
(lp839
I1
asg17
I1
sg18
(lp840
g32
asbI1
(tg36
I00
S'\xeb\xf3\x80\xbffD\xd1A'
p841
tp842
bag3
(g4
(I0
tp843
g6
tp844
Rp845
(g9
(g10
g11
Ntp846
Rp847
(dp848
g15
(lp849
I1
asg17
I1
sg18
(lp850
g32
asbI1
(tg36
I00
S'\x83\xb3\xb6Z\xab(\xd2A'
p851
tp852
bag3
(g4
(I0
tp853
g6
tp854
Rp855
(g9
(g10
g11
Ntp856
Rp857
(dp858
g15
(lp859
I1
asg17
I1
sg18
(lp860
g32
asbI1
(tg36
I00
S'\xa9>\x03GxO\xd3A'
p861
tp862
bag3
(g4
(I0
tp863
g6
tp864
Rp865
(g9
(g10
g11
Ntp866
Rp867
(dp868
g15
(lp869
I1
asg17
I1
sg18
(lp870
g32
asbI1
(tg36
I00
S'\xffa\x9e\x82\xf5\xe2\xd4A'
p871
tp872
bag3
(g4
(I0
tp873
g6
tp874
Rp875
(g9
(g10
g11
Ntp876
Rp877
(dp878
g15
(lp879
I1
asg17
I1
sg18
(lp880
g32
asbI1
(tg36
I00
S'\xbes\xd9\xeb\x10t\xd5A'
p881
tp882
bag3
(g4
(I0
tp883
g6
tp884
Rp885
(g9
(g10
g11
Ntp886
Rp887
(dp888
g15
(lp889
I1
asg17
I1
sg18
(lp890
g32
asbI1
(tg36
I00
S'\xaa,\xed\xac\xab/\xd7A'
p891
tp892
bag3
(g4
(I0
tp893
g6
tp894
Rp895
(g9
(g10
g11
Ntp896
Rp897
(dp898
g15
(lp899
I1
asg17
I1
sg18
(lp900
g32
asbI1
(tg36
I00
S'\x8c\xe9;G\x12\xa1\xd7A'
p901
tp902
bag3
(g4
(I0
tp903
g6
tp904
Rp905
(g9
(g10
g11
Ntp906
Rp907
(dp908
g15
(lp909
I1
asg17
I1
sg18
(lp910
g32
asbI1
(tg36
I00
S'\x06x\x93\x1fC\x1f\xd8A'
p911
tp912
bag3
(g4
(I0
tp913
g6
tp914
Rp915
(g9
(g10
g11
Ntp916
Rp917
(dp918
g15
(lp919
I1
asg17
I1
sg18
(lp920
g32
asbI1
(tg36
I00
S'\x9e\\\x00\xcdq\x8f\xd8A'
p921
tp922
bag3
(g4
(I0
tp923
g6
tp924
Rp925
(g9
(g10
g11
Ntp926
Rp927
(dp928
g15
(lp929
I1
asg17
I1
sg18
(lp930
g32
asbI1
(tg36
I00
S'|\xd4-`\x17\xee\xd8A'
p931
tp932
bag3
(g4
(I0
tp933
g6
tp934
Rp935
(g9
(g10
g11
Ntp936
Rp937
(dp938
g15
(lp939
I1
asg17
I1
sg18
(lp940
g32
asbI1
(tg36
I00
S'g\xf4z\xfa\xa5X\xd9A'
p941
tp942
bag3
(g4
(I0
tp943
g6
tp944
Rp945
(g9
(g10
g11
Ntp946
Rp947
(dp948
g15
(lp949
I1
asg17
I1
sg18
(lp950
g32
asbI1
(tg36
I00
S'\x13$\xe3T\xdd\xc9\xd9A'
p951
tp952
bag3
(g4
(I0
tp953
g6
tp954
Rp955
(g9
(g10
g11
Ntp956
Rp957
(dp958
g15
(lp959
I1
asg17
I1
sg18
(lp960
g32
asbI1
(tg36
I00
S'J\xb0\xa5\x1bh\x86\xdaA'
p961
tp962
bag3
(g4
(I0
tp963
g6
tp964
Rp965
(g9
(g10
g11
Ntp966
Rp967
(dp968
g15
(lp969
I1
asg17
I1
sg18
(lp970
g32
asbI1
(tg36
I00
S'\xba\xe0\x07\x80?\xce\xdaA'
p971
tp972
bag3
(g4
(I0
tp973
g6
tp974
Rp975
(g9
(g10
g11
Ntp976
Rp977
(dp978
g15
(lp979
I1
asg17
I1
sg18
(lp980
g32
asbI1
(tg36
I00
S'\x93\xef\xabE\xc0#\xdbA'
p981
tp982
bag3
(g4
(I0
tp983
g6
tp984
Rp985
(g9
(g10
g11
Ntp986
Rp987
(dp988
g15
(lp989
I1
asg17
I1
sg18
(lp990
g32
asbI1
(tg36
I00
S'\x9f\xae\xbe)tn\xdbA'
p991
tp992
bag3
(g4
(I0
tp993
g6
tp994
Rp995
(g9
(g10
g11
Ntp996
Rp997
(dp998
g15
(lp999
I1
asg17
I1
sg18
(lp1000
g32
asbI1
(tg36
I00
S'\x05>\x88b\xd5\xab\xdbA'
p1001
tp1002
bag3
(g4
(I0
tp1003
g6
tp1004
Rp1005
(g9
(g10
g11
Ntp1006
Rp1007
(dp1008
g15
(lp1009
I1
asg17
I1
sg18
(lp1010
g32
asbI1
(tg36
I00
S'(Jo\x82\xf1\xcb\xdcA'
p1011
tp1012
bag3
(g4
(I0
tp1013
g6
tp1014
Rp1015
(g9
(g10
g11
Ntp1016
Rp1017
(dp1018
g15
(lp1019
I1
asg17
I1
sg18
(lp1020
g32
asbI1
(tg36
I00
S'\xe1\xdb@\xee\x1f\xff\xdcA'
p1021
tp1022
bag3
(g4
(I0
tp1023
g6
tp1024
Rp1025
(g9
(g10
g11
Ntp1026
Rp1027
(dp1028
g15
(lp1029
I1
asg17
I1
sg18
(lp1030
g32
asbI1
(tg36
I00
S'\x00\x9cS\xbfeO\xddA'
p1031
tp1032
bag3
(g4
(I0
tp1033
g6
tp1034
Rp1035
(g9
(g10
g11
Ntp1036
Rp1037
(dp1038
g15
(lp1039
I1
asg17
I1
sg18
(lp1040
g32
asbI1
(tg36
I00
S'nJ\x0c5u\xc2\xddA'
p1041
tp1042
bag3
(g4
(I0
tp1043
g6
tp1044
Rp1045
(g9
(g10
g11
Ntp1046
Rp1047
(dp1048
g15
(lp1049
I1
asg17
I1
sg18
(lp1050
g32
asbI1
(tg36
I00
S'\xbf\xb94\xc6\x93\x02\xdeA'
p1051
tp1052
bag3
(g4
(I0
tp1053
g6
tp1054
Rp1055
(g9
(g10
g11
Ntp1056
Rp1057
(dp1058
g15
(lp1059
I1
asg17
I1
sg18
(lp1060
g32
asbI1
(tg36
I00
S'P \x13\x16^g\xdeA'
p1061
tp1062
bag3
(g4
(I0
tp1063
g6
tp1064
Rp1065
(g9
(g10
g11
Ntp1066
Rp1067
(dp1068
g15
(lp1069
I1
asg17
I1
sg18
(lp1070
g32
asbI1
(tg36
I00
S'\xbc\x94\xfb\xa0\x8cs\x97A'
p1071
tp1072
bag3
(g4
(I0
tp1073
g6
tp1074
Rp1075
(g9
(g10
g11
Ntp1076
Rp1077
(dp1078
g15
(lp1079
I1
asg17
I1
sg18
(lp1080
g32
asbI1
(tg36
I00
S'f\x06H\x8b\x8e\x99\x97A'
p1081
tp1082
bag3
(g4
(I0
tp1083
g6
tp1084
Rp1085
(g9
(g10
g11
Ntp1086
Rp1087
(dp1088
g15
(lp1089
I1
asg17
I1
sg18
(lp1090
g32
asbI1
(tg36
I00
S'\x92y\x82\x99\x8b\xda\x97A'
p1091
tp1092
bag3
(g4
(I0
tp1093
g6
tp1094
Rp1095
(g9
(g10
g11
Ntp1096
Rp1097
(dp1098
g15
(lp1099
I1
asg17
I1
sg18
(lp1100
g32
asbI1
(tg36
I00
S'\xce\xc7\xb0$\r\x18\x98A'
p1101
tp1102
bag3
(g4
(I0
tp1103
g6
tp1104
Rp1105
(g9
(g10
g11
Ntp1106
Rp1107
(dp1108
g15
(lp1109
I1
asg17
I1
sg18
(lp1110
g32
asbI1
(tg36
I00
S'\xd3tL>zX\x98A'
p1111
tp1112
bag3
(g4
(I0
tp1113
g6
tp1114
Rp1115
(g9
(g10
g11
Ntp1116
Rp1117
(dp1118
g15
(lp1119
I1
asg17
I1
sg18
(lp1120
g32
asbI1
(tg36
I00
S'\xc3\x8e\x95\x94\x11\xaf\x98A'
p1121
tp1122
bag3
(g4
(I0
tp1123
g6
tp1124
Rp1125
(g9
(g10
g11
Ntp1126
Rp1127
(dp1128
g15
(lp1129
I1
asg17
I1
sg18
(lp1130
g32
asbI1
(tg36
I00
S'M\x93\xef\x02\x1c\x02\x99A'
p1131
tp1132
bag3
(g4
(I0
tp1133
g6
tp1134
Rp1135
(g9
(g10
g11
Ntp1136
Rp1137
(dp1138
g15
(lp1139
I1
asg17
I1
sg18
(lp1140
g32
asbI1
(tg36
I00
S'\xae\xd1{\xa9}z\x99A'
p1141
tp1142
bag3
(g4
(I0
tp1143
g6
tp1144
Rp1145
(g9
(g10
g11
Ntp1146
Rp1147
(dp1148
g15
(lp1149
I1
asg17
I1
sg18
(lp1150
g32
asbI1
(tg36
I00
S'O\xbbMx\x83\xe3\x99A'
p1151
tp1152
bag3
(g4
(I0
tp1153
g6
tp1154
Rp1155
(g9
(g10
g11
Ntp1156
Rp1157
(dp1158
g15
(lp1159
I1
asg17
I1
sg18
(lp1160
g32
asbI1
(tg36
I00
S'\xc9\x1c.+JG\x9aA'
p1161
tp1162
bag3
(g4
(I0
tp1163
g6
tp1164
Rp1165
(g9
(g10
g11
Ntp1166
Rp1167
(dp1168
g15
(lp1169
I1
asg17
I1
sg18
(lp1170
g32
asbI1
(tg36
I00
S'\x00\x00\x00\x00\x00\x00\x00\x00'
p1171
tp1172
bag3
(g4
(I0
tp1173
g6
tp1174
Rp1175
(g9
(g10
g11
Ntp1176
Rp1177
(dp1178
g15
(lp1179
I1
asg17
I1
sg18
(lp1180
g32
asbI1
(tg36
I00
S'\xb0$|\xb6c\x0b\x9bA'
p1181
tp1182
bag3
(g4
(I0
tp1183
g6
tp1184
Rp1185
(g9
(g10
g11
Ntp1186
Rp1187
(dp1188
g15
(lp1189
I1
asg17
I1
sg18
(lp1190
g32
asbI1
(tg36
I00
S'\xb2\xfa%\xe2\xd9^\x9bA'
p1191
tp1192
bag3
(g4
(I0
tp1193
g6
tp1194
Rp1195
(g9
(g10
g11
Ntp1196
Rp1197
(dp1198
g15
(lp1199
I1
asg17
I1
sg18
(lp1200
g32
asbI1
(tg36
I00
S'gH\xed$\x86\xc0\x9bA'
p1201
tp1202
bag3
(g4
(I0
tp1203
g6
tp1204
Rp1205
(g9
(g10
g11
Ntp1206
Rp1207
(dp1208
g15
(lp1209
I1
asg17
I1
sg18
(lp1210
g32
asbI1
(tg36
I00
S'\xb5E\xc5\x1b2\x7f\x9cA'
p1211
tp1212
bag3
(g4
(I0
tp1213
g6
tp1214
Rp1215
(g9
(g10
g11
Ntp1216
Rp1217
(dp1218
g15
(lp1219
I1
asg17
I1
sg18
(lp1220
g32
asbI1
(tg36
I00
S'\x8c\xafq\x93\x94\xbe\x9dA'
p1221
tp1222
bag3
(g4
(I0
tp1223
g6
tp1224
Rp1225
(g9
(g10
g11
Ntp1226
Rp1227
(dp1228
g15
(lp1229
I1
asg17
I1
sg18
(lp1230
g32
asbI1
(tg36
I00
S'\xcc\xe4\xca\x18\xfaO\x9fA'
p1231
tp1232
bag3
(g4
(I0
tp1233
g6
tp1234
Rp1235
(g9
(g10
g11
Ntp1236
Rp1237
(dp1238
g15
(lp1239
I1
asg17
I1
sg18
(lp1240
g32
asbI1
(tg36
I00
S'\xb7\x98\xca{\xf1\x0f\xa0A'
p1241
tp1242
bag3
(g4
(I0
tp1243
g6
tp1244
Rp1245
(g9
(g10
g11
Ntp1246
Rp1247
(dp1248
g15
(lp1249
I1
asg17
I1
sg18
(lp1250
g32
asbI1
(tg36
I00
S'\xa5\x9d\xed\x81;\x82\xa0A'
p1251
tp1252
bag3
(g4
(I0
tp1253
g6
tp1254
Rp1255
(g9
(g10
g11
Ntp1256
Rp1257
(dp1258
g15
(lp1259
I1
asg17
I1
sg18
(lp1260
g32
asbI1
(tg36
I00
S"d'\xe3\x92\xb8\xc2\xa0A"
p1261
tp1262
bag3
(g4
(I0
tp1263
g6
tp1264
Rp1265
(g9
(g10
g11
Ntp1266
Rp1267
(dp1268
g15
(lp1269
I1
asg17
I1
sg18
(lp1270
g32
asbI1
(tg36
I00
S's\xfc\x87\xd2\x16\xe1\xa0A'
p1271
tp1272
bag3
(g4
(I0
tp1273
g6
tp1274
Rp1275
(g9
(g10
g11
Ntp1276
Rp1277
(dp1278
g15
(lp1279
I1
asg17
I1
sg18
(lp1280
g32
asbI1
(tg36
I00
S'\x99\x95La\x13!\xa1A'
p1281
tp1282
bag3
(g4
(I0
tp1283
g6
tp1284
Rp1285
(g9
(g10
g11
Ntp1286
Rp1287
(dp1288
g15
(lp1289
I1
asg17
I1
sg18
(lp1290
g32
asbI1
(tg36
I00
S'n:\x1c\x0e `\xa1A'
p1291
tp1292
basS'time'
p1293
(lp1294
F0.2649960085139999
aF0.4810528072462711
aF0.6971096059785414
aF0.9131664047108123
aF1.1292232034430836
aF1.3452800021753537
aF1.5613368009076247
aF1.7773935996398986
aF1.9934503983721756
aF2.2095071971044673
aF2.425563995836784
aF2.6416207945691266
aF2.857677593301238
aF3.073734392033513
aF3.289791190765783
aF3.5058479894980588
aF3.7219047882303347
aF3.937961586962606
aF4.1540183856948785
aF4.370075184427155
aF4.586131983159426
aF4.802188781891698
aF5.018245580623974
aF5.234302379356252
aF5.450359178088531
aF5.666415976820802
aF5.882472775553084
aF6.098529574285368
aF6.314586373017657
aF6.530643171749948
aF6.7466999704822515
aF6.962756769214565
aF7.178813567946894
aF7.394870366679235
aF7.610927165411596
aF7.826983964143988
aF8.043040762876418
aF8.259097561608888
aF8.475154360341397
aF8.691211159072608
aF8.907267957804896
aF9.123324756537166
aF9.339381555269437
aF9.55543835400171
aF9.771495152733985
aF9.987551951466255
aF10.203608750198534
aF10.419665548930801
aF10.635722347663062
aF10.851779146395334
aF11.06783594512761
aF11.283892743859877
aF11.499949542592148
aF11.716006341324412
aF11.932063140056687
aF12.148119938788971
aF12.36417673752123
aF12.58023353625351
aF12.796290334985823
aF13.012347133718091
aF13.228403932450362
aF13.44446073118264
aF13.660517529914928
aF13.87657432864718
as.